
Allocating common symbols
Common symbol       size              file

HIDIO_ack_buf_data  0x4e              CMakeFiles/kiibohd.dir/Output/HID-IO/hidio_com.c.obj
LED_framerate       0x4               CMakeFiles/kiibohd.dir/Scan/Devices/ISSILed/led_scan.c.obj
triggerPendingDebugMode
                    0x1               CMakeFiles/kiibohd.dir/Macro/PartialMap/macro.c.obj
uart_tx_buf         0x106             CMakeFiles/kiibohd.dir/Scan/Devices/UARTConnect/connect_scan.c.obj
Pixel_AnimationStack
                    0x54              CMakeFiles/kiibohd.dir/Macro/PixelMap/pixel.c.obj
Pixel_animationControl
                    0x1               CMakeFiles/kiibohd.dir/Macro/PixelMap/pixel.c.obj
Connect_receive_RemoteCapabilityBuffer
                    0x6               CMakeFiles/kiibohd.dir/Scan/Devices/UARTConnect/connect_scan.c.obj
gWDT_entropy_pool   0x20              CMakeFiles/kiibohd.dir/Lib/entropy.c.obj
macroPauseMode      0x1               CMakeFiles/kiibohd.dir/Macro/PartialMap/macro.c.obj
macroTriggerEventBufferSize
                    0x2               CMakeFiles/kiibohd.dir/Macro/PartialMap/macro.c.obj
macroResultDelayedCapabilities
                    0x7c              CMakeFiles/kiibohd.dir/Macro/PartialMap/result.c.obj
Pixel_FrameState    0x1               CMakeFiles/kiibohd.dir/Macro/PixelMap/pixel.c.obj
LED_chipSend        0x1               CMakeFiles/kiibohd.dir/Scan/Devices/ISSILed/led_scan.c.obj
gWDT_buffer_position
                    0x1               CMakeFiles/kiibohd.dir/Lib/entropy.c.obj
CLIHexDebugMode     0x1               CMakeFiles/kiibohd.dir/main.c.obj
Output_DebugMode    0x1               CMakeFiles/kiibohd.dir/Output/Interface/output_gen.c.obj
USBKeys_Idle_Count  0x1               CMakeFiles/kiibohd.dir/Output/USB/output_usb.c.obj
LED_pause           0x1               CMakeFiles/kiibohd.dir/Scan/Devices/ISSILed/led_scan.c.obj
CLIHistoryCurrent   0x1               CMakeFiles/kiibohd.dir/main.c.obj
USBMouse_Changed    0x1               CMakeFiles/kiibohd.dir/Output/USB/output_usb.c.obj
usb_rx_byte_count_data
                    0x14              CMakeFiles/kiibohd.dir/Output/USB/arm/usb_dev.c.obj
USBInit_TimeEnd     0x4               CMakeFiles/kiibohd.dir/Output/USB/output_usb.c.obj
capDebugMode        0x1               CMakeFiles/kiibohd.dir/Macro/PartialMap/result.c.obj
CLILEDState         0x1               CMakeFiles/kiibohd.dir/main.c.obj
CLIDictionariesUsed
                    0x1               CMakeFiles/kiibohd.dir/main.c.obj
LED_enable_current  0x1               CMakeFiles/kiibohd.dir/Scan/Devices/ISSILed/led_scan.c.obj
Pixel_AnimationElement_Stor
                    0x140             CMakeFiles/kiibohd.dir/Macro/PixelMap/pixel.c.obj
USBMouse_Buttons    0x2               CMakeFiles/kiibohd.dir/Output/USB/output_usb.c.obj
LED_displayFPS      0x1               CMakeFiles/kiibohd.dir/Scan/Devices/ISSILed/led_scan.c.obj
USBMouse_VertWheel  0x1               CMakeFiles/kiibohd.dir/Output/USB/output_usb.c.obj
CLIHistoryBuffer    0x3e8             CMakeFiles/kiibohd.dir/main.c.obj
uart_tx_status      0x4               CMakeFiles/kiibohd.dir/Scan/Devices/UARTConnect/connect_scan.c.obj
HIDIO_Id_List_Size  0x4               CMakeFiles/kiibohd.dir/Output/HID-IO/hidio_com.c.obj
voteDebugMode       0x1               CMakeFiles/kiibohd.dir/Macro/PartialMap/macro.c.obj
CLILineBuffer       0x65              CMakeFiles/kiibohd.dir/main.c.obj
macroResultMacroPendingList
                    0x25c             CMakeFiles/kiibohd.dir/Macro/PartialMap/result.c.obj
Pixel_testMode      0x1               CMakeFiles/kiibohd.dir/Macro/PixelMap/pixel.c.obj
HIDIO_Packet_Size   0x2               CMakeFiles/kiibohd.dir/Output/HID-IO/hidio_com.c.obj
HIDIO_assembly_buf_data
                    0xd0              CMakeFiles/kiibohd.dir/Output/HID-IO/hidio_com.c.obj
CLIHistoryHead      0x1               CMakeFiles/kiibohd.dir/main.c.obj
USBMouse_Relative_y
                    0x2               CMakeFiles/kiibohd.dir/Output/USB/output_usb.c.obj
USBInit_Ticks       0x2               CMakeFiles/kiibohd.dir/Output/USB/output_usb.c.obj
LayerState          0x3               CMakeFiles/kiibohd.dir/Macro/PartialMap/macro.c.obj
Connect_receive_RemoteCapabilityArgs
                    0x19              CMakeFiles/kiibohd.dir/Scan/Devices/UARTConnect/connect_scan.c.obj
Layer_rotationLayer
                    0x2               CMakeFiles/kiibohd.dir/Macro/PartialMap/layer.c.obj
USBKeys_idle        0x22              CMakeFiles/kiibohd.dir/Output/USB/output_usb.c.obj
LED_pageBuffer_brightness
                    0x124             CMakeFiles/kiibohd.dir/Scan/Devices/ISSILed/led_scan.c.obj
HIDIO_ack_buf       0x4               CMakeFiles/kiibohd.dir/Output/HID-IO/hidio_com.c.obj
gWDT_buffer         0x20              CMakeFiles/kiibohd.dir/Lib/entropy.c.obj
KLL_pageBuffer      0x120             CMakeFiles/kiibohd.dir/generatedPixelmap.c.obj
macroTriggerEventBuffer
                    0x111             CMakeFiles/kiibohd.dir/Macro/PartialMap/macro.c.obj
macroStepCounter    0x2               CMakeFiles/kiibohd.dir/Macro/PartialMap/macro.c.obj
LED_brightness      0x1               CMakeFiles/kiibohd.dir/Scan/Devices/ISSILed/led_scan.c.obj
LED_timePrev        0x8               CMakeFiles/kiibohd.dir/Scan/Devices/ISSILed/led_scan.c.obj
i2c_channels        0x20              CMakeFiles/kiibohd.dir/Scan/Devices/ISSILed/i2c.c.obj
HIDIO_ack_send_data
                    0xd0              CMakeFiles/kiibohd.dir/Output/HID-IO/hidio_com.c.obj
Output_ExtCurrent_Available
                    0x2               CMakeFiles/kiibohd.dir/Output/Interface/output_gen.c.obj
USBDev_Address      0x1               CMakeFiles/kiibohd.dir/Output/USB/output_usb.c.obj
uart_rx_status      0x8               CMakeFiles/kiibohd.dir/Scan/Devices/UARTConnect/connect_scan.c.obj
USBKeys_Sent        0x1               CMakeFiles/kiibohd.dir/Output/USB/output_usb.c.obj
LED_pageBuffer      0x124             CMakeFiles/kiibohd.dir/generatedPixelmap.c.obj
layerDebugMode      0x1               CMakeFiles/kiibohd.dir/Macro/PartialMap/layer.c.obj
USBKeys_LEDs_prev   0x1               CMakeFiles/kiibohd.dir/Output/USB/output_usb.c.obj
USBKeys_primary     0x22              CMakeFiles/kiibohd.dir/Output/USB/output_usb.c.obj
USBMouse_Relative_x
                    0x2               CMakeFiles/kiibohd.dir/Output/USB/output_usb.c.obj
Output_Available    0x1               CMakeFiles/kiibohd.dir/Output/Interface/output_gen.c.obj
HIDIO_ack_send_buf  0x10              CMakeFiles/kiibohd.dir/Output/HID-IO/hidio_com.c.obj
uart_rx_buf         0x104             CMakeFiles/kiibohd.dir/Scan/Devices/UARTConnect/connect_scan.c.obj
macroTriggerEventLayerCache
                    0xb6              CMakeFiles/kiibohd.dir/Macro/PartialMap/layer.c.obj
gWDT_pool_count     0x1               CMakeFiles/kiibohd.dir/Lib/entropy.c.obj
HIDIO_Id_List       0xf0              CMakeFiles/kiibohd.dir/Output/HID-IO/hidio_com.c.obj
HIDIO_assembly_buf  0x10              CMakeFiles/kiibohd.dir/Output/HID-IO/hidio_com.c.obj
USBMouse_HoriWheel  0x1               CMakeFiles/kiibohd.dir/Output/USB/output_usb.c.obj
Output_USBCurrent_Available
                    0x2               CMakeFiles/kiibohd.dir/Output/Interface/output_gen.c.obj
LED_enable          0x1               CMakeFiles/kiibohd.dir/Scan/Devices/ISSILed/led_scan.c.obj
CLIDict             0x28              CMakeFiles/kiibohd.dir/main.c.obj
HIDIO_tx_buf        0x10              CMakeFiles/kiibohd.dir/Output/HID-IO/hidio_com.c.obj
gWDT_pool_start     0x1               CMakeFiles/kiibohd.dir/Lib/entropy.c.obj
gWDT_pool_end       0x1               CMakeFiles/kiibohd.dir/Lib/entropy.c.obj
USBKeys_LEDs        0x1               CMakeFiles/kiibohd.dir/Output/USB/output_usb.c.obj
HIDIO_tx_buf_data   0xca              CMakeFiles/kiibohd.dir/Output/HID-IO/hidio_com.c.obj
LCD_layerStackExact
                    0x8               CMakeFiles/kiibohd.dir/Scan/Devices/STLcd/lcd_scan.c.obj
USBKeys_Idle_Expiry
                    0x4               CMakeFiles/kiibohd.dir/Output/USB/output_usb.c.obj
CLIHistoryTail      0x1               CMakeFiles/kiibohd.dir/main.c.obj
macroDebugMode      0x1               CMakeFiles/kiibohd.dir/Macro/PartialMap/macro.c.obj
USBKeys_Protocol_Change
                    0x1               CMakeFiles/kiibohd.dir/Output/USB/output_usb.c.obj
macroInterconnectCache
                    0x111             CMakeFiles/kiibohd.dir/Macro/PartialMap/macro.c.obj
CLIDictNames        0x28              CMakeFiles/kiibohd.dir/main.c.obj
USBInit_TimeStart   0x4               CMakeFiles/kiibohd.dir/Output/USB/output_usb.c.obj
gWDT_loop_counter   0x1               CMakeFiles/kiibohd.dir/Lib/entropy.c.obj
CLILineBufferCurrent
                    0x1               CMakeFiles/kiibohd.dir/main.c.obj
TriggerMacroRecordList
                    0x2b8             CMakeFiles/kiibohd.dir/Macro/PartialMap/macro.c.obj

Discarded input sections

 .group         0x0000000000000000        0xc CMakeFiles/kiibohd.dir/main.c.obj
 .group         0x0000000000000000        0xc CMakeFiles/kiibohd.dir/main.c.obj
 .group         0x0000000000000000        0xc CMakeFiles/kiibohd.dir/main.c.obj
 .group         0x0000000000000000        0xc CMakeFiles/kiibohd.dir/main.c.obj
 .group         0x0000000000000000        0xc CMakeFiles/kiibohd.dir/main.c.obj
 .group         0x0000000000000000        0xc CMakeFiles/kiibohd.dir/main.c.obj
 .group         0x0000000000000000        0xc CMakeFiles/kiibohd.dir/main.c.obj
 .group         0x0000000000000000        0xc CMakeFiles/kiibohd.dir/main.c.obj
 .group         0x0000000000000000        0xc CMakeFiles/kiibohd.dir/main.c.obj
 .group         0x0000000000000000        0xc CMakeFiles/kiibohd.dir/main.c.obj
 .group         0x0000000000000000        0xc CMakeFiles/kiibohd.dir/main.c.obj
 .group         0x0000000000000000        0xc CMakeFiles/kiibohd.dir/main.c.obj
 .group         0x0000000000000000        0xc CMakeFiles/kiibohd.dir/main.c.obj
 .group         0x0000000000000000        0xc CMakeFiles/kiibohd.dir/main.c.obj
 .group         0x0000000000000000        0xc CMakeFiles/kiibohd.dir/main.c.obj
 .group         0x0000000000000000        0xc CMakeFiles/kiibohd.dir/main.c.obj
 .group         0x0000000000000000        0xc CMakeFiles/kiibohd.dir/main.c.obj
 .text          0x0000000000000000        0x0 CMakeFiles/kiibohd.dir/main.c.obj
 .data          0x0000000000000000        0x0 CMakeFiles/kiibohd.dir/main.c.obj
 .bss           0x0000000000000000        0x0 CMakeFiles/kiibohd.dir/main.c.obj
 .group         0x0000000000000000        0xc CMakeFiles/kiibohd.dir/Lib/kinetis.c.obj
 .group         0x0000000000000000        0xc CMakeFiles/kiibohd.dir/Lib/kinetis.c.obj
 .group         0x0000000000000000        0xc CMakeFiles/kiibohd.dir/Lib/kinetis.c.obj
 .group         0x0000000000000000        0xc CMakeFiles/kiibohd.dir/Lib/kinetis.c.obj
 .group         0x0000000000000000        0xc CMakeFiles/kiibohd.dir/Lib/kinetis.c.obj
 .group         0x0000000000000000        0xc CMakeFiles/kiibohd.dir/Lib/kinetis.c.obj
 .group         0x0000000000000000        0xc CMakeFiles/kiibohd.dir/Lib/kinetis.c.obj
 .group         0x0000000000000000        0xc CMakeFiles/kiibohd.dir/Lib/kinetis.c.obj
 .group         0x0000000000000000        0xc CMakeFiles/kiibohd.dir/Lib/kinetis.c.obj
 .group         0x0000000000000000        0xc CMakeFiles/kiibohd.dir/Lib/kinetis.c.obj
 .group         0x0000000000000000        0xc CMakeFiles/kiibohd.dir/Lib/kinetis.c.obj
 .group         0x0000000000000000        0xc CMakeFiles/kiibohd.dir/Lib/kinetis.c.obj
 .group         0x0000000000000000        0xc CMakeFiles/kiibohd.dir/Lib/kinetis.c.obj
 .text          0x0000000000000000        0x0 CMakeFiles/kiibohd.dir/Lib/kinetis.c.obj
 .data          0x0000000000000000        0x0 CMakeFiles/kiibohd.dir/Lib/kinetis.c.obj
 .bss           0x0000000000000000        0x0 CMakeFiles/kiibohd.dir/Lib/kinetis.c.obj
 .text.memcmp   0x0000000000000000       0x34 CMakeFiles/kiibohd.dir/Lib/kinetis.c.obj
 .text._sbrk    0x0000000000000000       0x2c CMakeFiles/kiibohd.dir/Lib/kinetis.c.obj
 .text.nvic_execution_priority
                0x0000000000000000       0x58 CMakeFiles/kiibohd.dir/Lib/kinetis.c.obj
 .data.__brkval
                0x0000000000000000        0x4 CMakeFiles/kiibohd.dir/Lib/kinetis.c.obj
 .debug_macro   0x0000000000000000      0xa60 CMakeFiles/kiibohd.dir/Lib/kinetis.c.obj
 .debug_macro   0x0000000000000000       0x28 CMakeFiles/kiibohd.dir/Lib/kinetis.c.obj
 .debug_macro   0x0000000000000000       0x22 CMakeFiles/kiibohd.dir/Lib/kinetis.c.obj
 .debug_macro   0x0000000000000000       0x8e CMakeFiles/kiibohd.dir/Lib/kinetis.c.obj
 .debug_macro   0x0000000000000000       0x51 CMakeFiles/kiibohd.dir/Lib/kinetis.c.obj
 .debug_macro   0x0000000000000000       0xef CMakeFiles/kiibohd.dir/Lib/kinetis.c.obj
 .debug_macro   0x0000000000000000       0x6a CMakeFiles/kiibohd.dir/Lib/kinetis.c.obj
 .debug_macro   0x0000000000000000      0x1df CMakeFiles/kiibohd.dir/Lib/kinetis.c.obj
 .debug_macro   0x0000000000000000      0x2ea CMakeFiles/kiibohd.dir/Lib/kinetis.c.obj
 .debug_macro   0x0000000000000000       0xbe CMakeFiles/kiibohd.dir/Lib/kinetis.c.obj
 .debug_macro   0x0000000000000000       0x10 CMakeFiles/kiibohd.dir/Lib/kinetis.c.obj
 .debug_macro   0x0000000000000000       0x9a CMakeFiles/kiibohd.dir/Lib/kinetis.c.obj
 .group         0x0000000000000000        0xc CMakeFiles/kiibohd.dir/Lib/delay.c.obj
 .group         0x0000000000000000        0xc CMakeFiles/kiibohd.dir/Lib/delay.c.obj
 .group         0x0000000000000000        0xc CMakeFiles/kiibohd.dir/Lib/delay.c.obj
 .group         0x0000000000000000        0xc CMakeFiles/kiibohd.dir/Lib/delay.c.obj
 .group         0x0000000000000000        0xc CMakeFiles/kiibohd.dir/Lib/delay.c.obj
 .group         0x0000000000000000        0xc CMakeFiles/kiibohd.dir/Lib/delay.c.obj
 .group         0x0000000000000000        0xc CMakeFiles/kiibohd.dir/Lib/delay.c.obj
 .group         0x0000000000000000        0xc CMakeFiles/kiibohd.dir/Lib/delay.c.obj
 .group         0x0000000000000000        0xc CMakeFiles/kiibohd.dir/Lib/delay.c.obj
 .group         0x0000000000000000        0xc CMakeFiles/kiibohd.dir/Lib/delay.c.obj
 .text          0x0000000000000000        0x0 CMakeFiles/kiibohd.dir/Lib/delay.c.obj
 .data          0x0000000000000000        0x0 CMakeFiles/kiibohd.dir/Lib/delay.c.obj
 .bss           0x0000000000000000        0x0 CMakeFiles/kiibohd.dir/Lib/delay.c.obj
 .text.cycle_now
                0x0000000000000000       0x28 CMakeFiles/kiibohd.dir/Lib/delay.c.obj
 .text.ms_now   0x0000000000000000       0x28 CMakeFiles/kiibohd.dir/Lib/delay.c.obj
 .text.delay_cycles
                0x0000000000000000       0x34 CMakeFiles/kiibohd.dir/Lib/delay.c.obj
 .debug_macro   0x0000000000000000      0xa60 CMakeFiles/kiibohd.dir/Lib/delay.c.obj
 .debug_macro   0x0000000000000000       0x22 CMakeFiles/kiibohd.dir/Lib/delay.c.obj
 .debug_macro   0x0000000000000000       0x8e CMakeFiles/kiibohd.dir/Lib/delay.c.obj
 .debug_macro   0x0000000000000000       0x51 CMakeFiles/kiibohd.dir/Lib/delay.c.obj
 .debug_macro   0x0000000000000000       0xef CMakeFiles/kiibohd.dir/Lib/delay.c.obj
 .debug_macro   0x0000000000000000       0x6a CMakeFiles/kiibohd.dir/Lib/delay.c.obj
 .debug_macro   0x0000000000000000      0x1df CMakeFiles/kiibohd.dir/Lib/delay.c.obj
 .debug_macro   0x0000000000000000       0x28 CMakeFiles/kiibohd.dir/Lib/delay.c.obj
 .debug_macro   0x0000000000000000     0x5af5 CMakeFiles/kiibohd.dir/Lib/delay.c.obj
 .group         0x0000000000000000        0xc CMakeFiles/kiibohd.dir/Lib/entropy.c.obj
 .group         0x0000000000000000        0xc CMakeFiles/kiibohd.dir/Lib/entropy.c.obj
 .group         0x0000000000000000        0xc CMakeFiles/kiibohd.dir/Lib/entropy.c.obj
 .group         0x0000000000000000        0xc CMakeFiles/kiibohd.dir/Lib/entropy.c.obj
 .group         0x0000000000000000        0xc CMakeFiles/kiibohd.dir/Lib/entropy.c.obj
 .group         0x0000000000000000        0xc CMakeFiles/kiibohd.dir/Lib/entropy.c.obj
 .group         0x0000000000000000        0xc CMakeFiles/kiibohd.dir/Lib/entropy.c.obj
 .group         0x0000000000000000        0xc CMakeFiles/kiibohd.dir/Lib/entropy.c.obj
 .group         0x0000000000000000        0xc CMakeFiles/kiibohd.dir/Lib/entropy.c.obj
 .group         0x0000000000000000        0xc CMakeFiles/kiibohd.dir/Lib/entropy.c.obj
 .text          0x0000000000000000        0x0 CMakeFiles/kiibohd.dir/Lib/entropy.c.obj
 .data          0x0000000000000000        0x0 CMakeFiles/kiibohd.dir/Lib/entropy.c.obj
 .bss           0x0000000000000000        0x0 CMakeFiles/kiibohd.dir/Lib/entropy.c.obj
 .text.rand_disable
                0x0000000000000000       0x2c CMakeFiles/kiibohd.dir/Lib/entropy.c.obj
 .debug_macro   0x0000000000000000      0xa60 CMakeFiles/kiibohd.dir/Lib/entropy.c.obj
 .debug_macro   0x0000000000000000       0x28 CMakeFiles/kiibohd.dir/Lib/entropy.c.obj
 .debug_macro   0x0000000000000000       0x22 CMakeFiles/kiibohd.dir/Lib/entropy.c.obj
 .debug_macro   0x0000000000000000       0x8e CMakeFiles/kiibohd.dir/Lib/entropy.c.obj
 .debug_macro   0x0000000000000000       0x51 CMakeFiles/kiibohd.dir/Lib/entropy.c.obj
 .debug_macro   0x0000000000000000       0xef CMakeFiles/kiibohd.dir/Lib/entropy.c.obj
 .debug_macro   0x0000000000000000       0x6a CMakeFiles/kiibohd.dir/Lib/entropy.c.obj
 .debug_macro   0x0000000000000000      0x1df CMakeFiles/kiibohd.dir/Lib/entropy.c.obj
 .debug_macro   0x0000000000000000     0x5af5 CMakeFiles/kiibohd.dir/Lib/entropy.c.obj
 .group         0x0000000000000000        0xc CMakeFiles/kiibohd.dir/Lib/gpio.c.obj
 .group         0x0000000000000000        0xc CMakeFiles/kiibohd.dir/Lib/gpio.c.obj
 .group         0x0000000000000000        0xc CMakeFiles/kiibohd.dir/Lib/gpio.c.obj
 .group         0x0000000000000000        0xc CMakeFiles/kiibohd.dir/Lib/gpio.c.obj
 .group         0x0000000000000000        0xc CMakeFiles/kiibohd.dir/Lib/gpio.c.obj
 .group         0x0000000000000000        0xc CMakeFiles/kiibohd.dir/Lib/gpio.c.obj
 .group         0x0000000000000000        0xc CMakeFiles/kiibohd.dir/Lib/gpio.c.obj
 .group         0x0000000000000000        0xc CMakeFiles/kiibohd.dir/Lib/gpio.c.obj
 .group         0x0000000000000000        0xc CMakeFiles/kiibohd.dir/Lib/gpio.c.obj
 .group         0x0000000000000000        0xc CMakeFiles/kiibohd.dir/Lib/gpio.c.obj
 .text          0x0000000000000000        0x0 CMakeFiles/kiibohd.dir/Lib/gpio.c.obj
 .data          0x0000000000000000        0x0 CMakeFiles/kiibohd.dir/Lib/gpio.c.obj
 .bss           0x0000000000000000        0x0 CMakeFiles/kiibohd.dir/Lib/gpio.c.obj
 .debug_macro   0x0000000000000000      0xa60 CMakeFiles/kiibohd.dir/Lib/gpio.c.obj
 .debug_macro   0x0000000000000000       0x28 CMakeFiles/kiibohd.dir/Lib/gpio.c.obj
 .debug_macro   0x0000000000000000       0x1c CMakeFiles/kiibohd.dir/Lib/gpio.c.obj
 .debug_macro   0x0000000000000000       0x22 CMakeFiles/kiibohd.dir/Lib/gpio.c.obj
 .debug_macro   0x0000000000000000       0x8e CMakeFiles/kiibohd.dir/Lib/gpio.c.obj
 .debug_macro   0x0000000000000000       0x51 CMakeFiles/kiibohd.dir/Lib/gpio.c.obj
 .debug_macro   0x0000000000000000       0xef CMakeFiles/kiibohd.dir/Lib/gpio.c.obj
 .debug_macro   0x0000000000000000       0x6a CMakeFiles/kiibohd.dir/Lib/gpio.c.obj
 .debug_macro   0x0000000000000000      0x1df CMakeFiles/kiibohd.dir/Lib/gpio.c.obj
 .debug_macro   0x0000000000000000     0x5add CMakeFiles/kiibohd.dir/Lib/gpio.c.obj
 .group         0x0000000000000000        0xc CMakeFiles/kiibohd.dir/Lib/periodic.c.obj
 .group         0x0000000000000000        0xc CMakeFiles/kiibohd.dir/Lib/periodic.c.obj
 .group         0x0000000000000000        0xc CMakeFiles/kiibohd.dir/Lib/periodic.c.obj
 .group         0x0000000000000000        0xc CMakeFiles/kiibohd.dir/Lib/periodic.c.obj
 .group         0x0000000000000000        0xc CMakeFiles/kiibohd.dir/Lib/periodic.c.obj
 .group         0x0000000000000000        0xc CMakeFiles/kiibohd.dir/Lib/periodic.c.obj
 .group         0x0000000000000000        0xc CMakeFiles/kiibohd.dir/Lib/periodic.c.obj
 .group         0x0000000000000000        0xc CMakeFiles/kiibohd.dir/Lib/periodic.c.obj
 .group         0x0000000000000000        0xc CMakeFiles/kiibohd.dir/Lib/periodic.c.obj
 .group         0x0000000000000000        0xc CMakeFiles/kiibohd.dir/Lib/periodic.c.obj
 .group         0x0000000000000000        0xc CMakeFiles/kiibohd.dir/Lib/periodic.c.obj
 .text          0x0000000000000000        0x0 CMakeFiles/kiibohd.dir/Lib/periodic.c.obj
 .data          0x0000000000000000        0x0 CMakeFiles/kiibohd.dir/Lib/periodic.c.obj
 .bss           0x0000000000000000        0x0 CMakeFiles/kiibohd.dir/Lib/periodic.c.obj
 .debug_macro   0x0000000000000000      0xa60 CMakeFiles/kiibohd.dir/Lib/periodic.c.obj
 .debug_macro   0x0000000000000000       0x28 CMakeFiles/kiibohd.dir/Lib/periodic.c.obj
 .debug_macro   0x0000000000000000       0x1c CMakeFiles/kiibohd.dir/Lib/periodic.c.obj
 .debug_macro   0x0000000000000000       0x22 CMakeFiles/kiibohd.dir/Lib/periodic.c.obj
 .debug_macro   0x0000000000000000       0x8e CMakeFiles/kiibohd.dir/Lib/periodic.c.obj
 .debug_macro   0x0000000000000000       0x51 CMakeFiles/kiibohd.dir/Lib/periodic.c.obj
 .debug_macro   0x0000000000000000       0xef CMakeFiles/kiibohd.dir/Lib/periodic.c.obj
 .debug_macro   0x0000000000000000       0x6a CMakeFiles/kiibohd.dir/Lib/periodic.c.obj
 .debug_macro   0x0000000000000000      0x1df CMakeFiles/kiibohd.dir/Lib/periodic.c.obj
 .debug_macro   0x0000000000000000     0x5add CMakeFiles/kiibohd.dir/Lib/periodic.c.obj
 .debug_macro   0x0000000000000000       0x7c CMakeFiles/kiibohd.dir/Lib/periodic.c.obj
 .group         0x0000000000000000        0xc CMakeFiles/kiibohd.dir/Lib/storage.c.obj
 .group         0x0000000000000000        0xc CMakeFiles/kiibohd.dir/Lib/storage.c.obj
 .text          0x0000000000000000        0x0 CMakeFiles/kiibohd.dir/Lib/storage.c.obj
 .data          0x0000000000000000        0x0 CMakeFiles/kiibohd.dir/Lib/storage.c.obj
 .bss           0x0000000000000000        0x0 CMakeFiles/kiibohd.dir/Lib/storage.c.obj
 .debug_info    0x0000000000000000       0x21 CMakeFiles/kiibohd.dir/Lib/storage.c.obj
 .debug_abbrev  0x0000000000000000       0x13 CMakeFiles/kiibohd.dir/Lib/storage.c.obj
 .debug_aranges
                0x0000000000000000       0x18 CMakeFiles/kiibohd.dir/Lib/storage.c.obj
 .debug_macro   0x0000000000000000       0x1a CMakeFiles/kiibohd.dir/Lib/storage.c.obj
 .debug_macro   0x0000000000000000      0xa60 CMakeFiles/kiibohd.dir/Lib/storage.c.obj
 .debug_macro   0x0000000000000000       0x28 CMakeFiles/kiibohd.dir/Lib/storage.c.obj
 .debug_line    0x0000000000000000       0x7e CMakeFiles/kiibohd.dir/Lib/storage.c.obj
 .debug_str     0x0000000000000000     0x2dbb CMakeFiles/kiibohd.dir/Lib/storage.c.obj
 .comment       0x0000000000000000       0x80 CMakeFiles/kiibohd.dir/Lib/storage.c.obj
 .ARM.attributes
                0x0000000000000000       0x33 CMakeFiles/kiibohd.dir/Lib/storage.c.obj
 .group         0x0000000000000000        0xc CMakeFiles/kiibohd.dir/Lib/time.c.obj
 .group         0x0000000000000000        0xc CMakeFiles/kiibohd.dir/Lib/time.c.obj
 .group         0x0000000000000000        0xc CMakeFiles/kiibohd.dir/Lib/time.c.obj
 .group         0x0000000000000000        0xc CMakeFiles/kiibohd.dir/Lib/time.c.obj
 .group         0x0000000000000000        0xc CMakeFiles/kiibohd.dir/Lib/time.c.obj
 .group         0x0000000000000000        0xc CMakeFiles/kiibohd.dir/Lib/time.c.obj
 .group         0x0000000000000000        0xc CMakeFiles/kiibohd.dir/Lib/time.c.obj
 .group         0x0000000000000000        0xc CMakeFiles/kiibohd.dir/Lib/time.c.obj
 .group         0x0000000000000000        0xc CMakeFiles/kiibohd.dir/Lib/time.c.obj
 .group         0x0000000000000000        0xc CMakeFiles/kiibohd.dir/Lib/time.c.obj
 .group         0x0000000000000000        0xc CMakeFiles/kiibohd.dir/Lib/time.c.obj
 .group         0x0000000000000000        0xc CMakeFiles/kiibohd.dir/Lib/time.c.obj
 .group         0x0000000000000000        0xc CMakeFiles/kiibohd.dir/Lib/time.c.obj
 .group         0x0000000000000000        0xc CMakeFiles/kiibohd.dir/Lib/time.c.obj
 .group         0x0000000000000000        0xc CMakeFiles/kiibohd.dir/Lib/time.c.obj
 .group         0x0000000000000000        0xc CMakeFiles/kiibohd.dir/Lib/time.c.obj
 .group         0x0000000000000000        0xc CMakeFiles/kiibohd.dir/Lib/time.c.obj
 .text          0x0000000000000000        0x0 CMakeFiles/kiibohd.dir/Lib/time.c.obj
 .data          0x0000000000000000        0x0 CMakeFiles/kiibohd.dir/Lib/time.c.obj
 .bss           0x0000000000000000        0x0 CMakeFiles/kiibohd.dir/Lib/time.c.obj
 .text.Time_days
                0x0000000000000000       0x30 CMakeFiles/kiibohd.dir/Lib/time.c.obj
 .text.Time_hours
                0x0000000000000000       0x30 CMakeFiles/kiibohd.dir/Lib/time.c.obj
 .text.Time_minutes
                0x0000000000000000       0x2c CMakeFiles/kiibohd.dir/Lib/time.c.obj
 .text.Time_seconds
                0x0000000000000000       0x2c CMakeFiles/kiibohd.dir/Lib/time.c.obj
 .text.Time_ticks
                0x0000000000000000       0x40 CMakeFiles/kiibohd.dir/Lib/time.c.obj
 .text.Time_from_days
                0x0000000000000000       0x2c CMakeFiles/kiibohd.dir/Lib/time.c.obj
 .text.Time_from_hours
                0x0000000000000000       0x2c CMakeFiles/kiibohd.dir/Lib/time.c.obj
 .text.Time_from_minutes
                0x0000000000000000       0x28 CMakeFiles/kiibohd.dir/Lib/time.c.obj
 .text.Time_from_seconds
                0x0000000000000000       0x28 CMakeFiles/kiibohd.dir/Lib/time.c.obj
 .text.Time_from_ms
                0x0000000000000000       0x24 CMakeFiles/kiibohd.dir/Lib/time.c.obj
 .text.Time_duration_days
                0x0000000000000000       0x3c CMakeFiles/kiibohd.dir/Lib/time.c.obj
 .text.Time_duration_hours
                0x0000000000000000       0x3c CMakeFiles/kiibohd.dir/Lib/time.c.obj
 .text.Time_duration_minutes
                0x0000000000000000       0x38 CMakeFiles/kiibohd.dir/Lib/time.c.obj
 .text.Time_duration_seconds
                0x0000000000000000       0x38 CMakeFiles/kiibohd.dir/Lib/time.c.obj
 .rodata.Time_maxTicks
                0x0000000000000000        0x4 CMakeFiles/kiibohd.dir/Lib/time.c.obj
 .rodata.Time_maxTicks_ms
                0x0000000000000000        0x4 CMakeFiles/kiibohd.dir/Lib/time.c.obj
 .rodata.Time_ticksPer_ns_x1000
                0x0000000000000000        0x4 CMakeFiles/kiibohd.dir/Lib/time.c.obj
 .debug_macro   0x0000000000000000      0xa60 CMakeFiles/kiibohd.dir/Lib/time.c.obj
 .debug_macro   0x0000000000000000       0x28 CMakeFiles/kiibohd.dir/Lib/time.c.obj
 .debug_macro   0x0000000000000000       0x22 CMakeFiles/kiibohd.dir/Lib/time.c.obj
 .debug_macro   0x0000000000000000       0x8e CMakeFiles/kiibohd.dir/Lib/time.c.obj
 .debug_macro   0x0000000000000000       0x51 CMakeFiles/kiibohd.dir/Lib/time.c.obj
 .debug_macro   0x0000000000000000       0xef CMakeFiles/kiibohd.dir/Lib/time.c.obj
 .debug_macro   0x0000000000000000       0x6a CMakeFiles/kiibohd.dir/Lib/time.c.obj
 .debug_macro   0x0000000000000000      0x1df CMakeFiles/kiibohd.dir/Lib/time.c.obj
 .debug_macro   0x0000000000000000     0x5add CMakeFiles/kiibohd.dir/Lib/time.c.obj
 .debug_macro   0x0000000000000000       0x10 CMakeFiles/kiibohd.dir/Lib/time.c.obj
 .debug_macro   0x0000000000000000      0x2ea CMakeFiles/kiibohd.dir/Lib/time.c.obj
 .debug_macro   0x0000000000000000       0xbe CMakeFiles/kiibohd.dir/Lib/time.c.obj
 .debug_macro   0x0000000000000000       0x10 CMakeFiles/kiibohd.dir/Lib/time.c.obj
 .debug_macro   0x0000000000000000       0x9a CMakeFiles/kiibohd.dir/Lib/time.c.obj
 .debug_macro   0x0000000000000000       0x10 CMakeFiles/kiibohd.dir/Lib/time.c.obj
 .group         0x0000000000000000        0xc CMakeFiles/kiibohd.dir/Lib/arm_cortex.c.obj
 .group         0x0000000000000000        0xc CMakeFiles/kiibohd.dir/Lib/arm_cortex.c.obj
 .group         0x0000000000000000        0xc CMakeFiles/kiibohd.dir/Lib/arm_cortex.c.obj
 .group         0x0000000000000000        0xc CMakeFiles/kiibohd.dir/Lib/arm_cortex.c.obj
 .group         0x0000000000000000        0xc CMakeFiles/kiibohd.dir/Lib/arm_cortex.c.obj
 .group         0x0000000000000000        0xc CMakeFiles/kiibohd.dir/Lib/arm_cortex.c.obj
 .group         0x0000000000000000        0xc CMakeFiles/kiibohd.dir/Lib/arm_cortex.c.obj
 .group         0x0000000000000000        0xc CMakeFiles/kiibohd.dir/Lib/arm_cortex.c.obj
 .text          0x0000000000000000        0x0 CMakeFiles/kiibohd.dir/Lib/arm_cortex.c.obj
 .data          0x0000000000000000        0x0 CMakeFiles/kiibohd.dir/Lib/arm_cortex.c.obj
 .bss           0x0000000000000000        0x0 CMakeFiles/kiibohd.dir/Lib/arm_cortex.c.obj
 .text.get_current_isr
                0x0000000000000000       0x24 CMakeFiles/kiibohd.dir/Lib/arm_cortex.c.obj
 .text.debug_isr
                0x0000000000000000       0x28 CMakeFiles/kiibohd.dir/Lib/arm_cortex.c.obj
 .text.read_stacked_fault_frame
                0x0000000000000000       0x6c CMakeFiles/kiibohd.dir/Lib/arm_cortex.c.obj
 .text.disable_write_buffering
                0x0000000000000000       0x2c CMakeFiles/kiibohd.dir/Lib/arm_cortex.c.obj
 .debug_info    0x0000000000000000      0x469 CMakeFiles/kiibohd.dir/Lib/arm_cortex.c.obj
 .debug_abbrev  0x0000000000000000      0x135 CMakeFiles/kiibohd.dir/Lib/arm_cortex.c.obj
 .debug_loc     0x0000000000000000       0x13 CMakeFiles/kiibohd.dir/Lib/arm_cortex.c.obj
 .debug_aranges
                0x0000000000000000       0x38 CMakeFiles/kiibohd.dir/Lib/arm_cortex.c.obj
 .debug_ranges  0x0000000000000000       0x28 CMakeFiles/kiibohd.dir/Lib/arm_cortex.c.obj
 .debug_macro   0x0000000000000000       0x6c CMakeFiles/kiibohd.dir/Lib/arm_cortex.c.obj
 .debug_macro   0x0000000000000000      0xa60 CMakeFiles/kiibohd.dir/Lib/arm_cortex.c.obj
 .debug_macro   0x0000000000000000       0x22 CMakeFiles/kiibohd.dir/Lib/arm_cortex.c.obj
 .debug_macro   0x0000000000000000       0x8e CMakeFiles/kiibohd.dir/Lib/arm_cortex.c.obj
 .debug_macro   0x0000000000000000       0x51 CMakeFiles/kiibohd.dir/Lib/arm_cortex.c.obj
 .debug_macro   0x0000000000000000       0xef CMakeFiles/kiibohd.dir/Lib/arm_cortex.c.obj
 .debug_macro   0x0000000000000000       0x6a CMakeFiles/kiibohd.dir/Lib/arm_cortex.c.obj
 .debug_macro   0x0000000000000000      0x1df CMakeFiles/kiibohd.dir/Lib/arm_cortex.c.obj
 .debug_macro   0x0000000000000000       0x46 CMakeFiles/kiibohd.dir/Lib/arm_cortex.c.obj
 .debug_line    0x0000000000000000      0x29e CMakeFiles/kiibohd.dir/Lib/arm_cortex.c.obj
 .debug_str     0x0000000000000000     0x40ac CMakeFiles/kiibohd.dir/Lib/arm_cortex.c.obj
 .comment       0x0000000000000000       0x80 CMakeFiles/kiibohd.dir/Lib/arm_cortex.c.obj
 .debug_frame   0x0000000000000000       0x64 CMakeFiles/kiibohd.dir/Lib/arm_cortex.c.obj
 .ARM.attributes
                0x0000000000000000       0x33 CMakeFiles/kiibohd.dir/Lib/arm_cortex.c.obj
 .group         0x0000000000000000        0xc CMakeFiles/kiibohd.dir/Scan/Devices/ISSILed/i2c.c.obj
 .group         0x0000000000000000        0xc CMakeFiles/kiibohd.dir/Scan/Devices/ISSILed/i2c.c.obj
 .group         0x0000000000000000        0xc CMakeFiles/kiibohd.dir/Scan/Devices/ISSILed/i2c.c.obj
 .group         0x0000000000000000        0xc CMakeFiles/kiibohd.dir/Scan/Devices/ISSILed/i2c.c.obj
 .group         0x0000000000000000        0xc CMakeFiles/kiibohd.dir/Scan/Devices/ISSILed/i2c.c.obj
 .group         0x0000000000000000        0xc CMakeFiles/kiibohd.dir/Scan/Devices/ISSILed/i2c.c.obj
 .group         0x0000000000000000        0xc CMakeFiles/kiibohd.dir/Scan/Devices/ISSILed/i2c.c.obj
 .group         0x0000000000000000        0xc CMakeFiles/kiibohd.dir/Scan/Devices/ISSILed/i2c.c.obj
 .group         0x0000000000000000        0xc CMakeFiles/kiibohd.dir/Scan/Devices/ISSILed/i2c.c.obj
 .group         0x0000000000000000        0xc CMakeFiles/kiibohd.dir/Scan/Devices/ISSILed/i2c.c.obj
 .group         0x0000000000000000        0xc CMakeFiles/kiibohd.dir/Scan/Devices/ISSILed/i2c.c.obj
 .group         0x0000000000000000        0xc CMakeFiles/kiibohd.dir/Scan/Devices/ISSILed/i2c.c.obj
 .group         0x0000000000000000        0xc CMakeFiles/kiibohd.dir/Scan/Devices/ISSILed/i2c.c.obj
 .group         0x0000000000000000        0xc CMakeFiles/kiibohd.dir/Scan/Devices/ISSILed/i2c.c.obj
 .group         0x0000000000000000        0xc CMakeFiles/kiibohd.dir/Scan/Devices/ISSILed/i2c.c.obj
 .group         0x0000000000000000        0xc CMakeFiles/kiibohd.dir/Scan/Devices/ISSILed/i2c.c.obj
 .group         0x0000000000000000        0xc CMakeFiles/kiibohd.dir/Scan/Devices/ISSILed/i2c.c.obj
 .text          0x0000000000000000        0x0 CMakeFiles/kiibohd.dir/Scan/Devices/ISSILed/i2c.c.obj
 .data          0x0000000000000000        0x0 CMakeFiles/kiibohd.dir/Scan/Devices/ISSILed/i2c.c.obj
 .bss           0x0000000000000000        0x0 CMakeFiles/kiibohd.dir/Scan/Devices/ISSILed/i2c.c.obj
 .text.i2c_any_busy
                0x0000000000000000       0x2c CMakeFiles/kiibohd.dir/Scan/Devices/ISSILed/i2c.c.obj
 .debug_macro   0x0000000000000000      0xa60 CMakeFiles/kiibohd.dir/Scan/Devices/ISSILed/i2c.c.obj
 .debug_macro   0x0000000000000000       0x28 CMakeFiles/kiibohd.dir/Scan/Devices/ISSILed/i2c.c.obj
 .debug_macro   0x0000000000000000       0x1c CMakeFiles/kiibohd.dir/Scan/Devices/ISSILed/i2c.c.obj
 .debug_macro   0x0000000000000000       0x22 CMakeFiles/kiibohd.dir/Scan/Devices/ISSILed/i2c.c.obj
 .debug_macro   0x0000000000000000       0x8e CMakeFiles/kiibohd.dir/Scan/Devices/ISSILed/i2c.c.obj
 .debug_macro   0x0000000000000000       0x51 CMakeFiles/kiibohd.dir/Scan/Devices/ISSILed/i2c.c.obj
 .debug_macro   0x0000000000000000       0xef CMakeFiles/kiibohd.dir/Scan/Devices/ISSILed/i2c.c.obj
 .debug_macro   0x0000000000000000       0x6a CMakeFiles/kiibohd.dir/Scan/Devices/ISSILed/i2c.c.obj
 .debug_macro   0x0000000000000000      0x1df CMakeFiles/kiibohd.dir/Scan/Devices/ISSILed/i2c.c.obj
 .debug_macro   0x0000000000000000     0x5add CMakeFiles/kiibohd.dir/Scan/Devices/ISSILed/i2c.c.obj
 .debug_macro   0x0000000000000000       0x10 CMakeFiles/kiibohd.dir/Scan/Devices/ISSILed/i2c.c.obj
 .debug_macro   0x0000000000000000       0x10 CMakeFiles/kiibohd.dir/Scan/Devices/ISSILed/i2c.c.obj
 .debug_macro   0x0000000000000000       0x10 CMakeFiles/kiibohd.dir/Scan/Devices/ISSILed/i2c.c.obj
 .debug_macro   0x0000000000000000       0x9a CMakeFiles/kiibohd.dir/Scan/Devices/ISSILed/i2c.c.obj
 .group         0x0000000000000000        0xc CMakeFiles/kiibohd.dir/Scan/Devices/ISSILed/led_scan.c.obj
 .group         0x0000000000000000        0xc CMakeFiles/kiibohd.dir/Scan/Devices/ISSILed/led_scan.c.obj
 .group         0x0000000000000000        0xc CMakeFiles/kiibohd.dir/Scan/Devices/ISSILed/led_scan.c.obj
 .group         0x0000000000000000        0xc CMakeFiles/kiibohd.dir/Scan/Devices/ISSILed/led_scan.c.obj
 .group         0x0000000000000000        0xc CMakeFiles/kiibohd.dir/Scan/Devices/ISSILed/led_scan.c.obj
 .group         0x0000000000000000        0xc CMakeFiles/kiibohd.dir/Scan/Devices/ISSILed/led_scan.c.obj
 .group         0x0000000000000000        0xc CMakeFiles/kiibohd.dir/Scan/Devices/ISSILed/led_scan.c.obj
 .group         0x0000000000000000        0xc CMakeFiles/kiibohd.dir/Scan/Devices/ISSILed/led_scan.c.obj
 .group         0x0000000000000000        0xc CMakeFiles/kiibohd.dir/Scan/Devices/ISSILed/led_scan.c.obj
 .group         0x0000000000000000        0xc CMakeFiles/kiibohd.dir/Scan/Devices/ISSILed/led_scan.c.obj
 .group         0x0000000000000000        0xc CMakeFiles/kiibohd.dir/Scan/Devices/ISSILed/led_scan.c.obj
 .group         0x0000000000000000        0xc CMakeFiles/kiibohd.dir/Scan/Devices/ISSILed/led_scan.c.obj
 .group         0x0000000000000000        0xc CMakeFiles/kiibohd.dir/Scan/Devices/ISSILed/led_scan.c.obj
 .group         0x0000000000000000        0xc CMakeFiles/kiibohd.dir/Scan/Devices/ISSILed/led_scan.c.obj
 .group         0x0000000000000000        0xc CMakeFiles/kiibohd.dir/Scan/Devices/ISSILed/led_scan.c.obj
 .group         0x0000000000000000        0xc CMakeFiles/kiibohd.dir/Scan/Devices/ISSILed/led_scan.c.obj
 .group         0x0000000000000000        0xc CMakeFiles/kiibohd.dir/Scan/Devices/ISSILed/led_scan.c.obj
 .group         0x0000000000000000        0xc CMakeFiles/kiibohd.dir/Scan/Devices/ISSILed/led_scan.c.obj
 .group         0x0000000000000000        0xc CMakeFiles/kiibohd.dir/Scan/Devices/ISSILed/led_scan.c.obj
 .group         0x0000000000000000        0xc CMakeFiles/kiibohd.dir/Scan/Devices/ISSILed/led_scan.c.obj
 .group         0x0000000000000000        0xc CMakeFiles/kiibohd.dir/Scan/Devices/ISSILed/led_scan.c.obj
 .group         0x0000000000000000        0xc CMakeFiles/kiibohd.dir/Scan/Devices/ISSILed/led_scan.c.obj
 .text          0x0000000000000000        0x0 CMakeFiles/kiibohd.dir/Scan/Devices/ISSILed/led_scan.c.obj
 .data          0x0000000000000000        0x0 CMakeFiles/kiibohd.dir/Scan/Devices/ISSILed/led_scan.c.obj
 .bss           0x0000000000000000        0x0 CMakeFiles/kiibohd.dir/Scan/Devices/ISSILed/led_scan.c.obj
 .text.LED_syncReg
                0x0000000000000000       0x68 CMakeFiles/kiibohd.dir/Scan/Devices/ISSILed/led_scan.c.obj
 .text.LED_readReg
                0x0000000000000000       0x94 CMakeFiles/kiibohd.dir/Scan/Devices/ISSILed/led_scan.c.obj
 .text.LED_shortOpenDetect
                0x0000000000000000       0x20 CMakeFiles/kiibohd.dir/Scan/Devices/ISSILed/led_scan.c.obj
 .text.LED_setBrightness
                0x0000000000000000       0x28 CMakeFiles/kiibohd.dir/Scan/Devices/ISSILed/led_scan.c.obj
 .rodata.LED_ChannelMapping
                0x0000000000000000        0x2 CMakeFiles/kiibohd.dir/Scan/Devices/ISSILed/led_scan.c.obj
 .debug_macro   0x0000000000000000      0xa60 CMakeFiles/kiibohd.dir/Scan/Devices/ISSILed/led_scan.c.obj
 .debug_macro   0x0000000000000000       0x28 CMakeFiles/kiibohd.dir/Scan/Devices/ISSILed/led_scan.c.obj
 .debug_macro   0x0000000000000000       0x1c CMakeFiles/kiibohd.dir/Scan/Devices/ISSILed/led_scan.c.obj
 .debug_macro   0x0000000000000000       0x22 CMakeFiles/kiibohd.dir/Scan/Devices/ISSILed/led_scan.c.obj
 .debug_macro   0x0000000000000000       0x8e CMakeFiles/kiibohd.dir/Scan/Devices/ISSILed/led_scan.c.obj
 .debug_macro   0x0000000000000000       0x51 CMakeFiles/kiibohd.dir/Scan/Devices/ISSILed/led_scan.c.obj
 .debug_macro   0x0000000000000000       0xef CMakeFiles/kiibohd.dir/Scan/Devices/ISSILed/led_scan.c.obj
 .debug_macro   0x0000000000000000       0x6a CMakeFiles/kiibohd.dir/Scan/Devices/ISSILed/led_scan.c.obj
 .debug_macro   0x0000000000000000      0x1df CMakeFiles/kiibohd.dir/Scan/Devices/ISSILed/led_scan.c.obj
 .debug_macro   0x0000000000000000     0x5add CMakeFiles/kiibohd.dir/Scan/Devices/ISSILed/led_scan.c.obj
 .debug_macro   0x0000000000000000       0x10 CMakeFiles/kiibohd.dir/Scan/Devices/ISSILed/led_scan.c.obj
 .debug_macro   0x0000000000000000       0x10 CMakeFiles/kiibohd.dir/Scan/Devices/ISSILed/led_scan.c.obj
 .debug_macro   0x0000000000000000      0x2f1 CMakeFiles/kiibohd.dir/Scan/Devices/ISSILed/led_scan.c.obj
 .debug_macro   0x0000000000000000       0xbe CMakeFiles/kiibohd.dir/Scan/Devices/ISSILed/led_scan.c.obj
 .debug_macro   0x0000000000000000       0x10 CMakeFiles/kiibohd.dir/Scan/Devices/ISSILed/led_scan.c.obj
 .debug_macro   0x0000000000000000       0x3a CMakeFiles/kiibohd.dir/Scan/Devices/ISSILed/led_scan.c.obj
 .debug_macro   0x0000000000000000       0x9a CMakeFiles/kiibohd.dir/Scan/Devices/ISSILed/led_scan.c.obj
 .debug_macro   0x0000000000000000       0x2e CMakeFiles/kiibohd.dir/Scan/Devices/ISSILed/led_scan.c.obj
 .group         0x0000000000000000        0xc CMakeFiles/kiibohd.dir/Scan/Devices/MatrixARMPeriodic/matrix_scan.c.obj
 .group         0x0000000000000000        0xc CMakeFiles/kiibohd.dir/Scan/Devices/MatrixARMPeriodic/matrix_scan.c.obj
 .group         0x0000000000000000        0xc CMakeFiles/kiibohd.dir/Scan/Devices/MatrixARMPeriodic/matrix_scan.c.obj
 .group         0x0000000000000000        0xc CMakeFiles/kiibohd.dir/Scan/Devices/MatrixARMPeriodic/matrix_scan.c.obj
 .group         0x0000000000000000        0xc CMakeFiles/kiibohd.dir/Scan/Devices/MatrixARMPeriodic/matrix_scan.c.obj
 .group         0x0000000000000000        0xc CMakeFiles/kiibohd.dir/Scan/Devices/MatrixARMPeriodic/matrix_scan.c.obj
 .group         0x0000000000000000        0xc CMakeFiles/kiibohd.dir/Scan/Devices/MatrixARMPeriodic/matrix_scan.c.obj
 .group         0x0000000000000000        0xc CMakeFiles/kiibohd.dir/Scan/Devices/MatrixARMPeriodic/matrix_scan.c.obj
 .group         0x0000000000000000        0xc CMakeFiles/kiibohd.dir/Scan/Devices/MatrixARMPeriodic/matrix_scan.c.obj
 .group         0x0000000000000000        0xc CMakeFiles/kiibohd.dir/Scan/Devices/MatrixARMPeriodic/matrix_scan.c.obj
 .group         0x0000000000000000        0xc CMakeFiles/kiibohd.dir/Scan/Devices/MatrixARMPeriodic/matrix_scan.c.obj
 .group         0x0000000000000000        0xc CMakeFiles/kiibohd.dir/Scan/Devices/MatrixARMPeriodic/matrix_scan.c.obj
 .group         0x0000000000000000        0xc CMakeFiles/kiibohd.dir/Scan/Devices/MatrixARMPeriodic/matrix_scan.c.obj
 .group         0x0000000000000000        0xc CMakeFiles/kiibohd.dir/Scan/Devices/MatrixARMPeriodic/matrix_scan.c.obj
 .group         0x0000000000000000        0xc CMakeFiles/kiibohd.dir/Scan/Devices/MatrixARMPeriodic/matrix_scan.c.obj
 .group         0x0000000000000000        0xc CMakeFiles/kiibohd.dir/Scan/Devices/MatrixARMPeriodic/matrix_scan.c.obj
 .group         0x0000000000000000        0xc CMakeFiles/kiibohd.dir/Scan/Devices/MatrixARMPeriodic/matrix_scan.c.obj
 .group         0x0000000000000000        0xc CMakeFiles/kiibohd.dir/Scan/Devices/MatrixARMPeriodic/matrix_scan.c.obj
 .group         0x0000000000000000        0xc CMakeFiles/kiibohd.dir/Scan/Devices/MatrixARMPeriodic/matrix_scan.c.obj
 .group         0x0000000000000000        0xc CMakeFiles/kiibohd.dir/Scan/Devices/MatrixARMPeriodic/matrix_scan.c.obj
 .text          0x0000000000000000        0x0 CMakeFiles/kiibohd.dir/Scan/Devices/MatrixARMPeriodic/matrix_scan.c.obj
 .data          0x0000000000000000        0x0 CMakeFiles/kiibohd.dir/Scan/Devices/MatrixARMPeriodic/matrix_scan.c.obj
 .bss           0x0000000000000000        0x0 CMakeFiles/kiibohd.dir/Scan/Devices/MatrixARMPeriodic/matrix_scan.c.obj
 .text.Matrix_totalColumns
                0x0000000000000000       0x24 CMakeFiles/kiibohd.dir/Scan/Devices/MatrixARMPeriodic/matrix_scan.c.obj
 .rodata.Matrix_type
                0x0000000000000000        0x1 CMakeFiles/kiibohd.dir/Scan/Devices/MatrixARMPeriodic/matrix_scan.c.obj
 .debug_macro   0x0000000000000000      0xa60 CMakeFiles/kiibohd.dir/Scan/Devices/MatrixARMPeriodic/matrix_scan.c.obj
 .debug_macro   0x0000000000000000       0x28 CMakeFiles/kiibohd.dir/Scan/Devices/MatrixARMPeriodic/matrix_scan.c.obj
 .debug_macro   0x0000000000000000       0x1c CMakeFiles/kiibohd.dir/Scan/Devices/MatrixARMPeriodic/matrix_scan.c.obj
 .debug_macro   0x0000000000000000       0x22 CMakeFiles/kiibohd.dir/Scan/Devices/MatrixARMPeriodic/matrix_scan.c.obj
 .debug_macro   0x0000000000000000       0x8e CMakeFiles/kiibohd.dir/Scan/Devices/MatrixARMPeriodic/matrix_scan.c.obj
 .debug_macro   0x0000000000000000       0x51 CMakeFiles/kiibohd.dir/Scan/Devices/MatrixARMPeriodic/matrix_scan.c.obj
 .debug_macro   0x0000000000000000       0xef CMakeFiles/kiibohd.dir/Scan/Devices/MatrixARMPeriodic/matrix_scan.c.obj
 .debug_macro   0x0000000000000000       0x6a CMakeFiles/kiibohd.dir/Scan/Devices/MatrixARMPeriodic/matrix_scan.c.obj
 .debug_macro   0x0000000000000000      0x1df CMakeFiles/kiibohd.dir/Scan/Devices/MatrixARMPeriodic/matrix_scan.c.obj
 .debug_macro   0x0000000000000000     0x5add CMakeFiles/kiibohd.dir/Scan/Devices/MatrixARMPeriodic/matrix_scan.c.obj
 .debug_macro   0x0000000000000000       0x10 CMakeFiles/kiibohd.dir/Scan/Devices/MatrixARMPeriodic/matrix_scan.c.obj
 .debug_macro   0x0000000000000000       0x10 CMakeFiles/kiibohd.dir/Scan/Devices/MatrixARMPeriodic/matrix_scan.c.obj
 .debug_macro   0x0000000000000000      0x2f1 CMakeFiles/kiibohd.dir/Scan/Devices/MatrixARMPeriodic/matrix_scan.c.obj
 .debug_macro   0x0000000000000000       0xbe CMakeFiles/kiibohd.dir/Scan/Devices/MatrixARMPeriodic/matrix_scan.c.obj
 .debug_macro   0x0000000000000000       0x10 CMakeFiles/kiibohd.dir/Scan/Devices/MatrixARMPeriodic/matrix_scan.c.obj
 .debug_macro   0x0000000000000000       0x3a CMakeFiles/kiibohd.dir/Scan/Devices/MatrixARMPeriodic/matrix_scan.c.obj
 .debug_macro   0x0000000000000000       0x9a CMakeFiles/kiibohd.dir/Scan/Devices/MatrixARMPeriodic/matrix_scan.c.obj
 .debug_macro   0x0000000000000000     0x133d CMakeFiles/kiibohd.dir/Scan/Devices/MatrixARMPeriodic/matrix_scan.c.obj
 .debug_macro   0x0000000000000000       0x73 CMakeFiles/kiibohd.dir/Scan/Devices/MatrixARMPeriodic/matrix_scan.c.obj
 .group         0x0000000000000000        0xc CMakeFiles/kiibohd.dir/Scan/Devices/STLcd/lcd_scan.c.obj
 .group         0x0000000000000000        0xc CMakeFiles/kiibohd.dir/Scan/Devices/STLcd/lcd_scan.c.obj
 .group         0x0000000000000000        0xc CMakeFiles/kiibohd.dir/Scan/Devices/STLcd/lcd_scan.c.obj
 .group         0x0000000000000000        0xc CMakeFiles/kiibohd.dir/Scan/Devices/STLcd/lcd_scan.c.obj
 .group         0x0000000000000000        0xc CMakeFiles/kiibohd.dir/Scan/Devices/STLcd/lcd_scan.c.obj
 .group         0x0000000000000000        0xc CMakeFiles/kiibohd.dir/Scan/Devices/STLcd/lcd_scan.c.obj
 .group         0x0000000000000000        0xc CMakeFiles/kiibohd.dir/Scan/Devices/STLcd/lcd_scan.c.obj
 .group         0x0000000000000000        0xc CMakeFiles/kiibohd.dir/Scan/Devices/STLcd/lcd_scan.c.obj
 .group         0x0000000000000000        0xc CMakeFiles/kiibohd.dir/Scan/Devices/STLcd/lcd_scan.c.obj
 .group         0x0000000000000000        0xc CMakeFiles/kiibohd.dir/Scan/Devices/STLcd/lcd_scan.c.obj
 .group         0x0000000000000000        0xc CMakeFiles/kiibohd.dir/Scan/Devices/STLcd/lcd_scan.c.obj
 .group         0x0000000000000000        0xc CMakeFiles/kiibohd.dir/Scan/Devices/STLcd/lcd_scan.c.obj
 .group         0x0000000000000000        0xc CMakeFiles/kiibohd.dir/Scan/Devices/STLcd/lcd_scan.c.obj
 .group         0x0000000000000000        0xc CMakeFiles/kiibohd.dir/Scan/Devices/STLcd/lcd_scan.c.obj
 .group         0x0000000000000000        0xc CMakeFiles/kiibohd.dir/Scan/Devices/STLcd/lcd_scan.c.obj
 .group         0x0000000000000000        0xc CMakeFiles/kiibohd.dir/Scan/Devices/STLcd/lcd_scan.c.obj
 .group         0x0000000000000000        0xc CMakeFiles/kiibohd.dir/Scan/Devices/STLcd/lcd_scan.c.obj
 .group         0x0000000000000000        0xc CMakeFiles/kiibohd.dir/Scan/Devices/STLcd/lcd_scan.c.obj
 .group         0x0000000000000000        0xc CMakeFiles/kiibohd.dir/Scan/Devices/STLcd/lcd_scan.c.obj
 .group         0x0000000000000000        0xc CMakeFiles/kiibohd.dir/Scan/Devices/STLcd/lcd_scan.c.obj
 .text          0x0000000000000000        0x0 CMakeFiles/kiibohd.dir/Scan/Devices/STLcd/lcd_scan.c.obj
 .data          0x0000000000000000        0x0 CMakeFiles/kiibohd.dir/Scan/Devices/STLcd/lcd_scan.c.obj
 .bss           0x0000000000000000        0x0 CMakeFiles/kiibohd.dir/Scan/Devices/STLcd/lcd_scan.c.obj
 .bss.LCD_layerStackExact_size
                0x0000000000000000        0x1 CMakeFiles/kiibohd.dir/Scan/Devices/STLcd/lcd_scan.c.obj
 .bss.cliFullToggleState
                0x0000000000000000        0x1 CMakeFiles/kiibohd.dir/Scan/Devices/STLcd/lcd_scan.c.obj
 .bss.cliNormalReverseToggleState
                0x0000000000000000        0x1 CMakeFiles/kiibohd.dir/Scan/Devices/STLcd/lcd_scan.c.obj
 .debug_macro   0x0000000000000000      0xa60 CMakeFiles/kiibohd.dir/Scan/Devices/STLcd/lcd_scan.c.obj
 .debug_macro   0x0000000000000000       0x28 CMakeFiles/kiibohd.dir/Scan/Devices/STLcd/lcd_scan.c.obj
 .debug_macro   0x0000000000000000       0x1c CMakeFiles/kiibohd.dir/Scan/Devices/STLcd/lcd_scan.c.obj
 .debug_macro   0x0000000000000000       0x22 CMakeFiles/kiibohd.dir/Scan/Devices/STLcd/lcd_scan.c.obj
 .debug_macro   0x0000000000000000       0x8e CMakeFiles/kiibohd.dir/Scan/Devices/STLcd/lcd_scan.c.obj
 .debug_macro   0x0000000000000000       0x51 CMakeFiles/kiibohd.dir/Scan/Devices/STLcd/lcd_scan.c.obj
 .debug_macro   0x0000000000000000       0xef CMakeFiles/kiibohd.dir/Scan/Devices/STLcd/lcd_scan.c.obj
 .debug_macro   0x0000000000000000       0x6a CMakeFiles/kiibohd.dir/Scan/Devices/STLcd/lcd_scan.c.obj
 .debug_macro   0x0000000000000000      0x1df CMakeFiles/kiibohd.dir/Scan/Devices/STLcd/lcd_scan.c.obj
 .debug_macro   0x0000000000000000     0x5add CMakeFiles/kiibohd.dir/Scan/Devices/STLcd/lcd_scan.c.obj
 .debug_macro   0x0000000000000000       0x10 CMakeFiles/kiibohd.dir/Scan/Devices/STLcd/lcd_scan.c.obj
 .debug_macro   0x0000000000000000       0x10 CMakeFiles/kiibohd.dir/Scan/Devices/STLcd/lcd_scan.c.obj
 .debug_macro   0x0000000000000000      0x2f1 CMakeFiles/kiibohd.dir/Scan/Devices/STLcd/lcd_scan.c.obj
 .debug_macro   0x0000000000000000       0xbe CMakeFiles/kiibohd.dir/Scan/Devices/STLcd/lcd_scan.c.obj
 .debug_macro   0x0000000000000000       0x10 CMakeFiles/kiibohd.dir/Scan/Devices/STLcd/lcd_scan.c.obj
 .debug_macro   0x0000000000000000       0x3a CMakeFiles/kiibohd.dir/Scan/Devices/STLcd/lcd_scan.c.obj
 .debug_macro   0x0000000000000000       0x9a CMakeFiles/kiibohd.dir/Scan/Devices/STLcd/lcd_scan.c.obj
 .debug_macro   0x0000000000000000     0x133d CMakeFiles/kiibohd.dir/Scan/Devices/STLcd/lcd_scan.c.obj
 .debug_macro   0x0000000000000000       0x73 CMakeFiles/kiibohd.dir/Scan/Devices/STLcd/lcd_scan.c.obj
 .debug_macro   0x0000000000000000       0x28 CMakeFiles/kiibohd.dir/Scan/Devices/STLcd/lcd_scan.c.obj
 COMMON         0x0000000000000000        0x8 CMakeFiles/kiibohd.dir/Scan/Devices/STLcd/lcd_scan.c.obj
 .group         0x0000000000000000        0xc CMakeFiles/kiibohd.dir/Scan/Devices/UARTConnect/connect_scan.c.obj
 .group         0x0000000000000000        0xc CMakeFiles/kiibohd.dir/Scan/Devices/UARTConnect/connect_scan.c.obj
 .group         0x0000000000000000        0xc CMakeFiles/kiibohd.dir/Scan/Devices/UARTConnect/connect_scan.c.obj
 .group         0x0000000000000000        0xc CMakeFiles/kiibohd.dir/Scan/Devices/UARTConnect/connect_scan.c.obj
 .group         0x0000000000000000        0xc CMakeFiles/kiibohd.dir/Scan/Devices/UARTConnect/connect_scan.c.obj
 .group         0x0000000000000000        0xc CMakeFiles/kiibohd.dir/Scan/Devices/UARTConnect/connect_scan.c.obj
 .group         0x0000000000000000        0xc CMakeFiles/kiibohd.dir/Scan/Devices/UARTConnect/connect_scan.c.obj
 .group         0x0000000000000000        0xc CMakeFiles/kiibohd.dir/Scan/Devices/UARTConnect/connect_scan.c.obj
 .group         0x0000000000000000        0xc CMakeFiles/kiibohd.dir/Scan/Devices/UARTConnect/connect_scan.c.obj
 .group         0x0000000000000000        0xc CMakeFiles/kiibohd.dir/Scan/Devices/UARTConnect/connect_scan.c.obj
 .group         0x0000000000000000        0xc CMakeFiles/kiibohd.dir/Scan/Devices/UARTConnect/connect_scan.c.obj
 .group         0x0000000000000000        0xc CMakeFiles/kiibohd.dir/Scan/Devices/UARTConnect/connect_scan.c.obj
 .group         0x0000000000000000        0xc CMakeFiles/kiibohd.dir/Scan/Devices/UARTConnect/connect_scan.c.obj
 .group         0x0000000000000000        0xc CMakeFiles/kiibohd.dir/Scan/Devices/UARTConnect/connect_scan.c.obj
 .group         0x0000000000000000        0xc CMakeFiles/kiibohd.dir/Scan/Devices/UARTConnect/connect_scan.c.obj
 .group         0x0000000000000000        0xc CMakeFiles/kiibohd.dir/Scan/Devices/UARTConnect/connect_scan.c.obj
 .group         0x0000000000000000        0xc CMakeFiles/kiibohd.dir/Scan/Devices/UARTConnect/connect_scan.c.obj
 .group         0x0000000000000000        0xc CMakeFiles/kiibohd.dir/Scan/Devices/UARTConnect/connect_scan.c.obj
 .group         0x0000000000000000        0xc CMakeFiles/kiibohd.dir/Scan/Devices/UARTConnect/connect_scan.c.obj
 .group         0x0000000000000000        0xc CMakeFiles/kiibohd.dir/Scan/Devices/UARTConnect/connect_scan.c.obj
 .text          0x0000000000000000        0x0 CMakeFiles/kiibohd.dir/Scan/Devices/UARTConnect/connect_scan.c.obj
 .data          0x0000000000000000        0x0 CMakeFiles/kiibohd.dir/Scan/Devices/UARTConnect/connect_scan.c.obj
 .bss           0x0000000000000000        0x0 CMakeFiles/kiibohd.dir/Scan/Devices/UARTConnect/connect_scan.c.obj
 .text.Connect_send_Animation
                0x0000000000000000       0x6c CMakeFiles/kiibohd.dir/Scan/Devices/UARTConnect/connect_scan.c.obj
 .debug_macro   0x0000000000000000      0xa60 CMakeFiles/kiibohd.dir/Scan/Devices/UARTConnect/connect_scan.c.obj
 .debug_macro   0x0000000000000000       0x28 CMakeFiles/kiibohd.dir/Scan/Devices/UARTConnect/connect_scan.c.obj
 .debug_macro   0x0000000000000000       0x1c CMakeFiles/kiibohd.dir/Scan/Devices/UARTConnect/connect_scan.c.obj
 .debug_macro   0x0000000000000000       0x22 CMakeFiles/kiibohd.dir/Scan/Devices/UARTConnect/connect_scan.c.obj
 .debug_macro   0x0000000000000000       0x8e CMakeFiles/kiibohd.dir/Scan/Devices/UARTConnect/connect_scan.c.obj
 .debug_macro   0x0000000000000000       0x51 CMakeFiles/kiibohd.dir/Scan/Devices/UARTConnect/connect_scan.c.obj
 .debug_macro   0x0000000000000000       0xef CMakeFiles/kiibohd.dir/Scan/Devices/UARTConnect/connect_scan.c.obj
 .debug_macro   0x0000000000000000       0x6a CMakeFiles/kiibohd.dir/Scan/Devices/UARTConnect/connect_scan.c.obj
 .debug_macro   0x0000000000000000      0x1df CMakeFiles/kiibohd.dir/Scan/Devices/UARTConnect/connect_scan.c.obj
 .debug_macro   0x0000000000000000     0x5add CMakeFiles/kiibohd.dir/Scan/Devices/UARTConnect/connect_scan.c.obj
 .debug_macro   0x0000000000000000       0x10 CMakeFiles/kiibohd.dir/Scan/Devices/UARTConnect/connect_scan.c.obj
 .debug_macro   0x0000000000000000       0x10 CMakeFiles/kiibohd.dir/Scan/Devices/UARTConnect/connect_scan.c.obj
 .debug_macro   0x0000000000000000      0x2f1 CMakeFiles/kiibohd.dir/Scan/Devices/UARTConnect/connect_scan.c.obj
 .debug_macro   0x0000000000000000       0xbe CMakeFiles/kiibohd.dir/Scan/Devices/UARTConnect/connect_scan.c.obj
 .debug_macro   0x0000000000000000       0x10 CMakeFiles/kiibohd.dir/Scan/Devices/UARTConnect/connect_scan.c.obj
 .debug_macro   0x0000000000000000       0x3a CMakeFiles/kiibohd.dir/Scan/Devices/UARTConnect/connect_scan.c.obj
 .debug_macro   0x0000000000000000       0x9a CMakeFiles/kiibohd.dir/Scan/Devices/UARTConnect/connect_scan.c.obj
 .debug_macro   0x0000000000000000     0x133d CMakeFiles/kiibohd.dir/Scan/Devices/UARTConnect/connect_scan.c.obj
 .debug_macro   0x0000000000000000       0x73 CMakeFiles/kiibohd.dir/Scan/Devices/UARTConnect/connect_scan.c.obj
 .debug_macro   0x0000000000000000       0x28 CMakeFiles/kiibohd.dir/Scan/Devices/UARTConnect/connect_scan.c.obj
 .group         0x0000000000000000        0xc CMakeFiles/kiibohd.dir/Scan/Infinity_Ergodox/scan_loop.c.obj
 .group         0x0000000000000000        0xc CMakeFiles/kiibohd.dir/Scan/Infinity_Ergodox/scan_loop.c.obj
 .group         0x0000000000000000        0xc CMakeFiles/kiibohd.dir/Scan/Infinity_Ergodox/scan_loop.c.obj
 .group         0x0000000000000000        0xc CMakeFiles/kiibohd.dir/Scan/Infinity_Ergodox/scan_loop.c.obj
 .group         0x0000000000000000        0xc CMakeFiles/kiibohd.dir/Scan/Infinity_Ergodox/scan_loop.c.obj
 .group         0x0000000000000000        0xc CMakeFiles/kiibohd.dir/Scan/Infinity_Ergodox/scan_loop.c.obj
 .group         0x0000000000000000        0xc CMakeFiles/kiibohd.dir/Scan/Infinity_Ergodox/scan_loop.c.obj
 .group         0x0000000000000000        0xc CMakeFiles/kiibohd.dir/Scan/Infinity_Ergodox/scan_loop.c.obj
 .group         0x0000000000000000        0xc CMakeFiles/kiibohd.dir/Scan/Infinity_Ergodox/scan_loop.c.obj
 .group         0x0000000000000000        0xc CMakeFiles/kiibohd.dir/Scan/Infinity_Ergodox/scan_loop.c.obj
 .group         0x0000000000000000        0xc CMakeFiles/kiibohd.dir/Scan/Infinity_Ergodox/scan_loop.c.obj
 .group         0x0000000000000000        0xc CMakeFiles/kiibohd.dir/Scan/Infinity_Ergodox/scan_loop.c.obj
 .group         0x0000000000000000        0xc CMakeFiles/kiibohd.dir/Scan/Infinity_Ergodox/scan_loop.c.obj
 .group         0x0000000000000000        0xc CMakeFiles/kiibohd.dir/Scan/Infinity_Ergodox/scan_loop.c.obj
 .group         0x0000000000000000        0xc CMakeFiles/kiibohd.dir/Scan/Infinity_Ergodox/scan_loop.c.obj
 .group         0x0000000000000000        0xc CMakeFiles/kiibohd.dir/Scan/Infinity_Ergodox/scan_loop.c.obj
 .group         0x0000000000000000        0xc CMakeFiles/kiibohd.dir/Scan/Infinity_Ergodox/scan_loop.c.obj
 .group         0x0000000000000000        0xc CMakeFiles/kiibohd.dir/Scan/Infinity_Ergodox/scan_loop.c.obj
 .group         0x0000000000000000        0xc CMakeFiles/kiibohd.dir/Scan/Infinity_Ergodox/scan_loop.c.obj
 .group         0x0000000000000000        0xc CMakeFiles/kiibohd.dir/Scan/Infinity_Ergodox/scan_loop.c.obj
 .group         0x0000000000000000        0xc CMakeFiles/kiibohd.dir/Scan/Infinity_Ergodox/scan_loop.c.obj
 .group         0x0000000000000000        0xc CMakeFiles/kiibohd.dir/Scan/Infinity_Ergodox/scan_loop.c.obj
 .text          0x0000000000000000        0x0 CMakeFiles/kiibohd.dir/Scan/Infinity_Ergodox/scan_loop.c.obj
 .data          0x0000000000000000        0x0 CMakeFiles/kiibohd.dir/Scan/Infinity_Ergodox/scan_loop.c.obj
 .bss           0x0000000000000000        0x0 CMakeFiles/kiibohd.dir/Scan/Infinity_Ergodox/scan_loop.c.obj
 .debug_macro   0x0000000000000000      0xa60 CMakeFiles/kiibohd.dir/Scan/Infinity_Ergodox/scan_loop.c.obj
 .debug_macro   0x0000000000000000       0x28 CMakeFiles/kiibohd.dir/Scan/Infinity_Ergodox/scan_loop.c.obj
 .debug_macro   0x0000000000000000       0x1c CMakeFiles/kiibohd.dir/Scan/Infinity_Ergodox/scan_loop.c.obj
 .debug_macro   0x0000000000000000       0x22 CMakeFiles/kiibohd.dir/Scan/Infinity_Ergodox/scan_loop.c.obj
 .debug_macro   0x0000000000000000       0x8e CMakeFiles/kiibohd.dir/Scan/Infinity_Ergodox/scan_loop.c.obj
 .debug_macro   0x0000000000000000       0x51 CMakeFiles/kiibohd.dir/Scan/Infinity_Ergodox/scan_loop.c.obj
 .debug_macro   0x0000000000000000       0xef CMakeFiles/kiibohd.dir/Scan/Infinity_Ergodox/scan_loop.c.obj
 .debug_macro   0x0000000000000000       0x6a CMakeFiles/kiibohd.dir/Scan/Infinity_Ergodox/scan_loop.c.obj
 .debug_macro   0x0000000000000000      0x1df CMakeFiles/kiibohd.dir/Scan/Infinity_Ergodox/scan_loop.c.obj
 .debug_macro   0x0000000000000000     0x5add CMakeFiles/kiibohd.dir/Scan/Infinity_Ergodox/scan_loop.c.obj
 .debug_macro   0x0000000000000000       0x10 CMakeFiles/kiibohd.dir/Scan/Infinity_Ergodox/scan_loop.c.obj
 .debug_macro   0x0000000000000000       0x10 CMakeFiles/kiibohd.dir/Scan/Infinity_Ergodox/scan_loop.c.obj
 .debug_macro   0x0000000000000000      0x2ea CMakeFiles/kiibohd.dir/Scan/Infinity_Ergodox/scan_loop.c.obj
 .debug_macro   0x0000000000000000       0xbe CMakeFiles/kiibohd.dir/Scan/Infinity_Ergodox/scan_loop.c.obj
 .debug_macro   0x0000000000000000       0x10 CMakeFiles/kiibohd.dir/Scan/Infinity_Ergodox/scan_loop.c.obj
 .debug_macro   0x0000000000000000       0x3a CMakeFiles/kiibohd.dir/Scan/Infinity_Ergodox/scan_loop.c.obj
 .debug_macro   0x0000000000000000       0x9a CMakeFiles/kiibohd.dir/Scan/Infinity_Ergodox/scan_loop.c.obj
 .debug_macro   0x0000000000000000       0x73 CMakeFiles/kiibohd.dir/Scan/Infinity_Ergodox/scan_loop.c.obj
 .debug_macro   0x0000000000000000       0x28 CMakeFiles/kiibohd.dir/Scan/Infinity_Ergodox/scan_loop.c.obj
 .debug_macro   0x0000000000000000       0x10 CMakeFiles/kiibohd.dir/Scan/Infinity_Ergodox/scan_loop.c.obj
 .debug_macro   0x0000000000000000       0x35 CMakeFiles/kiibohd.dir/Scan/Infinity_Ergodox/scan_loop.c.obj
 .group         0x0000000000000000        0xc CMakeFiles/kiibohd.dir/Macro/PartialMap/kll.c.obj
 .group         0x0000000000000000        0xc CMakeFiles/kiibohd.dir/Macro/PartialMap/kll.c.obj
 .group         0x0000000000000000        0xc CMakeFiles/kiibohd.dir/Macro/PartialMap/kll.c.obj
 .group         0x0000000000000000        0xc CMakeFiles/kiibohd.dir/Macro/PartialMap/kll.c.obj
 .group         0x0000000000000000        0xc CMakeFiles/kiibohd.dir/Macro/PartialMap/kll.c.obj
 .group         0x0000000000000000        0xc CMakeFiles/kiibohd.dir/Macro/PartialMap/kll.c.obj
 .group         0x0000000000000000        0xc CMakeFiles/kiibohd.dir/Macro/PartialMap/kll.c.obj
 .group         0x0000000000000000        0xc CMakeFiles/kiibohd.dir/Macro/PartialMap/kll.c.obj
 .group         0x0000000000000000        0xc CMakeFiles/kiibohd.dir/Macro/PartialMap/kll.c.obj
 .group         0x0000000000000000        0xc CMakeFiles/kiibohd.dir/Macro/PartialMap/kll.c.obj
 .group         0x0000000000000000        0xc CMakeFiles/kiibohd.dir/Macro/PartialMap/kll.c.obj
 .group         0x0000000000000000        0xc CMakeFiles/kiibohd.dir/Macro/PartialMap/kll.c.obj
 .group         0x0000000000000000        0xc CMakeFiles/kiibohd.dir/Macro/PartialMap/kll.c.obj
 .group         0x0000000000000000        0xc CMakeFiles/kiibohd.dir/Macro/PartialMap/kll.c.obj
 .text          0x0000000000000000        0x0 CMakeFiles/kiibohd.dir/Macro/PartialMap/kll.c.obj
 .data          0x0000000000000000        0x0 CMakeFiles/kiibohd.dir/Macro/PartialMap/kll.c.obj
 .bss           0x0000000000000000        0x0 CMakeFiles/kiibohd.dir/Macro/PartialMap/kll.c.obj
 .debug_macro   0x0000000000000000      0xa60 CMakeFiles/kiibohd.dir/Macro/PartialMap/kll.c.obj
 .debug_macro   0x0000000000000000      0x2f1 CMakeFiles/kiibohd.dir/Macro/PartialMap/kll.c.obj
 .debug_macro   0x0000000000000000       0x28 CMakeFiles/kiibohd.dir/Macro/PartialMap/kll.c.obj
 .debug_macro   0x0000000000000000       0x22 CMakeFiles/kiibohd.dir/Macro/PartialMap/kll.c.obj
 .debug_macro   0x0000000000000000       0x8e CMakeFiles/kiibohd.dir/Macro/PartialMap/kll.c.obj
 .debug_macro   0x0000000000000000       0x51 CMakeFiles/kiibohd.dir/Macro/PartialMap/kll.c.obj
 .debug_macro   0x0000000000000000       0xef CMakeFiles/kiibohd.dir/Macro/PartialMap/kll.c.obj
 .debug_macro   0x0000000000000000       0x6a CMakeFiles/kiibohd.dir/Macro/PartialMap/kll.c.obj
 .debug_macro   0x0000000000000000      0x1df CMakeFiles/kiibohd.dir/Macro/PartialMap/kll.c.obj
 .debug_macro   0x0000000000000000       0xbe CMakeFiles/kiibohd.dir/Macro/PartialMap/kll.c.obj
 .debug_macro   0x0000000000000000       0x10 CMakeFiles/kiibohd.dir/Macro/PartialMap/kll.c.obj
 .debug_macro   0x0000000000000000       0x9a CMakeFiles/kiibohd.dir/Macro/PartialMap/kll.c.obj
 .debug_macro   0x0000000000000000     0x133d CMakeFiles/kiibohd.dir/Macro/PartialMap/kll.c.obj
 .debug_macro   0x0000000000000000       0x73 CMakeFiles/kiibohd.dir/Macro/PartialMap/kll.c.obj
 .group         0x0000000000000000        0xc CMakeFiles/kiibohd.dir/Macro/PartialMap/layer.c.obj
 .group         0x0000000000000000        0xc CMakeFiles/kiibohd.dir/Macro/PartialMap/layer.c.obj
 .group         0x0000000000000000        0xc CMakeFiles/kiibohd.dir/Macro/PartialMap/layer.c.obj
 .group         0x0000000000000000        0xc CMakeFiles/kiibohd.dir/Macro/PartialMap/layer.c.obj
 .group         0x0000000000000000        0xc CMakeFiles/kiibohd.dir/Macro/PartialMap/layer.c.obj
 .group         0x0000000000000000        0xc CMakeFiles/kiibohd.dir/Macro/PartialMap/layer.c.obj
 .group         0x0000000000000000        0xc CMakeFiles/kiibohd.dir/Macro/PartialMap/layer.c.obj
 .group         0x0000000000000000        0xc CMakeFiles/kiibohd.dir/Macro/PartialMap/layer.c.obj
 .group         0x0000000000000000        0xc CMakeFiles/kiibohd.dir/Macro/PartialMap/layer.c.obj
 .group         0x0000000000000000        0xc CMakeFiles/kiibohd.dir/Macro/PartialMap/layer.c.obj
 .group         0x0000000000000000        0xc CMakeFiles/kiibohd.dir/Macro/PartialMap/layer.c.obj
 .group         0x0000000000000000        0xc CMakeFiles/kiibohd.dir/Macro/PartialMap/layer.c.obj
 .group         0x0000000000000000        0xc CMakeFiles/kiibohd.dir/Macro/PartialMap/layer.c.obj
 .group         0x0000000000000000        0xc CMakeFiles/kiibohd.dir/Macro/PartialMap/layer.c.obj
 .group         0x0000000000000000        0xc CMakeFiles/kiibohd.dir/Macro/PartialMap/layer.c.obj
 .group         0x0000000000000000        0xc CMakeFiles/kiibohd.dir/Macro/PartialMap/layer.c.obj
 .group         0x0000000000000000        0xc CMakeFiles/kiibohd.dir/Macro/PartialMap/layer.c.obj
 .group         0x0000000000000000        0xc CMakeFiles/kiibohd.dir/Macro/PartialMap/layer.c.obj
 .group         0x0000000000000000        0xc CMakeFiles/kiibohd.dir/Macro/PartialMap/layer.c.obj
 .group         0x0000000000000000        0xc CMakeFiles/kiibohd.dir/Macro/PartialMap/layer.c.obj
 .text          0x0000000000000000        0x0 CMakeFiles/kiibohd.dir/Macro/PartialMap/layer.c.obj
 .data          0x0000000000000000        0x0 CMakeFiles/kiibohd.dir/Macro/PartialMap/layer.c.obj
 .bss           0x0000000000000000        0x0 CMakeFiles/kiibohd.dir/Macro/PartialMap/layer.c.obj
 .text.Layer_layerStateSet
                0x0000000000000000       0x3c CMakeFiles/kiibohd.dir/Macro/PartialMap/layer.c.obj
 .debug_macro   0x0000000000000000      0xa60 CMakeFiles/kiibohd.dir/Macro/PartialMap/layer.c.obj
 .debug_macro   0x0000000000000000       0x28 CMakeFiles/kiibohd.dir/Macro/PartialMap/layer.c.obj
 .debug_macro   0x0000000000000000       0x1c CMakeFiles/kiibohd.dir/Macro/PartialMap/layer.c.obj
 .debug_macro   0x0000000000000000       0x22 CMakeFiles/kiibohd.dir/Macro/PartialMap/layer.c.obj
 .debug_macro   0x0000000000000000       0x8e CMakeFiles/kiibohd.dir/Macro/PartialMap/layer.c.obj
 .debug_macro   0x0000000000000000       0x51 CMakeFiles/kiibohd.dir/Macro/PartialMap/layer.c.obj
 .debug_macro   0x0000000000000000       0xef CMakeFiles/kiibohd.dir/Macro/PartialMap/layer.c.obj
 .debug_macro   0x0000000000000000       0x6a CMakeFiles/kiibohd.dir/Macro/PartialMap/layer.c.obj
 .debug_macro   0x0000000000000000      0x1df CMakeFiles/kiibohd.dir/Macro/PartialMap/layer.c.obj
 .debug_macro   0x0000000000000000     0x5add CMakeFiles/kiibohd.dir/Macro/PartialMap/layer.c.obj
 .debug_macro   0x0000000000000000       0x10 CMakeFiles/kiibohd.dir/Macro/PartialMap/layer.c.obj
 .debug_macro   0x0000000000000000       0x10 CMakeFiles/kiibohd.dir/Macro/PartialMap/layer.c.obj
 .debug_macro   0x0000000000000000      0x2f1 CMakeFiles/kiibohd.dir/Macro/PartialMap/layer.c.obj
 .debug_macro   0x0000000000000000       0xbe CMakeFiles/kiibohd.dir/Macro/PartialMap/layer.c.obj
 .debug_macro   0x0000000000000000       0x10 CMakeFiles/kiibohd.dir/Macro/PartialMap/layer.c.obj
 .debug_macro   0x0000000000000000       0x3a CMakeFiles/kiibohd.dir/Macro/PartialMap/layer.c.obj
 .debug_macro   0x0000000000000000       0x9a CMakeFiles/kiibohd.dir/Macro/PartialMap/layer.c.obj
 .debug_macro   0x0000000000000000     0x133d CMakeFiles/kiibohd.dir/Macro/PartialMap/layer.c.obj
 .debug_macro   0x0000000000000000       0x73 CMakeFiles/kiibohd.dir/Macro/PartialMap/layer.c.obj
 .debug_macro   0x0000000000000000       0x28 CMakeFiles/kiibohd.dir/Macro/PartialMap/layer.c.obj
 .group         0x0000000000000000        0xc CMakeFiles/kiibohd.dir/Macro/PartialMap/macro.c.obj
 .group         0x0000000000000000        0xc CMakeFiles/kiibohd.dir/Macro/PartialMap/macro.c.obj
 .group         0x0000000000000000        0xc CMakeFiles/kiibohd.dir/Macro/PartialMap/macro.c.obj
 .group         0x0000000000000000        0xc CMakeFiles/kiibohd.dir/Macro/PartialMap/macro.c.obj
 .group         0x0000000000000000        0xc CMakeFiles/kiibohd.dir/Macro/PartialMap/macro.c.obj
 .group         0x0000000000000000        0xc CMakeFiles/kiibohd.dir/Macro/PartialMap/macro.c.obj
 .group         0x0000000000000000        0xc CMakeFiles/kiibohd.dir/Macro/PartialMap/macro.c.obj
 .group         0x0000000000000000        0xc CMakeFiles/kiibohd.dir/Macro/PartialMap/macro.c.obj
 .group         0x0000000000000000        0xc CMakeFiles/kiibohd.dir/Macro/PartialMap/macro.c.obj
 .group         0x0000000000000000        0xc CMakeFiles/kiibohd.dir/Macro/PartialMap/macro.c.obj
 .group         0x0000000000000000        0xc CMakeFiles/kiibohd.dir/Macro/PartialMap/macro.c.obj
 .group         0x0000000000000000        0xc CMakeFiles/kiibohd.dir/Macro/PartialMap/macro.c.obj
 .group         0x0000000000000000        0xc CMakeFiles/kiibohd.dir/Macro/PartialMap/macro.c.obj
 .group         0x0000000000000000        0xc CMakeFiles/kiibohd.dir/Macro/PartialMap/macro.c.obj
 .group         0x0000000000000000        0xc CMakeFiles/kiibohd.dir/Macro/PartialMap/macro.c.obj
 .group         0x0000000000000000        0xc CMakeFiles/kiibohd.dir/Macro/PartialMap/macro.c.obj
 .group         0x0000000000000000        0xc CMakeFiles/kiibohd.dir/Macro/PartialMap/macro.c.obj
 .group         0x0000000000000000        0xc CMakeFiles/kiibohd.dir/Macro/PartialMap/macro.c.obj
 .group         0x0000000000000000        0xc CMakeFiles/kiibohd.dir/Macro/PartialMap/macro.c.obj
 .group         0x0000000000000000        0xc CMakeFiles/kiibohd.dir/Macro/PartialMap/macro.c.obj
 .group         0x0000000000000000        0xc CMakeFiles/kiibohd.dir/Macro/PartialMap/macro.c.obj
 .text          0x0000000000000000        0x0 CMakeFiles/kiibohd.dir/Macro/PartialMap/macro.c.obj
 .data          0x0000000000000000        0x0 CMakeFiles/kiibohd.dir/Macro/PartialMap/macro.c.obj
 .bss           0x0000000000000000        0x0 CMakeFiles/kiibohd.dir/Macro/PartialMap/macro.c.obj
 .text.Macro_showSchedule
                0x0000000000000000       0x50 CMakeFiles/kiibohd.dir/Macro/PartialMap/macro.c.obj
 .text.Macro_showTriggerGuide
                0x0000000000000000       0x20 CMakeFiles/kiibohd.dir/Macro/PartialMap/macro.c.obj
 .text.Macro_analogState
                0x0000000000000000       0x74 CMakeFiles/kiibohd.dir/Macro/PartialMap/macro.c.obj
 .rodata.Key_Positions
                0x0000000000000000      0x390 CMakeFiles/kiibohd.dir/Macro/PartialMap/macro.c.obj
 .rodata.Rotation_MaxParameter
                0x0000000000000000        0x0 CMakeFiles/kiibohd.dir/Macro/PartialMap/macro.c.obj
 .debug_macro   0x0000000000000000      0xa60 CMakeFiles/kiibohd.dir/Macro/PartialMap/macro.c.obj
 .debug_macro   0x0000000000000000       0x28 CMakeFiles/kiibohd.dir/Macro/PartialMap/macro.c.obj
 .debug_macro   0x0000000000000000       0x1c CMakeFiles/kiibohd.dir/Macro/PartialMap/macro.c.obj
 .debug_macro   0x0000000000000000       0x22 CMakeFiles/kiibohd.dir/Macro/PartialMap/macro.c.obj
 .debug_macro   0x0000000000000000       0x8e CMakeFiles/kiibohd.dir/Macro/PartialMap/macro.c.obj
 .debug_macro   0x0000000000000000       0x51 CMakeFiles/kiibohd.dir/Macro/PartialMap/macro.c.obj
 .debug_macro   0x0000000000000000       0xef CMakeFiles/kiibohd.dir/Macro/PartialMap/macro.c.obj
 .debug_macro   0x0000000000000000       0x6a CMakeFiles/kiibohd.dir/Macro/PartialMap/macro.c.obj
 .debug_macro   0x0000000000000000      0x1df CMakeFiles/kiibohd.dir/Macro/PartialMap/macro.c.obj
 .debug_macro   0x0000000000000000     0x5add CMakeFiles/kiibohd.dir/Macro/PartialMap/macro.c.obj
 .debug_macro   0x0000000000000000       0x10 CMakeFiles/kiibohd.dir/Macro/PartialMap/macro.c.obj
 .debug_macro   0x0000000000000000       0x10 CMakeFiles/kiibohd.dir/Macro/PartialMap/macro.c.obj
 .debug_macro   0x0000000000000000      0x2f1 CMakeFiles/kiibohd.dir/Macro/PartialMap/macro.c.obj
 .debug_macro   0x0000000000000000       0xbe CMakeFiles/kiibohd.dir/Macro/PartialMap/macro.c.obj
 .debug_macro   0x0000000000000000       0x10 CMakeFiles/kiibohd.dir/Macro/PartialMap/macro.c.obj
 .debug_macro   0x0000000000000000       0x3a CMakeFiles/kiibohd.dir/Macro/PartialMap/macro.c.obj
 .debug_macro   0x0000000000000000       0x9a CMakeFiles/kiibohd.dir/Macro/PartialMap/macro.c.obj
 .debug_macro   0x0000000000000000     0x133d CMakeFiles/kiibohd.dir/Macro/PartialMap/macro.c.obj
 .debug_macro   0x0000000000000000       0x73 CMakeFiles/kiibohd.dir/Macro/PartialMap/macro.c.obj
 .debug_macro   0x0000000000000000       0x28 CMakeFiles/kiibohd.dir/Macro/PartialMap/macro.c.obj
 .debug_macro   0x0000000000000000       0x35 CMakeFiles/kiibohd.dir/Macro/PartialMap/macro.c.obj
 .group         0x0000000000000000        0xc CMakeFiles/kiibohd.dir/Macro/PartialMap/result.c.obj
 .group         0x0000000000000000        0xc CMakeFiles/kiibohd.dir/Macro/PartialMap/result.c.obj
 .group         0x0000000000000000        0xc CMakeFiles/kiibohd.dir/Macro/PartialMap/result.c.obj
 .group         0x0000000000000000        0xc CMakeFiles/kiibohd.dir/Macro/PartialMap/result.c.obj
 .group         0x0000000000000000        0xc CMakeFiles/kiibohd.dir/Macro/PartialMap/result.c.obj
 .group         0x0000000000000000        0xc CMakeFiles/kiibohd.dir/Macro/PartialMap/result.c.obj
 .group         0x0000000000000000        0xc CMakeFiles/kiibohd.dir/Macro/PartialMap/result.c.obj
 .group         0x0000000000000000        0xc CMakeFiles/kiibohd.dir/Macro/PartialMap/result.c.obj
 .group         0x0000000000000000        0xc CMakeFiles/kiibohd.dir/Macro/PartialMap/result.c.obj
 .group         0x0000000000000000        0xc CMakeFiles/kiibohd.dir/Macro/PartialMap/result.c.obj
 .group         0x0000000000000000        0xc CMakeFiles/kiibohd.dir/Macro/PartialMap/result.c.obj
 .group         0x0000000000000000        0xc CMakeFiles/kiibohd.dir/Macro/PartialMap/result.c.obj
 .group         0x0000000000000000        0xc CMakeFiles/kiibohd.dir/Macro/PartialMap/result.c.obj
 .group         0x0000000000000000        0xc CMakeFiles/kiibohd.dir/Macro/PartialMap/result.c.obj
 .group         0x0000000000000000        0xc CMakeFiles/kiibohd.dir/Macro/PartialMap/result.c.obj
 .group         0x0000000000000000        0xc CMakeFiles/kiibohd.dir/Macro/PartialMap/result.c.obj
 .group         0x0000000000000000        0xc CMakeFiles/kiibohd.dir/Macro/PartialMap/result.c.obj
 .group         0x0000000000000000        0xc CMakeFiles/kiibohd.dir/Macro/PartialMap/result.c.obj
 .text          0x0000000000000000        0x0 CMakeFiles/kiibohd.dir/Macro/PartialMap/result.c.obj
 .data          0x0000000000000000        0x0 CMakeFiles/kiibohd.dir/Macro/PartialMap/result.c.obj
 .bss           0x0000000000000000        0x0 CMakeFiles/kiibohd.dir/Macro/PartialMap/result.c.obj
 .debug_macro   0x0000000000000000      0xa60 CMakeFiles/kiibohd.dir/Macro/PartialMap/result.c.obj
 .debug_macro   0x0000000000000000       0x28 CMakeFiles/kiibohd.dir/Macro/PartialMap/result.c.obj
 .debug_macro   0x0000000000000000       0x1c CMakeFiles/kiibohd.dir/Macro/PartialMap/result.c.obj
 .debug_macro   0x0000000000000000       0x22 CMakeFiles/kiibohd.dir/Macro/PartialMap/result.c.obj
 .debug_macro   0x0000000000000000       0x8e CMakeFiles/kiibohd.dir/Macro/PartialMap/result.c.obj
 .debug_macro   0x0000000000000000       0x51 CMakeFiles/kiibohd.dir/Macro/PartialMap/result.c.obj
 .debug_macro   0x0000000000000000       0xef CMakeFiles/kiibohd.dir/Macro/PartialMap/result.c.obj
 .debug_macro   0x0000000000000000       0x6a CMakeFiles/kiibohd.dir/Macro/PartialMap/result.c.obj
 .debug_macro   0x0000000000000000      0x1df CMakeFiles/kiibohd.dir/Macro/PartialMap/result.c.obj
 .debug_macro   0x0000000000000000     0x5add CMakeFiles/kiibohd.dir/Macro/PartialMap/result.c.obj
 .debug_macro   0x0000000000000000       0x10 CMakeFiles/kiibohd.dir/Macro/PartialMap/result.c.obj
 .debug_macro   0x0000000000000000       0x10 CMakeFiles/kiibohd.dir/Macro/PartialMap/result.c.obj
 .debug_macro   0x0000000000000000      0x2f1 CMakeFiles/kiibohd.dir/Macro/PartialMap/result.c.obj
 .debug_macro   0x0000000000000000       0xbe CMakeFiles/kiibohd.dir/Macro/PartialMap/result.c.obj
 .debug_macro   0x0000000000000000       0x10 CMakeFiles/kiibohd.dir/Macro/PartialMap/result.c.obj
 .debug_macro   0x0000000000000000       0x9a CMakeFiles/kiibohd.dir/Macro/PartialMap/result.c.obj
 .debug_macro   0x0000000000000000     0x133d CMakeFiles/kiibohd.dir/Macro/PartialMap/result.c.obj
 .debug_macro   0x0000000000000000       0x73 CMakeFiles/kiibohd.dir/Macro/PartialMap/result.c.obj
 .group         0x0000000000000000        0xc CMakeFiles/kiibohd.dir/Macro/PartialMap/trigger.c.obj
 .group         0x0000000000000000        0xc CMakeFiles/kiibohd.dir/Macro/PartialMap/trigger.c.obj
 .group         0x0000000000000000        0xc CMakeFiles/kiibohd.dir/Macro/PartialMap/trigger.c.obj
 .group         0x0000000000000000        0xc CMakeFiles/kiibohd.dir/Macro/PartialMap/trigger.c.obj
 .group         0x0000000000000000        0xc CMakeFiles/kiibohd.dir/Macro/PartialMap/trigger.c.obj
 .group         0x0000000000000000        0xc CMakeFiles/kiibohd.dir/Macro/PartialMap/trigger.c.obj
 .group         0x0000000000000000        0xc CMakeFiles/kiibohd.dir/Macro/PartialMap/trigger.c.obj
 .group         0x0000000000000000        0xc CMakeFiles/kiibohd.dir/Macro/PartialMap/trigger.c.obj
 .group         0x0000000000000000        0xc CMakeFiles/kiibohd.dir/Macro/PartialMap/trigger.c.obj
 .group         0x0000000000000000        0xc CMakeFiles/kiibohd.dir/Macro/PartialMap/trigger.c.obj
 .group         0x0000000000000000        0xc CMakeFiles/kiibohd.dir/Macro/PartialMap/trigger.c.obj
 .group         0x0000000000000000        0xc CMakeFiles/kiibohd.dir/Macro/PartialMap/trigger.c.obj
 .group         0x0000000000000000        0xc CMakeFiles/kiibohd.dir/Macro/PartialMap/trigger.c.obj
 .group         0x0000000000000000        0xc CMakeFiles/kiibohd.dir/Macro/PartialMap/trigger.c.obj
 .group         0x0000000000000000        0xc CMakeFiles/kiibohd.dir/Macro/PartialMap/trigger.c.obj
 .group         0x0000000000000000        0xc CMakeFiles/kiibohd.dir/Macro/PartialMap/trigger.c.obj
 .group         0x0000000000000000        0xc CMakeFiles/kiibohd.dir/Macro/PartialMap/trigger.c.obj
 .group         0x0000000000000000        0xc CMakeFiles/kiibohd.dir/Macro/PartialMap/trigger.c.obj
 .text          0x0000000000000000        0x0 CMakeFiles/kiibohd.dir/Macro/PartialMap/trigger.c.obj
 .data          0x0000000000000000        0x0 CMakeFiles/kiibohd.dir/Macro/PartialMap/trigger.c.obj
 .bss           0x0000000000000000        0x0 CMakeFiles/kiibohd.dir/Macro/PartialMap/trigger.c.obj
 .text.Trigger_evalLongTriggerMacroVote_PHRO
                0x0000000000000000       0x44 CMakeFiles/kiibohd.dir/Macro/PartialMap/trigger.c.obj
 .text.Trigger_evalLongTriggerMacroVote_DRO
                0x0000000000000000       0x30 CMakeFiles/kiibohd.dir/Macro/PartialMap/trigger.c.obj
 .debug_macro   0x0000000000000000      0xa60 CMakeFiles/kiibohd.dir/Macro/PartialMap/trigger.c.obj
 .debug_macro   0x0000000000000000       0x28 CMakeFiles/kiibohd.dir/Macro/PartialMap/trigger.c.obj
 .debug_macro   0x0000000000000000       0x1c CMakeFiles/kiibohd.dir/Macro/PartialMap/trigger.c.obj
 .debug_macro   0x0000000000000000       0x22 CMakeFiles/kiibohd.dir/Macro/PartialMap/trigger.c.obj
 .debug_macro   0x0000000000000000       0x8e CMakeFiles/kiibohd.dir/Macro/PartialMap/trigger.c.obj
 .debug_macro   0x0000000000000000       0x51 CMakeFiles/kiibohd.dir/Macro/PartialMap/trigger.c.obj
 .debug_macro   0x0000000000000000       0xef CMakeFiles/kiibohd.dir/Macro/PartialMap/trigger.c.obj
 .debug_macro   0x0000000000000000       0x6a CMakeFiles/kiibohd.dir/Macro/PartialMap/trigger.c.obj
 .debug_macro   0x0000000000000000      0x1df CMakeFiles/kiibohd.dir/Macro/PartialMap/trigger.c.obj
 .debug_macro   0x0000000000000000     0x5add CMakeFiles/kiibohd.dir/Macro/PartialMap/trigger.c.obj
 .debug_macro   0x0000000000000000       0x10 CMakeFiles/kiibohd.dir/Macro/PartialMap/trigger.c.obj
 .debug_macro   0x0000000000000000       0x10 CMakeFiles/kiibohd.dir/Macro/PartialMap/trigger.c.obj
 .debug_macro   0x0000000000000000      0x2f1 CMakeFiles/kiibohd.dir/Macro/PartialMap/trigger.c.obj
 .debug_macro   0x0000000000000000       0xbe CMakeFiles/kiibohd.dir/Macro/PartialMap/trigger.c.obj
 .debug_macro   0x0000000000000000       0x10 CMakeFiles/kiibohd.dir/Macro/PartialMap/trigger.c.obj
 .debug_macro   0x0000000000000000       0x9a CMakeFiles/kiibohd.dir/Macro/PartialMap/trigger.c.obj
 .debug_macro   0x0000000000000000     0x133d CMakeFiles/kiibohd.dir/Macro/PartialMap/trigger.c.obj
 .debug_macro   0x0000000000000000       0x73 CMakeFiles/kiibohd.dir/Macro/PartialMap/trigger.c.obj
 .group         0x0000000000000000        0xc CMakeFiles/kiibohd.dir/Macro/PixelMap/pixel.c.obj
 .group         0x0000000000000000        0xc CMakeFiles/kiibohd.dir/Macro/PixelMap/pixel.c.obj
 .group         0x0000000000000000        0xc CMakeFiles/kiibohd.dir/Macro/PixelMap/pixel.c.obj
 .group         0x0000000000000000        0xc CMakeFiles/kiibohd.dir/Macro/PixelMap/pixel.c.obj
 .group         0x0000000000000000        0xc CMakeFiles/kiibohd.dir/Macro/PixelMap/pixel.c.obj
 .group         0x0000000000000000        0xc CMakeFiles/kiibohd.dir/Macro/PixelMap/pixel.c.obj
 .group         0x0000000000000000        0xc CMakeFiles/kiibohd.dir/Macro/PixelMap/pixel.c.obj
 .group         0x0000000000000000        0xc CMakeFiles/kiibohd.dir/Macro/PixelMap/pixel.c.obj
 .group         0x0000000000000000        0xc CMakeFiles/kiibohd.dir/Macro/PixelMap/pixel.c.obj
 .group         0x0000000000000000        0xc CMakeFiles/kiibohd.dir/Macro/PixelMap/pixel.c.obj
 .group         0x0000000000000000        0xc CMakeFiles/kiibohd.dir/Macro/PixelMap/pixel.c.obj
 .group         0x0000000000000000        0xc CMakeFiles/kiibohd.dir/Macro/PixelMap/pixel.c.obj
 .group         0x0000000000000000        0xc CMakeFiles/kiibohd.dir/Macro/PixelMap/pixel.c.obj
 .group         0x0000000000000000        0xc CMakeFiles/kiibohd.dir/Macro/PixelMap/pixel.c.obj
 .group         0x0000000000000000        0xc CMakeFiles/kiibohd.dir/Macro/PixelMap/pixel.c.obj
 .group         0x0000000000000000        0xc CMakeFiles/kiibohd.dir/Macro/PixelMap/pixel.c.obj
 .group         0x0000000000000000        0xc CMakeFiles/kiibohd.dir/Macro/PixelMap/pixel.c.obj
 .group         0x0000000000000000        0xc CMakeFiles/kiibohd.dir/Macro/PixelMap/pixel.c.obj
 .group         0x0000000000000000        0xc CMakeFiles/kiibohd.dir/Macro/PixelMap/pixel.c.obj
 .group         0x0000000000000000        0xc CMakeFiles/kiibohd.dir/Macro/PixelMap/pixel.c.obj
 .text          0x0000000000000000        0x0 CMakeFiles/kiibohd.dir/Macro/PixelMap/pixel.c.obj
 .data          0x0000000000000000        0x0 CMakeFiles/kiibohd.dir/Macro/PixelMap/pixel.c.obj
 .bss           0x0000000000000000        0x0 CMakeFiles/kiibohd.dir/Macro/PixelMap/pixel.c.obj
 .text.Pixel_8bitInterpolation
                0x0000000000000000       0x2c CMakeFiles/kiibohd.dir/Macro/PixelMap/pixel.c.obj
 .text.Pixel_delAnimation
                0x0000000000000000       0x48 CMakeFiles/kiibohd.dir/Macro/PixelMap/pixel.c.obj
 .text.Pixel_pixelInterpolate
                0x0000000000000000       0x5c CMakeFiles/kiibohd.dir/Macro/PixelMap/pixel.c.obj
 .text.Pixel_frameTweenInterpolation
                0x0000000000000000       0x20 CMakeFiles/kiibohd.dir/Macro/PixelMap/pixel.c.obj
 .debug_macro   0x0000000000000000      0xa60 CMakeFiles/kiibohd.dir/Macro/PixelMap/pixel.c.obj
 .debug_macro   0x0000000000000000       0x28 CMakeFiles/kiibohd.dir/Macro/PixelMap/pixel.c.obj
 .debug_macro   0x0000000000000000       0x1c CMakeFiles/kiibohd.dir/Macro/PixelMap/pixel.c.obj
 .debug_macro   0x0000000000000000       0x22 CMakeFiles/kiibohd.dir/Macro/PixelMap/pixel.c.obj
 .debug_macro   0x0000000000000000       0x8e CMakeFiles/kiibohd.dir/Macro/PixelMap/pixel.c.obj
 .debug_macro   0x0000000000000000       0x51 CMakeFiles/kiibohd.dir/Macro/PixelMap/pixel.c.obj
 .debug_macro   0x0000000000000000       0xef CMakeFiles/kiibohd.dir/Macro/PixelMap/pixel.c.obj
 .debug_macro   0x0000000000000000       0x6a CMakeFiles/kiibohd.dir/Macro/PixelMap/pixel.c.obj
 .debug_macro   0x0000000000000000      0x1df CMakeFiles/kiibohd.dir/Macro/PixelMap/pixel.c.obj
 .debug_macro   0x0000000000000000     0x5add CMakeFiles/kiibohd.dir/Macro/PixelMap/pixel.c.obj
 .debug_macro   0x0000000000000000       0x10 CMakeFiles/kiibohd.dir/Macro/PixelMap/pixel.c.obj
 .debug_macro   0x0000000000000000       0x10 CMakeFiles/kiibohd.dir/Macro/PixelMap/pixel.c.obj
 .debug_macro   0x0000000000000000      0x2f1 CMakeFiles/kiibohd.dir/Macro/PixelMap/pixel.c.obj
 .debug_macro   0x0000000000000000       0xbe CMakeFiles/kiibohd.dir/Macro/PixelMap/pixel.c.obj
 .debug_macro   0x0000000000000000       0x10 CMakeFiles/kiibohd.dir/Macro/PixelMap/pixel.c.obj
 .debug_macro   0x0000000000000000       0x3a CMakeFiles/kiibohd.dir/Macro/PixelMap/pixel.c.obj
 .debug_macro   0x0000000000000000       0x9a CMakeFiles/kiibohd.dir/Macro/PixelMap/pixel.c.obj
 .debug_macro   0x0000000000000000     0x133d CMakeFiles/kiibohd.dir/Macro/PixelMap/pixel.c.obj
 .debug_macro   0x0000000000000000       0x73 CMakeFiles/kiibohd.dir/Macro/PixelMap/pixel.c.obj
 .debug_macro   0x0000000000000000       0x35 CMakeFiles/kiibohd.dir/Macro/PixelMap/pixel.c.obj
 .group         0x0000000000000000        0xc CMakeFiles/kiibohd.dir/generatedPixelmap.c.obj
 .group         0x0000000000000000        0xc CMakeFiles/kiibohd.dir/generatedPixelmap.c.obj
 .group         0x0000000000000000        0xc CMakeFiles/kiibohd.dir/generatedPixelmap.c.obj
 .group         0x0000000000000000        0xc CMakeFiles/kiibohd.dir/generatedPixelmap.c.obj
 .group         0x0000000000000000        0xc CMakeFiles/kiibohd.dir/generatedPixelmap.c.obj
 .group         0x0000000000000000        0xc CMakeFiles/kiibohd.dir/generatedPixelmap.c.obj
 .group         0x0000000000000000        0xc CMakeFiles/kiibohd.dir/generatedPixelmap.c.obj
 .group         0x0000000000000000        0xc CMakeFiles/kiibohd.dir/generatedPixelmap.c.obj
 .group         0x0000000000000000        0xc CMakeFiles/kiibohd.dir/generatedPixelmap.c.obj
 .group         0x0000000000000000        0xc CMakeFiles/kiibohd.dir/generatedPixelmap.c.obj
 .group         0x0000000000000000        0xc CMakeFiles/kiibohd.dir/generatedPixelmap.c.obj
 .group         0x0000000000000000        0xc CMakeFiles/kiibohd.dir/generatedPixelmap.c.obj
 .group         0x0000000000000000        0xc CMakeFiles/kiibohd.dir/generatedPixelmap.c.obj
 .group         0x0000000000000000        0xc CMakeFiles/kiibohd.dir/generatedPixelmap.c.obj
 .group         0x0000000000000000        0xc CMakeFiles/kiibohd.dir/generatedPixelmap.c.obj
 .text          0x0000000000000000        0x0 CMakeFiles/kiibohd.dir/generatedPixelmap.c.obj
 .data          0x0000000000000000        0x0 CMakeFiles/kiibohd.dir/generatedPixelmap.c.obj
 .bss           0x0000000000000000        0x0 CMakeFiles/kiibohd.dir/generatedPixelmap.c.obj
 .debug_macro   0x0000000000000000      0xa60 CMakeFiles/kiibohd.dir/generatedPixelmap.c.obj
 .debug_macro   0x0000000000000000       0x22 CMakeFiles/kiibohd.dir/generatedPixelmap.c.obj
 .debug_macro   0x0000000000000000       0x8e CMakeFiles/kiibohd.dir/generatedPixelmap.c.obj
 .debug_macro   0x0000000000000000       0x51 CMakeFiles/kiibohd.dir/generatedPixelmap.c.obj
 .debug_macro   0x0000000000000000       0xef CMakeFiles/kiibohd.dir/generatedPixelmap.c.obj
 .debug_macro   0x0000000000000000       0x6a CMakeFiles/kiibohd.dir/generatedPixelmap.c.obj
 .debug_macro   0x0000000000000000      0x1df CMakeFiles/kiibohd.dir/generatedPixelmap.c.obj
 .debug_macro   0x0000000000000000      0x2f1 CMakeFiles/kiibohd.dir/generatedPixelmap.c.obj
 .debug_macro   0x0000000000000000       0x28 CMakeFiles/kiibohd.dir/generatedPixelmap.c.obj
 .debug_macro   0x0000000000000000       0xbe CMakeFiles/kiibohd.dir/generatedPixelmap.c.obj
 .debug_macro   0x0000000000000000       0x10 CMakeFiles/kiibohd.dir/generatedPixelmap.c.obj
 .debug_macro   0x0000000000000000       0x9a CMakeFiles/kiibohd.dir/generatedPixelmap.c.obj
 .debug_macro   0x0000000000000000     0x133d CMakeFiles/kiibohd.dir/generatedPixelmap.c.obj
 .debug_macro   0x0000000000000000       0x73 CMakeFiles/kiibohd.dir/generatedPixelmap.c.obj
 .debug_macro   0x0000000000000000       0x35 CMakeFiles/kiibohd.dir/generatedPixelmap.c.obj
 .group         0x0000000000000000        0xc CMakeFiles/kiibohd.dir/Output/HID-IO/hidio_com.c.obj
 .group         0x0000000000000000        0xc CMakeFiles/kiibohd.dir/Output/HID-IO/hidio_com.c.obj
 .group         0x0000000000000000        0xc CMakeFiles/kiibohd.dir/Output/HID-IO/hidio_com.c.obj
 .group         0x0000000000000000        0xc CMakeFiles/kiibohd.dir/Output/HID-IO/hidio_com.c.obj
 .group         0x0000000000000000        0xc CMakeFiles/kiibohd.dir/Output/HID-IO/hidio_com.c.obj
 .group         0x0000000000000000        0xc CMakeFiles/kiibohd.dir/Output/HID-IO/hidio_com.c.obj
 .group         0x0000000000000000        0xc CMakeFiles/kiibohd.dir/Output/HID-IO/hidio_com.c.obj
 .group         0x0000000000000000        0xc CMakeFiles/kiibohd.dir/Output/HID-IO/hidio_com.c.obj
 .group         0x0000000000000000        0xc CMakeFiles/kiibohd.dir/Output/HID-IO/hidio_com.c.obj
 .group         0x0000000000000000        0xc CMakeFiles/kiibohd.dir/Output/HID-IO/hidio_com.c.obj
 .group         0x0000000000000000        0xc CMakeFiles/kiibohd.dir/Output/HID-IO/hidio_com.c.obj
 .group         0x0000000000000000        0xc CMakeFiles/kiibohd.dir/Output/HID-IO/hidio_com.c.obj
 .group         0x0000000000000000        0xc CMakeFiles/kiibohd.dir/Output/HID-IO/hidio_com.c.obj
 .group         0x0000000000000000        0xc CMakeFiles/kiibohd.dir/Output/HID-IO/hidio_com.c.obj
 .group         0x0000000000000000        0xc CMakeFiles/kiibohd.dir/Output/HID-IO/hidio_com.c.obj
 .group         0x0000000000000000        0xc CMakeFiles/kiibohd.dir/Output/HID-IO/hidio_com.c.obj
 .group         0x0000000000000000        0xc CMakeFiles/kiibohd.dir/Output/HID-IO/hidio_com.c.obj
 .group         0x0000000000000000        0xc CMakeFiles/kiibohd.dir/Output/HID-IO/hidio_com.c.obj
 .group         0x0000000000000000        0xc CMakeFiles/kiibohd.dir/Output/HID-IO/hidio_com.c.obj
 .text          0x0000000000000000        0x0 CMakeFiles/kiibohd.dir/Output/HID-IO/hidio_com.c.obj
 .data          0x0000000000000000        0x0 CMakeFiles/kiibohd.dir/Output/HID-IO/hidio_com.c.obj
 .bss           0x0000000000000000        0x0 CMakeFiles/kiibohd.dir/Output/HID-IO/hidio_com.c.obj
 .text.HIDIO_max_payload
                0x0000000000000000       0x2c CMakeFiles/kiibohd.dir/Output/HID-IO/hidio_com.c.obj
 .text.HIDIO_buffer_id_width
                0x0000000000000000       0x28 CMakeFiles/kiibohd.dir/Output/HID-IO/hidio_com.c.obj
 .text.HIDIO_id_width
                0x0000000000000000       0x28 CMakeFiles/kiibohd.dir/Output/HID-IO/hidio_com.c.obj
 .text.HIDIO_supported_0_request
                0x0000000000000000       0x20 CMakeFiles/kiibohd.dir/Output/HID-IO/hidio_com.c.obj
 .text.HIDIO_info_1_request
                0x0000000000000000       0x20 CMakeFiles/kiibohd.dir/Output/HID-IO/hidio_com.c.obj
 .text.HIDIO_test_2_request
                0x0000000000000000       0x4c CMakeFiles/kiibohd.dir/Output/HID-IO/hidio_com.c.obj
 .text.HIDIO_invalid_65535_request
                0x0000000000000000       0x38 CMakeFiles/kiibohd.dir/Output/HID-IO/hidio_com.c.obj
 .text.HIDIO_packet_size
                0x0000000000000000       0x28 CMakeFiles/kiibohd.dir/Output/HID-IO/hidio_com.c.obj
 .text.HIDIO_packet_interrupt
                0x0000000000000000       0x28 CMakeFiles/kiibohd.dir/Output/HID-IO/hidio_com.c.obj
 .rodata.HIDIO_packet_interrupt.str1.1
                0x0000000000000000        0x4 CMakeFiles/kiibohd.dir/Output/HID-IO/hidio_com.c.obj
 .debug_macro   0x0000000000000000      0xa60 CMakeFiles/kiibohd.dir/Output/HID-IO/hidio_com.c.obj
 .debug_macro   0x0000000000000000       0x28 CMakeFiles/kiibohd.dir/Output/HID-IO/hidio_com.c.obj
 .debug_macro   0x0000000000000000       0x1c CMakeFiles/kiibohd.dir/Output/HID-IO/hidio_com.c.obj
 .debug_macro   0x0000000000000000       0x22 CMakeFiles/kiibohd.dir/Output/HID-IO/hidio_com.c.obj
 .debug_macro   0x0000000000000000       0x8e CMakeFiles/kiibohd.dir/Output/HID-IO/hidio_com.c.obj
 .debug_macro   0x0000000000000000       0x51 CMakeFiles/kiibohd.dir/Output/HID-IO/hidio_com.c.obj
 .debug_macro   0x0000000000000000       0xef CMakeFiles/kiibohd.dir/Output/HID-IO/hidio_com.c.obj
 .debug_macro   0x0000000000000000       0x6a CMakeFiles/kiibohd.dir/Output/HID-IO/hidio_com.c.obj
 .debug_macro   0x0000000000000000      0x1df CMakeFiles/kiibohd.dir/Output/HID-IO/hidio_com.c.obj
 .debug_macro   0x0000000000000000     0x5add CMakeFiles/kiibohd.dir/Output/HID-IO/hidio_com.c.obj
 .debug_macro   0x0000000000000000       0x10 CMakeFiles/kiibohd.dir/Output/HID-IO/hidio_com.c.obj
 .debug_macro   0x0000000000000000       0x10 CMakeFiles/kiibohd.dir/Output/HID-IO/hidio_com.c.obj
 .debug_macro   0x0000000000000000      0x2f1 CMakeFiles/kiibohd.dir/Output/HID-IO/hidio_com.c.obj
 .debug_macro   0x0000000000000000       0xbe CMakeFiles/kiibohd.dir/Output/HID-IO/hidio_com.c.obj
 .debug_macro   0x0000000000000000       0x10 CMakeFiles/kiibohd.dir/Output/HID-IO/hidio_com.c.obj
 .debug_macro   0x0000000000000000       0x3a CMakeFiles/kiibohd.dir/Output/HID-IO/hidio_com.c.obj
 .debug_macro   0x0000000000000000       0x9a CMakeFiles/kiibohd.dir/Output/HID-IO/hidio_com.c.obj
 .debug_macro   0x0000000000000000     0x133d CMakeFiles/kiibohd.dir/Output/HID-IO/hidio_com.c.obj
 .debug_macro   0x0000000000000000       0x73 CMakeFiles/kiibohd.dir/Output/HID-IO/hidio_com.c.obj
 .group         0x0000000000000000        0xc CMakeFiles/kiibohd.dir/Output/Interface/output_gen.c.obj
 .group         0x0000000000000000        0xc CMakeFiles/kiibohd.dir/Output/Interface/output_gen.c.obj
 .group         0x0000000000000000        0xc CMakeFiles/kiibohd.dir/Output/Interface/output_gen.c.obj
 .group         0x0000000000000000        0xc CMakeFiles/kiibohd.dir/Output/Interface/output_gen.c.obj
 .group         0x0000000000000000        0xc CMakeFiles/kiibohd.dir/Output/Interface/output_gen.c.obj
 .group         0x0000000000000000        0xc CMakeFiles/kiibohd.dir/Output/Interface/output_gen.c.obj
 .group         0x0000000000000000        0xc CMakeFiles/kiibohd.dir/Output/Interface/output_gen.c.obj
 .group         0x0000000000000000        0xc CMakeFiles/kiibohd.dir/Output/Interface/output_gen.c.obj
 .group         0x0000000000000000        0xc CMakeFiles/kiibohd.dir/Output/Interface/output_gen.c.obj
 .group         0x0000000000000000        0xc CMakeFiles/kiibohd.dir/Output/Interface/output_gen.c.obj
 .group         0x0000000000000000        0xc CMakeFiles/kiibohd.dir/Output/Interface/output_gen.c.obj
 .group         0x0000000000000000        0xc CMakeFiles/kiibohd.dir/Output/Interface/output_gen.c.obj
 .group         0x0000000000000000        0xc CMakeFiles/kiibohd.dir/Output/Interface/output_gen.c.obj
 .group         0x0000000000000000        0xc CMakeFiles/kiibohd.dir/Output/Interface/output_gen.c.obj
 .group         0x0000000000000000        0xc CMakeFiles/kiibohd.dir/Output/Interface/output_gen.c.obj
 .group         0x0000000000000000        0xc CMakeFiles/kiibohd.dir/Output/Interface/output_gen.c.obj
 .group         0x0000000000000000        0xc CMakeFiles/kiibohd.dir/Output/Interface/output_gen.c.obj
 .group         0x0000000000000000        0xc CMakeFiles/kiibohd.dir/Output/Interface/output_gen.c.obj
 .group         0x0000000000000000        0xc CMakeFiles/kiibohd.dir/Output/Interface/output_gen.c.obj
 .text          0x0000000000000000        0x0 CMakeFiles/kiibohd.dir/Output/Interface/output_gen.c.obj
 .data          0x0000000000000000        0x0 CMakeFiles/kiibohd.dir/Output/Interface/output_gen.c.obj
 .bss           0x0000000000000000        0x0 CMakeFiles/kiibohd.dir/Output/Interface/output_gen.c.obj
 .text.Output_ignored_capability
                0x0000000000000000       0x20 CMakeFiles/kiibohd.dir/Output/Interface/output_gen.c.obj
 .debug_macro   0x0000000000000000      0xa60 CMakeFiles/kiibohd.dir/Output/Interface/output_gen.c.obj
 .debug_macro   0x0000000000000000       0x28 CMakeFiles/kiibohd.dir/Output/Interface/output_gen.c.obj
 .debug_macro   0x0000000000000000       0x1c CMakeFiles/kiibohd.dir/Output/Interface/output_gen.c.obj
 .debug_macro   0x0000000000000000       0x22 CMakeFiles/kiibohd.dir/Output/Interface/output_gen.c.obj
 .debug_macro   0x0000000000000000       0x8e CMakeFiles/kiibohd.dir/Output/Interface/output_gen.c.obj
 .debug_macro   0x0000000000000000       0x51 CMakeFiles/kiibohd.dir/Output/Interface/output_gen.c.obj
 .debug_macro   0x0000000000000000       0xef CMakeFiles/kiibohd.dir/Output/Interface/output_gen.c.obj
 .debug_macro   0x0000000000000000       0x6a CMakeFiles/kiibohd.dir/Output/Interface/output_gen.c.obj
 .debug_macro   0x0000000000000000      0x1df CMakeFiles/kiibohd.dir/Output/Interface/output_gen.c.obj
 .debug_macro   0x0000000000000000     0x5add CMakeFiles/kiibohd.dir/Output/Interface/output_gen.c.obj
 .debug_macro   0x0000000000000000       0x10 CMakeFiles/kiibohd.dir/Output/Interface/output_gen.c.obj
 .debug_macro   0x0000000000000000       0x10 CMakeFiles/kiibohd.dir/Output/Interface/output_gen.c.obj
 .debug_macro   0x0000000000000000      0x2ea CMakeFiles/kiibohd.dir/Output/Interface/output_gen.c.obj
 .debug_macro   0x0000000000000000       0xbe CMakeFiles/kiibohd.dir/Output/Interface/output_gen.c.obj
 .debug_macro   0x0000000000000000       0x10 CMakeFiles/kiibohd.dir/Output/Interface/output_gen.c.obj
 .debug_macro   0x0000000000000000       0x3a CMakeFiles/kiibohd.dir/Output/Interface/output_gen.c.obj
 .debug_macro   0x0000000000000000       0x9a CMakeFiles/kiibohd.dir/Output/Interface/output_gen.c.obj
 .debug_macro   0x0000000000000000     0x1334 CMakeFiles/kiibohd.dir/Output/Interface/output_gen.c.obj
 .debug_macro   0x0000000000000000       0x73 CMakeFiles/kiibohd.dir/Output/Interface/output_gen.c.obj
 .group         0x0000000000000000        0xc CMakeFiles/kiibohd.dir/Output/USB/output_com.c.obj
 .group         0x0000000000000000        0xc CMakeFiles/kiibohd.dir/Output/USB/output_com.c.obj
 .group         0x0000000000000000        0xc CMakeFiles/kiibohd.dir/Output/USB/output_com.c.obj
 .group         0x0000000000000000        0xc CMakeFiles/kiibohd.dir/Output/USB/output_com.c.obj
 .group         0x0000000000000000        0xc CMakeFiles/kiibohd.dir/Output/USB/output_com.c.obj
 .group         0x0000000000000000        0xc CMakeFiles/kiibohd.dir/Output/USB/output_com.c.obj
 .group         0x0000000000000000        0xc CMakeFiles/kiibohd.dir/Output/USB/output_com.c.obj
 .group         0x0000000000000000        0xc CMakeFiles/kiibohd.dir/Output/USB/output_com.c.obj
 .group         0x0000000000000000        0xc CMakeFiles/kiibohd.dir/Output/USB/output_com.c.obj
 .group         0x0000000000000000        0xc CMakeFiles/kiibohd.dir/Output/USB/output_com.c.obj
 .group         0x0000000000000000        0xc CMakeFiles/kiibohd.dir/Output/USB/output_com.c.obj
 .group         0x0000000000000000        0xc CMakeFiles/kiibohd.dir/Output/USB/output_com.c.obj
 .group         0x0000000000000000        0xc CMakeFiles/kiibohd.dir/Output/USB/output_com.c.obj
 .group         0x0000000000000000        0xc CMakeFiles/kiibohd.dir/Output/USB/output_com.c.obj
 .group         0x0000000000000000        0xc CMakeFiles/kiibohd.dir/Output/USB/output_com.c.obj
 .group         0x0000000000000000        0xc CMakeFiles/kiibohd.dir/Output/USB/output_com.c.obj
 .group         0x0000000000000000        0xc CMakeFiles/kiibohd.dir/Output/USB/output_com.c.obj
 .text          0x0000000000000000        0x0 CMakeFiles/kiibohd.dir/Output/USB/output_com.c.obj
 .data          0x0000000000000000        0x0 CMakeFiles/kiibohd.dir/Output/USB/output_com.c.obj
 .bss           0x0000000000000000        0x0 CMakeFiles/kiibohd.dir/Output/USB/output_com.c.obj
 .text.Output_putchar
                0x0000000000000000       0x24 CMakeFiles/kiibohd.dir/Output/USB/output_com.c.obj
 .debug_macro   0x0000000000000000      0xa60 CMakeFiles/kiibohd.dir/Output/USB/output_com.c.obj
 .debug_macro   0x0000000000000000       0x28 CMakeFiles/kiibohd.dir/Output/USB/output_com.c.obj
 .debug_macro   0x0000000000000000       0x1c CMakeFiles/kiibohd.dir/Output/USB/output_com.c.obj
 .debug_macro   0x0000000000000000       0x22 CMakeFiles/kiibohd.dir/Output/USB/output_com.c.obj
 .debug_macro   0x0000000000000000       0x8e CMakeFiles/kiibohd.dir/Output/USB/output_com.c.obj
 .debug_macro   0x0000000000000000       0x51 CMakeFiles/kiibohd.dir/Output/USB/output_com.c.obj
 .debug_macro   0x0000000000000000       0xef CMakeFiles/kiibohd.dir/Output/USB/output_com.c.obj
 .debug_macro   0x0000000000000000       0x6a CMakeFiles/kiibohd.dir/Output/USB/output_com.c.obj
 .debug_macro   0x0000000000000000      0x1df CMakeFiles/kiibohd.dir/Output/USB/output_com.c.obj
 .debug_macro   0x0000000000000000     0x5add CMakeFiles/kiibohd.dir/Output/USB/output_com.c.obj
 .debug_macro   0x0000000000000000       0x10 CMakeFiles/kiibohd.dir/Output/USB/output_com.c.obj
 .debug_macro   0x0000000000000000      0x2ea CMakeFiles/kiibohd.dir/Output/USB/output_com.c.obj
 .debug_macro   0x0000000000000000       0xbe CMakeFiles/kiibohd.dir/Output/USB/output_com.c.obj
 .debug_macro   0x0000000000000000       0x10 CMakeFiles/kiibohd.dir/Output/USB/output_com.c.obj
 .debug_macro   0x0000000000000000       0x9a CMakeFiles/kiibohd.dir/Output/USB/output_com.c.obj
 .debug_macro   0x0000000000000000     0x1334 CMakeFiles/kiibohd.dir/Output/USB/output_com.c.obj
 .debug_macro   0x0000000000000000       0x73 CMakeFiles/kiibohd.dir/Output/USB/output_com.c.obj
 .group         0x0000000000000000        0xc CMakeFiles/kiibohd.dir/Output/USB/output_usb.c.obj
 .group         0x0000000000000000        0xc CMakeFiles/kiibohd.dir/Output/USB/output_usb.c.obj
 .group         0x0000000000000000        0xc CMakeFiles/kiibohd.dir/Output/USB/output_usb.c.obj
 .group         0x0000000000000000        0xc CMakeFiles/kiibohd.dir/Output/USB/output_usb.c.obj
 .group         0x0000000000000000        0xc CMakeFiles/kiibohd.dir/Output/USB/output_usb.c.obj
 .group         0x0000000000000000        0xc CMakeFiles/kiibohd.dir/Output/USB/output_usb.c.obj
 .group         0x0000000000000000        0xc CMakeFiles/kiibohd.dir/Output/USB/output_usb.c.obj
 .group         0x0000000000000000        0xc CMakeFiles/kiibohd.dir/Output/USB/output_usb.c.obj
 .group         0x0000000000000000        0xc CMakeFiles/kiibohd.dir/Output/USB/output_usb.c.obj
 .group         0x0000000000000000        0xc CMakeFiles/kiibohd.dir/Output/USB/output_usb.c.obj
 .group         0x0000000000000000        0xc CMakeFiles/kiibohd.dir/Output/USB/output_usb.c.obj
 .group         0x0000000000000000        0xc CMakeFiles/kiibohd.dir/Output/USB/output_usb.c.obj
 .group         0x0000000000000000        0xc CMakeFiles/kiibohd.dir/Output/USB/output_usb.c.obj
 .group         0x0000000000000000        0xc CMakeFiles/kiibohd.dir/Output/USB/output_usb.c.obj
 .group         0x0000000000000000        0xc CMakeFiles/kiibohd.dir/Output/USB/output_usb.c.obj
 .group         0x0000000000000000        0xc CMakeFiles/kiibohd.dir/Output/USB/output_usb.c.obj
 .group         0x0000000000000000        0xc CMakeFiles/kiibohd.dir/Output/USB/output_usb.c.obj
 .group         0x0000000000000000        0xc CMakeFiles/kiibohd.dir/Output/USB/output_usb.c.obj
 .group         0x0000000000000000        0xc CMakeFiles/kiibohd.dir/Output/USB/output_usb.c.obj
 .group         0x0000000000000000        0xc CMakeFiles/kiibohd.dir/Output/USB/output_usb.c.obj
 .group         0x0000000000000000        0xc CMakeFiles/kiibohd.dir/Output/USB/output_usb.c.obj
 .group         0x0000000000000000        0xc CMakeFiles/kiibohd.dir/Output/USB/output_usb.c.obj
 .group         0x0000000000000000        0xc CMakeFiles/kiibohd.dir/Output/USB/output_usb.c.obj
 .group         0x0000000000000000        0xc CMakeFiles/kiibohd.dir/Output/USB/output_usb.c.obj
 .group         0x0000000000000000        0xc CMakeFiles/kiibohd.dir/Output/USB/output_usb.c.obj
 .group         0x0000000000000000        0xc CMakeFiles/kiibohd.dir/Output/USB/output_usb.c.obj
 .group         0x0000000000000000        0xc CMakeFiles/kiibohd.dir/Output/USB/output_usb.c.obj
 .group         0x0000000000000000        0xc CMakeFiles/kiibohd.dir/Output/USB/output_usb.c.obj
 .group         0x0000000000000000        0xc CMakeFiles/kiibohd.dir/Output/USB/output_usb.c.obj
 .text          0x0000000000000000        0x0 CMakeFiles/kiibohd.dir/Output/USB/output_usb.c.obj
 .data          0x0000000000000000        0x0 CMakeFiles/kiibohd.dir/Output/USB/output_usb.c.obj
 .bss           0x0000000000000000        0x0 CMakeFiles/kiibohd.dir/Output/USB/output_usb.c.obj
 .text.USB_suspend_status_update
                0x0000000000000000       0x20 CMakeFiles/kiibohd.dir/Output/USB/output_usb.c.obj
 .text.USB_putchar
                0x0000000000000000       0x24 CMakeFiles/kiibohd.dir/Output/USB/output_usb.c.obj
 .debug_macro   0x0000000000000000      0xa60 CMakeFiles/kiibohd.dir/Output/USB/output_usb.c.obj
 .debug_macro   0x0000000000000000       0x28 CMakeFiles/kiibohd.dir/Output/USB/output_usb.c.obj
 .debug_macro   0x0000000000000000       0x1c CMakeFiles/kiibohd.dir/Output/USB/output_usb.c.obj
 .debug_macro   0x0000000000000000       0x22 CMakeFiles/kiibohd.dir/Output/USB/output_usb.c.obj
 .debug_macro   0x0000000000000000       0x8e CMakeFiles/kiibohd.dir/Output/USB/output_usb.c.obj
 .debug_macro   0x0000000000000000       0x51 CMakeFiles/kiibohd.dir/Output/USB/output_usb.c.obj
 .debug_macro   0x0000000000000000       0xef CMakeFiles/kiibohd.dir/Output/USB/output_usb.c.obj
 .debug_macro   0x0000000000000000       0x6a CMakeFiles/kiibohd.dir/Output/USB/output_usb.c.obj
 .debug_macro   0x0000000000000000      0x1df CMakeFiles/kiibohd.dir/Output/USB/output_usb.c.obj
 .debug_macro   0x0000000000000000     0x5add CMakeFiles/kiibohd.dir/Output/USB/output_usb.c.obj
 .debug_macro   0x0000000000000000       0x10 CMakeFiles/kiibohd.dir/Output/USB/output_usb.c.obj
 .debug_macro   0x0000000000000000       0x10 CMakeFiles/kiibohd.dir/Output/USB/output_usb.c.obj
 .debug_macro   0x0000000000000000      0x2f1 CMakeFiles/kiibohd.dir/Output/USB/output_usb.c.obj
 .debug_macro   0x0000000000000000       0xbe CMakeFiles/kiibohd.dir/Output/USB/output_usb.c.obj
 .debug_macro   0x0000000000000000       0x10 CMakeFiles/kiibohd.dir/Output/USB/output_usb.c.obj
 .debug_macro   0x0000000000000000       0x3a CMakeFiles/kiibohd.dir/Output/USB/output_usb.c.obj
 .debug_macro   0x0000000000000000       0x9a CMakeFiles/kiibohd.dir/Output/USB/output_usb.c.obj
 .debug_macro   0x0000000000000000      0x174 CMakeFiles/kiibohd.dir/Output/USB/output_usb.c.obj
 .debug_macro   0x0000000000000000     0x133d CMakeFiles/kiibohd.dir/Output/USB/output_usb.c.obj
 .debug_macro   0x0000000000000000       0x73 CMakeFiles/kiibohd.dir/Output/USB/output_usb.c.obj
 .group         0x0000000000000000        0xc CMakeFiles/kiibohd.dir/Output/USB/arm/usb_desc.c.obj
 .group         0x0000000000000000        0xc CMakeFiles/kiibohd.dir/Output/USB/arm/usb_desc.c.obj
 .group         0x0000000000000000        0xc CMakeFiles/kiibohd.dir/Output/USB/arm/usb_desc.c.obj
 .group         0x0000000000000000        0xc CMakeFiles/kiibohd.dir/Output/USB/arm/usb_desc.c.obj
 .group         0x0000000000000000        0xc CMakeFiles/kiibohd.dir/Output/USB/arm/usb_desc.c.obj
 .group         0x0000000000000000        0xc CMakeFiles/kiibohd.dir/Output/USB/arm/usb_desc.c.obj
 .group         0x0000000000000000        0xc CMakeFiles/kiibohd.dir/Output/USB/arm/usb_desc.c.obj
 .group         0x0000000000000000        0xc CMakeFiles/kiibohd.dir/Output/USB/arm/usb_desc.c.obj
 .group         0x0000000000000000        0xc CMakeFiles/kiibohd.dir/Output/USB/arm/usb_desc.c.obj
 .group         0x0000000000000000        0xc CMakeFiles/kiibohd.dir/Output/USB/arm/usb_desc.c.obj
 .group         0x0000000000000000        0xc CMakeFiles/kiibohd.dir/Output/USB/arm/usb_desc.c.obj
 .group         0x0000000000000000        0xc CMakeFiles/kiibohd.dir/Output/USB/arm/usb_desc.c.obj
 .group         0x0000000000000000        0xc CMakeFiles/kiibohd.dir/Output/USB/arm/usb_desc.c.obj
 .group         0x0000000000000000        0xc CMakeFiles/kiibohd.dir/Output/USB/arm/usb_desc.c.obj
 .text          0x0000000000000000        0x0 CMakeFiles/kiibohd.dir/Output/USB/arm/usb_desc.c.obj
 .data          0x0000000000000000        0x0 CMakeFiles/kiibohd.dir/Output/USB/arm/usb_desc.c.obj
 .bss           0x0000000000000000        0x0 CMakeFiles/kiibohd.dir/Output/USB/arm/usb_desc.c.obj
 .debug_macro   0x0000000000000000      0xa60 CMakeFiles/kiibohd.dir/Output/USB/arm/usb_desc.c.obj
 .debug_macro   0x0000000000000000       0x28 CMakeFiles/kiibohd.dir/Output/USB/arm/usb_desc.c.obj
 .debug_macro   0x0000000000000000       0x22 CMakeFiles/kiibohd.dir/Output/USB/arm/usb_desc.c.obj
 .debug_macro   0x0000000000000000       0x8e CMakeFiles/kiibohd.dir/Output/USB/arm/usb_desc.c.obj
 .debug_macro   0x0000000000000000       0x51 CMakeFiles/kiibohd.dir/Output/USB/arm/usb_desc.c.obj
 .debug_macro   0x0000000000000000       0xef CMakeFiles/kiibohd.dir/Output/USB/arm/usb_desc.c.obj
 .debug_macro   0x0000000000000000       0x6a CMakeFiles/kiibohd.dir/Output/USB/arm/usb_desc.c.obj
 .debug_macro   0x0000000000000000      0x1df CMakeFiles/kiibohd.dir/Output/USB/arm/usb_desc.c.obj
 .debug_macro   0x0000000000000000       0xbe CMakeFiles/kiibohd.dir/Output/USB/arm/usb_desc.c.obj
 .debug_macro   0x0000000000000000       0x10 CMakeFiles/kiibohd.dir/Output/USB/arm/usb_desc.c.obj
 .debug_macro   0x0000000000000000       0x22 CMakeFiles/kiibohd.dir/Output/USB/arm/usb_desc.c.obj
 .debug_macro   0x0000000000000000      0x174 CMakeFiles/kiibohd.dir/Output/USB/arm/usb_desc.c.obj
 .debug_macro   0x0000000000000000      0x219 CMakeFiles/kiibohd.dir/Output/USB/arm/usb_desc.c.obj
 .debug_macro   0x0000000000000000      0x2f1 CMakeFiles/kiibohd.dir/Output/USB/arm/usb_desc.c.obj
 .group         0x0000000000000000        0xc CMakeFiles/kiibohd.dir/Output/USB/arm/usb_dev.c.obj
 .group         0x0000000000000000        0xc CMakeFiles/kiibohd.dir/Output/USB/arm/usb_dev.c.obj
 .group         0x0000000000000000        0xc CMakeFiles/kiibohd.dir/Output/USB/arm/usb_dev.c.obj
 .group         0x0000000000000000        0xc CMakeFiles/kiibohd.dir/Output/USB/arm/usb_dev.c.obj
 .group         0x0000000000000000        0xc CMakeFiles/kiibohd.dir/Output/USB/arm/usb_dev.c.obj
 .group         0x0000000000000000        0xc CMakeFiles/kiibohd.dir/Output/USB/arm/usb_dev.c.obj
 .group         0x0000000000000000        0xc CMakeFiles/kiibohd.dir/Output/USB/arm/usb_dev.c.obj
 .group         0x0000000000000000        0xc CMakeFiles/kiibohd.dir/Output/USB/arm/usb_dev.c.obj
 .group         0x0000000000000000        0xc CMakeFiles/kiibohd.dir/Output/USB/arm/usb_dev.c.obj
 .group         0x0000000000000000        0xc CMakeFiles/kiibohd.dir/Output/USB/arm/usb_dev.c.obj
 .group         0x0000000000000000        0xc CMakeFiles/kiibohd.dir/Output/USB/arm/usb_dev.c.obj
 .group         0x0000000000000000        0xc CMakeFiles/kiibohd.dir/Output/USB/arm/usb_dev.c.obj
 .group         0x0000000000000000        0xc CMakeFiles/kiibohd.dir/Output/USB/arm/usb_dev.c.obj
 .group         0x0000000000000000        0xc CMakeFiles/kiibohd.dir/Output/USB/arm/usb_dev.c.obj
 .group         0x0000000000000000        0xc CMakeFiles/kiibohd.dir/Output/USB/arm/usb_dev.c.obj
 .group         0x0000000000000000        0xc CMakeFiles/kiibohd.dir/Output/USB/arm/usb_dev.c.obj
 .group         0x0000000000000000        0xc CMakeFiles/kiibohd.dir/Output/USB/arm/usb_dev.c.obj
 .group         0x0000000000000000        0xc CMakeFiles/kiibohd.dir/Output/USB/arm/usb_dev.c.obj
 .group         0x0000000000000000        0xc CMakeFiles/kiibohd.dir/Output/USB/arm/usb_dev.c.obj
 .group         0x0000000000000000        0xc CMakeFiles/kiibohd.dir/Output/USB/arm/usb_dev.c.obj
 .group         0x0000000000000000        0xc CMakeFiles/kiibohd.dir/Output/USB/arm/usb_dev.c.obj
 .group         0x0000000000000000        0xc CMakeFiles/kiibohd.dir/Output/USB/arm/usb_dev.c.obj
 .group         0x0000000000000000        0xc CMakeFiles/kiibohd.dir/Output/USB/arm/usb_dev.c.obj
 .group         0x0000000000000000        0xc CMakeFiles/kiibohd.dir/Output/USB/arm/usb_dev.c.obj
 .group         0x0000000000000000        0xc CMakeFiles/kiibohd.dir/Output/USB/arm/usb_dev.c.obj
 .text          0x0000000000000000        0x0 CMakeFiles/kiibohd.dir/Output/USB/arm/usb_dev.c.obj
 .data          0x0000000000000000        0x0 CMakeFiles/kiibohd.dir/Output/USB/arm/usb_dev.c.obj
 .bss           0x0000000000000000        0x0 CMakeFiles/kiibohd.dir/Output/USB/arm/usb_dev.c.obj
 .text.usb_tx_byte_count
                0x0000000000000000       0x44 CMakeFiles/kiibohd.dir/Output/USB/arm/usb_dev.c.obj
 .text.usb_suspended
                0x0000000000000000       0x28 CMakeFiles/kiibohd.dir/Output/USB/arm/usb_dev.c.obj
 .text.usb_set_sleep_state
                0x0000000000000000       0x38 CMakeFiles/kiibohd.dir/Output/USB/arm/usb_dev.c.obj
 .text.usb_reinit
                0x0000000000000000       0x3c CMakeFiles/kiibohd.dir/Output/USB/arm/usb_dev.c.obj
 .debug_macro   0x0000000000000000      0xa60 CMakeFiles/kiibohd.dir/Output/USB/arm/usb_dev.c.obj
 .debug_macro   0x0000000000000000       0x28 CMakeFiles/kiibohd.dir/Output/USB/arm/usb_dev.c.obj
 .debug_macro   0x0000000000000000       0x1c CMakeFiles/kiibohd.dir/Output/USB/arm/usb_dev.c.obj
 .debug_macro   0x0000000000000000       0x22 CMakeFiles/kiibohd.dir/Output/USB/arm/usb_dev.c.obj
 .debug_macro   0x0000000000000000       0x8e CMakeFiles/kiibohd.dir/Output/USB/arm/usb_dev.c.obj
 .debug_macro   0x0000000000000000       0x51 CMakeFiles/kiibohd.dir/Output/USB/arm/usb_dev.c.obj
 .debug_macro   0x0000000000000000       0xef CMakeFiles/kiibohd.dir/Output/USB/arm/usb_dev.c.obj
 .debug_macro   0x0000000000000000       0x6a CMakeFiles/kiibohd.dir/Output/USB/arm/usb_dev.c.obj
 .debug_macro   0x0000000000000000      0x1df CMakeFiles/kiibohd.dir/Output/USB/arm/usb_dev.c.obj
 .debug_macro   0x0000000000000000     0x5add CMakeFiles/kiibohd.dir/Output/USB/arm/usb_dev.c.obj
 .debug_macro   0x0000000000000000       0x10 CMakeFiles/kiibohd.dir/Output/USB/arm/usb_dev.c.obj
 .debug_macro   0x0000000000000000      0x2f1 CMakeFiles/kiibohd.dir/Output/USB/arm/usb_dev.c.obj
 .debug_macro   0x0000000000000000       0xbe CMakeFiles/kiibohd.dir/Output/USB/arm/usb_dev.c.obj
 .debug_macro   0x0000000000000000       0x10 CMakeFiles/kiibohd.dir/Output/USB/arm/usb_dev.c.obj
 .debug_macro   0x0000000000000000       0x9a CMakeFiles/kiibohd.dir/Output/USB/arm/usb_dev.c.obj
 .debug_macro   0x0000000000000000       0x22 CMakeFiles/kiibohd.dir/Output/USB/arm/usb_dev.c.obj
 .debug_macro   0x0000000000000000      0x174 CMakeFiles/kiibohd.dir/Output/USB/arm/usb_dev.c.obj
 .debug_macro   0x0000000000000000      0x219 CMakeFiles/kiibohd.dir/Output/USB/arm/usb_dev.c.obj
 .debug_macro   0x0000000000000000       0x5e CMakeFiles/kiibohd.dir/Output/USB/arm/usb_dev.c.obj
 .debug_macro   0x0000000000000000       0x18 CMakeFiles/kiibohd.dir/Output/USB/arm/usb_dev.c.obj
 .debug_macro   0x0000000000000000       0x35 CMakeFiles/kiibohd.dir/Output/USB/arm/usb_dev.c.obj
 .debug_macro   0x0000000000000000       0x3a CMakeFiles/kiibohd.dir/Output/USB/arm/usb_dev.c.obj
 .debug_macro   0x0000000000000000       0x35 CMakeFiles/kiibohd.dir/Output/USB/arm/usb_dev.c.obj
 .debug_macro   0x0000000000000000      0x4cc CMakeFiles/kiibohd.dir/Output/USB/arm/usb_dev.c.obj
 .debug_macro   0x0000000000000000       0x22 CMakeFiles/kiibohd.dir/Output/USB/arm/usb_dev.c.obj
 .group         0x0000000000000000        0xc CMakeFiles/kiibohd.dir/Output/USB/arm/usb_joystick.c.obj
 .text          0x0000000000000000        0x0 CMakeFiles/kiibohd.dir/Output/USB/arm/usb_joystick.c.obj
 .data          0x0000000000000000        0x0 CMakeFiles/kiibohd.dir/Output/USB/arm/usb_joystick.c.obj
 .bss           0x0000000000000000        0x0 CMakeFiles/kiibohd.dir/Output/USB/arm/usb_joystick.c.obj
 .debug_info    0x0000000000000000       0x21 CMakeFiles/kiibohd.dir/Output/USB/arm/usb_joystick.c.obj
 .debug_abbrev  0x0000000000000000       0x13 CMakeFiles/kiibohd.dir/Output/USB/arm/usb_joystick.c.obj
 .debug_aranges
                0x0000000000000000       0x18 CMakeFiles/kiibohd.dir/Output/USB/arm/usb_joystick.c.obj
 .debug_macro   0x0000000000000000       0x11 CMakeFiles/kiibohd.dir/Output/USB/arm/usb_joystick.c.obj
 .debug_macro   0x0000000000000000      0xa60 CMakeFiles/kiibohd.dir/Output/USB/arm/usb_joystick.c.obj
 .debug_line    0x0000000000000000       0x7e CMakeFiles/kiibohd.dir/Output/USB/arm/usb_joystick.c.obj
 .debug_str     0x0000000000000000     0x2d78 CMakeFiles/kiibohd.dir/Output/USB/arm/usb_joystick.c.obj
 .comment       0x0000000000000000       0x80 CMakeFiles/kiibohd.dir/Output/USB/arm/usb_joystick.c.obj
 .ARM.attributes
                0x0000000000000000       0x33 CMakeFiles/kiibohd.dir/Output/USB/arm/usb_joystick.c.obj
 .group         0x0000000000000000        0xc CMakeFiles/kiibohd.dir/Output/USB/arm/usb_keyboard.c.obj
 .group         0x0000000000000000        0xc CMakeFiles/kiibohd.dir/Output/USB/arm/usb_keyboard.c.obj
 .group         0x0000000000000000        0xc CMakeFiles/kiibohd.dir/Output/USB/arm/usb_keyboard.c.obj
 .group         0x0000000000000000        0xc CMakeFiles/kiibohd.dir/Output/USB/arm/usb_keyboard.c.obj
 .group         0x0000000000000000        0xc CMakeFiles/kiibohd.dir/Output/USB/arm/usb_keyboard.c.obj
 .group         0x0000000000000000        0xc CMakeFiles/kiibohd.dir/Output/USB/arm/usb_keyboard.c.obj
 .group         0x0000000000000000        0xc CMakeFiles/kiibohd.dir/Output/USB/arm/usb_keyboard.c.obj
 .group         0x0000000000000000        0xc CMakeFiles/kiibohd.dir/Output/USB/arm/usb_keyboard.c.obj
 .group         0x0000000000000000        0xc CMakeFiles/kiibohd.dir/Output/USB/arm/usb_keyboard.c.obj
 .group         0x0000000000000000        0xc CMakeFiles/kiibohd.dir/Output/USB/arm/usb_keyboard.c.obj
 .group         0x0000000000000000        0xc CMakeFiles/kiibohd.dir/Output/USB/arm/usb_keyboard.c.obj
 .group         0x0000000000000000        0xc CMakeFiles/kiibohd.dir/Output/USB/arm/usb_keyboard.c.obj
 .group         0x0000000000000000        0xc CMakeFiles/kiibohd.dir/Output/USB/arm/usb_keyboard.c.obj
 .group         0x0000000000000000        0xc CMakeFiles/kiibohd.dir/Output/USB/arm/usb_keyboard.c.obj
 .group         0x0000000000000000        0xc CMakeFiles/kiibohd.dir/Output/USB/arm/usb_keyboard.c.obj
 .group         0x0000000000000000        0xc CMakeFiles/kiibohd.dir/Output/USB/arm/usb_keyboard.c.obj
 .group         0x0000000000000000        0xc CMakeFiles/kiibohd.dir/Output/USB/arm/usb_keyboard.c.obj
 .group         0x0000000000000000        0xc CMakeFiles/kiibohd.dir/Output/USB/arm/usb_keyboard.c.obj
 .group         0x0000000000000000        0xc CMakeFiles/kiibohd.dir/Output/USB/arm/usb_keyboard.c.obj
 .group         0x0000000000000000        0xc CMakeFiles/kiibohd.dir/Output/USB/arm/usb_keyboard.c.obj
 .group         0x0000000000000000        0xc CMakeFiles/kiibohd.dir/Output/USB/arm/usb_keyboard.c.obj
 .group         0x0000000000000000        0xc CMakeFiles/kiibohd.dir/Output/USB/arm/usb_keyboard.c.obj
 .group         0x0000000000000000        0xc CMakeFiles/kiibohd.dir/Output/USB/arm/usb_keyboard.c.obj
 .group         0x0000000000000000        0xc CMakeFiles/kiibohd.dir/Output/USB/arm/usb_keyboard.c.obj
 .group         0x0000000000000000        0xc CMakeFiles/kiibohd.dir/Output/USB/arm/usb_keyboard.c.obj
 .group         0x0000000000000000        0xc CMakeFiles/kiibohd.dir/Output/USB/arm/usb_keyboard.c.obj
 .group         0x0000000000000000        0xc CMakeFiles/kiibohd.dir/Output/USB/arm/usb_keyboard.c.obj
 .group         0x0000000000000000        0xc CMakeFiles/kiibohd.dir/Output/USB/arm/usb_keyboard.c.obj
 .group         0x0000000000000000        0xc CMakeFiles/kiibohd.dir/Output/USB/arm/usb_keyboard.c.obj
 .group         0x0000000000000000        0xc CMakeFiles/kiibohd.dir/Output/USB/arm/usb_keyboard.c.obj
 .group         0x0000000000000000        0xc CMakeFiles/kiibohd.dir/Output/USB/arm/usb_keyboard.c.obj
 .group         0x0000000000000000        0xc CMakeFiles/kiibohd.dir/Output/USB/arm/usb_keyboard.c.obj
 .text          0x0000000000000000        0x0 CMakeFiles/kiibohd.dir/Output/USB/arm/usb_keyboard.c.obj
 .data          0x0000000000000000        0x0 CMakeFiles/kiibohd.dir/Output/USB/arm/usb_keyboard.c.obj
 .bss           0x0000000000000000        0x0 CMakeFiles/kiibohd.dir/Output/USB/arm/usb_keyboard.c.obj
 .debug_macro   0x0000000000000000      0xa60 CMakeFiles/kiibohd.dir/Output/USB/arm/usb_keyboard.c.obj
 .debug_macro   0x0000000000000000      0x2f1 CMakeFiles/kiibohd.dir/Output/USB/arm/usb_keyboard.c.obj
 .debug_macro   0x0000000000000000       0x22 CMakeFiles/kiibohd.dir/Output/USB/arm/usb_keyboard.c.obj
 .debug_macro   0x0000000000000000       0x18 CMakeFiles/kiibohd.dir/Output/USB/arm/usb_keyboard.c.obj
 .debug_macro   0x0000000000000000       0x35 CMakeFiles/kiibohd.dir/Output/USB/arm/usb_keyboard.c.obj
 .debug_macro   0x0000000000000000      0x174 CMakeFiles/kiibohd.dir/Output/USB/arm/usb_keyboard.c.obj
 .debug_macro   0x0000000000000000       0x35 CMakeFiles/kiibohd.dir/Output/USB/arm/usb_keyboard.c.obj
 .debug_macro   0x0000000000000000       0x28 CMakeFiles/kiibohd.dir/Output/USB/arm/usb_keyboard.c.obj
 .debug_macro   0x0000000000000000       0x16 CMakeFiles/kiibohd.dir/Output/USB/arm/usb_keyboard.c.obj
 .debug_macro   0x0000000000000000       0xef CMakeFiles/kiibohd.dir/Output/USB/arm/usb_keyboard.c.obj
 .debug_macro   0x0000000000000000       0x6a CMakeFiles/kiibohd.dir/Output/USB/arm/usb_keyboard.c.obj
 .debug_macro   0x0000000000000000      0x1df CMakeFiles/kiibohd.dir/Output/USB/arm/usb_keyboard.c.obj
 .debug_macro   0x0000000000000000     0x5add CMakeFiles/kiibohd.dir/Output/USB/arm/usb_keyboard.c.obj
 .debug_macro   0x0000000000000000       0x10 CMakeFiles/kiibohd.dir/Output/USB/arm/usb_keyboard.c.obj
 .debug_macro   0x0000000000000000       0xbe CMakeFiles/kiibohd.dir/Output/USB/arm/usb_keyboard.c.obj
 .debug_macro   0x0000000000000000       0x10 CMakeFiles/kiibohd.dir/Output/USB/arm/usb_keyboard.c.obj
 .debug_macro   0x0000000000000000       0x9a CMakeFiles/kiibohd.dir/Output/USB/arm/usb_keyboard.c.obj
 .debug_macro   0x0000000000000000       0x22 CMakeFiles/kiibohd.dir/Output/USB/arm/usb_keyboard.c.obj
 .debug_macro   0x0000000000000000      0x219 CMakeFiles/kiibohd.dir/Output/USB/arm/usb_keyboard.c.obj
 .debug_macro   0x0000000000000000      0x4cc CMakeFiles/kiibohd.dir/Output/USB/arm/usb_keyboard.c.obj
 .group         0x0000000000000000        0xc CMakeFiles/kiibohd.dir/Output/USB/arm/usb_mem.c.obj
 .group         0x0000000000000000        0xc CMakeFiles/kiibohd.dir/Output/USB/arm/usb_mem.c.obj
 .group         0x0000000000000000        0xc CMakeFiles/kiibohd.dir/Output/USB/arm/usb_mem.c.obj
 .group         0x0000000000000000        0xc CMakeFiles/kiibohd.dir/Output/USB/arm/usb_mem.c.obj
 .group         0x0000000000000000        0xc CMakeFiles/kiibohd.dir/Output/USB/arm/usb_mem.c.obj
 .group         0x0000000000000000        0xc CMakeFiles/kiibohd.dir/Output/USB/arm/usb_mem.c.obj
 .group         0x0000000000000000        0xc CMakeFiles/kiibohd.dir/Output/USB/arm/usb_mem.c.obj
 .group         0x0000000000000000        0xc CMakeFiles/kiibohd.dir/Output/USB/arm/usb_mem.c.obj
 .group         0x0000000000000000        0xc CMakeFiles/kiibohd.dir/Output/USB/arm/usb_mem.c.obj
 .group         0x0000000000000000        0xc CMakeFiles/kiibohd.dir/Output/USB/arm/usb_mem.c.obj
 .group         0x0000000000000000        0xc CMakeFiles/kiibohd.dir/Output/USB/arm/usb_mem.c.obj
 .group         0x0000000000000000        0xc CMakeFiles/kiibohd.dir/Output/USB/arm/usb_mem.c.obj
 .group         0x0000000000000000        0xc CMakeFiles/kiibohd.dir/Output/USB/arm/usb_mem.c.obj
 .group         0x0000000000000000        0xc CMakeFiles/kiibohd.dir/Output/USB/arm/usb_mem.c.obj
 .text          0x0000000000000000        0x0 CMakeFiles/kiibohd.dir/Output/USB/arm/usb_mem.c.obj
 .data          0x0000000000000000        0x0 CMakeFiles/kiibohd.dir/Output/USB/arm/usb_mem.c.obj
 .bss           0x0000000000000000        0x0 CMakeFiles/kiibohd.dir/Output/USB/arm/usb_mem.c.obj
 .debug_macro   0x0000000000000000      0xa60 CMakeFiles/kiibohd.dir/Output/USB/arm/usb_mem.c.obj
 .debug_macro   0x0000000000000000       0x28 CMakeFiles/kiibohd.dir/Output/USB/arm/usb_mem.c.obj
 .debug_macro   0x0000000000000000       0x1c CMakeFiles/kiibohd.dir/Output/USB/arm/usb_mem.c.obj
 .debug_macro   0x0000000000000000       0x22 CMakeFiles/kiibohd.dir/Output/USB/arm/usb_mem.c.obj
 .debug_macro   0x0000000000000000       0x8e CMakeFiles/kiibohd.dir/Output/USB/arm/usb_mem.c.obj
 .debug_macro   0x0000000000000000       0x51 CMakeFiles/kiibohd.dir/Output/USB/arm/usb_mem.c.obj
 .debug_macro   0x0000000000000000       0xef CMakeFiles/kiibohd.dir/Output/USB/arm/usb_mem.c.obj
 .debug_macro   0x0000000000000000       0x6a CMakeFiles/kiibohd.dir/Output/USB/arm/usb_mem.c.obj
 .debug_macro   0x0000000000000000      0x1df CMakeFiles/kiibohd.dir/Output/USB/arm/usb_mem.c.obj
 .debug_macro   0x0000000000000000     0x5add CMakeFiles/kiibohd.dir/Output/USB/arm/usb_mem.c.obj
 .debug_macro   0x0000000000000000       0x10 CMakeFiles/kiibohd.dir/Output/USB/arm/usb_mem.c.obj
 .debug_macro   0x0000000000000000       0x22 CMakeFiles/kiibohd.dir/Output/USB/arm/usb_mem.c.obj
 .debug_macro   0x0000000000000000      0x174 CMakeFiles/kiibohd.dir/Output/USB/arm/usb_mem.c.obj
 .debug_macro   0x0000000000000000      0x219 CMakeFiles/kiibohd.dir/Output/USB/arm/usb_mem.c.obj
 .group         0x0000000000000000        0xc CMakeFiles/kiibohd.dir/Output/USB/arm/usb_mouse.c.obj
 .group         0x0000000000000000        0xc CMakeFiles/kiibohd.dir/Output/USB/arm/usb_mouse.c.obj
 .group         0x0000000000000000        0xc CMakeFiles/kiibohd.dir/Output/USB/arm/usb_mouse.c.obj
 .group         0x0000000000000000        0xc CMakeFiles/kiibohd.dir/Output/USB/arm/usb_mouse.c.obj
 .group         0x0000000000000000        0xc CMakeFiles/kiibohd.dir/Output/USB/arm/usb_mouse.c.obj
 .group         0x0000000000000000        0xc CMakeFiles/kiibohd.dir/Output/USB/arm/usb_mouse.c.obj
 .group         0x0000000000000000        0xc CMakeFiles/kiibohd.dir/Output/USB/arm/usb_mouse.c.obj
 .group         0x0000000000000000        0xc CMakeFiles/kiibohd.dir/Output/USB/arm/usb_mouse.c.obj
 .group         0x0000000000000000        0xc CMakeFiles/kiibohd.dir/Output/USB/arm/usb_mouse.c.obj
 .group         0x0000000000000000        0xc CMakeFiles/kiibohd.dir/Output/USB/arm/usb_mouse.c.obj
 .group         0x0000000000000000        0xc CMakeFiles/kiibohd.dir/Output/USB/arm/usb_mouse.c.obj
 .group         0x0000000000000000        0xc CMakeFiles/kiibohd.dir/Output/USB/arm/usb_mouse.c.obj
 .group         0x0000000000000000        0xc CMakeFiles/kiibohd.dir/Output/USB/arm/usb_mouse.c.obj
 .group         0x0000000000000000        0xc CMakeFiles/kiibohd.dir/Output/USB/arm/usb_mouse.c.obj
 .group         0x0000000000000000        0xc CMakeFiles/kiibohd.dir/Output/USB/arm/usb_mouse.c.obj
 .group         0x0000000000000000        0xc CMakeFiles/kiibohd.dir/Output/USB/arm/usb_mouse.c.obj
 .group         0x0000000000000000        0xc CMakeFiles/kiibohd.dir/Output/USB/arm/usb_mouse.c.obj
 .group         0x0000000000000000        0xc CMakeFiles/kiibohd.dir/Output/USB/arm/usb_mouse.c.obj
 .group         0x0000000000000000        0xc CMakeFiles/kiibohd.dir/Output/USB/arm/usb_mouse.c.obj
 .group         0x0000000000000000        0xc CMakeFiles/kiibohd.dir/Output/USB/arm/usb_mouse.c.obj
 .group         0x0000000000000000        0xc CMakeFiles/kiibohd.dir/Output/USB/arm/usb_mouse.c.obj
 .group         0x0000000000000000        0xc CMakeFiles/kiibohd.dir/Output/USB/arm/usb_mouse.c.obj
 .group         0x0000000000000000        0xc CMakeFiles/kiibohd.dir/Output/USB/arm/usb_mouse.c.obj
 .group         0x0000000000000000        0xc CMakeFiles/kiibohd.dir/Output/USB/arm/usb_mouse.c.obj
 .group         0x0000000000000000        0xc CMakeFiles/kiibohd.dir/Output/USB/arm/usb_mouse.c.obj
 .group         0x0000000000000000        0xc CMakeFiles/kiibohd.dir/Output/USB/arm/usb_mouse.c.obj
 .group         0x0000000000000000        0xc CMakeFiles/kiibohd.dir/Output/USB/arm/usb_mouse.c.obj
 .group         0x0000000000000000        0xc CMakeFiles/kiibohd.dir/Output/USB/arm/usb_mouse.c.obj
 .group         0x0000000000000000        0xc CMakeFiles/kiibohd.dir/Output/USB/arm/usb_mouse.c.obj
 .group         0x0000000000000000        0xc CMakeFiles/kiibohd.dir/Output/USB/arm/usb_mouse.c.obj
 .group         0x0000000000000000        0xc CMakeFiles/kiibohd.dir/Output/USB/arm/usb_mouse.c.obj
 .group         0x0000000000000000        0xc CMakeFiles/kiibohd.dir/Output/USB/arm/usb_mouse.c.obj
 .text          0x0000000000000000        0x0 CMakeFiles/kiibohd.dir/Output/USB/arm/usb_mouse.c.obj
 .data          0x0000000000000000        0x0 CMakeFiles/kiibohd.dir/Output/USB/arm/usb_mouse.c.obj
 .bss           0x0000000000000000        0x0 CMakeFiles/kiibohd.dir/Output/USB/arm/usb_mouse.c.obj
 .debug_macro   0x0000000000000000      0xa60 CMakeFiles/kiibohd.dir/Output/USB/arm/usb_mouse.c.obj
 .debug_macro   0x0000000000000000      0x2f1 CMakeFiles/kiibohd.dir/Output/USB/arm/usb_mouse.c.obj
 .debug_macro   0x0000000000000000       0x22 CMakeFiles/kiibohd.dir/Output/USB/arm/usb_mouse.c.obj
 .debug_macro   0x0000000000000000       0x58 CMakeFiles/kiibohd.dir/Output/USB/arm/usb_mouse.c.obj
 .debug_macro   0x0000000000000000       0x18 CMakeFiles/kiibohd.dir/Output/USB/arm/usb_mouse.c.obj
 .debug_macro   0x0000000000000000       0x94 CMakeFiles/kiibohd.dir/Output/USB/arm/usb_mouse.c.obj
 .debug_macro   0x0000000000000000       0x35 CMakeFiles/kiibohd.dir/Output/USB/arm/usb_mouse.c.obj
 .debug_macro   0x0000000000000000       0x34 CMakeFiles/kiibohd.dir/Output/USB/arm/usb_mouse.c.obj
 .debug_macro   0x0000000000000000      0x174 CMakeFiles/kiibohd.dir/Output/USB/arm/usb_mouse.c.obj
 .debug_macro   0x0000000000000000       0x57 CMakeFiles/kiibohd.dir/Output/USB/arm/usb_mouse.c.obj
 .debug_macro   0x0000000000000000       0x58 CMakeFiles/kiibohd.dir/Output/USB/arm/usb_mouse.c.obj
 .debug_macro   0x0000000000000000       0x1f CMakeFiles/kiibohd.dir/Output/USB/arm/usb_mouse.c.obj
 .debug_macro   0x0000000000000000       0x43 CMakeFiles/kiibohd.dir/Output/USB/arm/usb_mouse.c.obj
 .debug_macro   0x0000000000000000       0x20 CMakeFiles/kiibohd.dir/Output/USB/arm/usb_mouse.c.obj
 .debug_macro   0x0000000000000000      0x18e CMakeFiles/kiibohd.dir/Output/USB/arm/usb_mouse.c.obj
 .debug_macro   0x0000000000000000      0x330 CMakeFiles/kiibohd.dir/Output/USB/arm/usb_mouse.c.obj
 .debug_macro   0x0000000000000000       0x10 CMakeFiles/kiibohd.dir/Output/USB/arm/usb_mouse.c.obj
 .debug_macro   0x0000000000000000       0x35 CMakeFiles/kiibohd.dir/Output/USB/arm/usb_mouse.c.obj
 .debug_macro   0x0000000000000000       0x28 CMakeFiles/kiibohd.dir/Output/USB/arm/usb_mouse.c.obj
 .debug_macro   0x0000000000000000       0x16 CMakeFiles/kiibohd.dir/Output/USB/arm/usb_mouse.c.obj
 .debug_macro   0x0000000000000000       0xef CMakeFiles/kiibohd.dir/Output/USB/arm/usb_mouse.c.obj
 .debug_macro   0x0000000000000000       0x6a CMakeFiles/kiibohd.dir/Output/USB/arm/usb_mouse.c.obj
 .debug_macro   0x0000000000000000      0x1df CMakeFiles/kiibohd.dir/Output/USB/arm/usb_mouse.c.obj
 .debug_macro   0x0000000000000000     0x5add CMakeFiles/kiibohd.dir/Output/USB/arm/usb_mouse.c.obj
 .debug_macro   0x0000000000000000       0x10 CMakeFiles/kiibohd.dir/Output/USB/arm/usb_mouse.c.obj
 .debug_macro   0x0000000000000000       0xbe CMakeFiles/kiibohd.dir/Output/USB/arm/usb_mouse.c.obj
 .debug_macro   0x0000000000000000       0x10 CMakeFiles/kiibohd.dir/Output/USB/arm/usb_mouse.c.obj
 .debug_macro   0x0000000000000000       0x9a CMakeFiles/kiibohd.dir/Output/USB/arm/usb_mouse.c.obj
 .debug_macro   0x0000000000000000       0x22 CMakeFiles/kiibohd.dir/Output/USB/arm/usb_mouse.c.obj
 .debug_macro   0x0000000000000000      0x219 CMakeFiles/kiibohd.dir/Output/USB/arm/usb_mouse.c.obj
 .debug_macro   0x0000000000000000       0x10 CMakeFiles/kiibohd.dir/Output/USB/arm/usb_mouse.c.obj
 .debug_macro   0x0000000000000000      0x4cc CMakeFiles/kiibohd.dir/Output/USB/arm/usb_mouse.c.obj
 .group         0x0000000000000000        0xc CMakeFiles/kiibohd.dir/Output/USB/arm/usb_rawio.c.obj
 .group         0x0000000000000000        0xc CMakeFiles/kiibohd.dir/Output/USB/arm/usb_rawio.c.obj
 .group         0x0000000000000000        0xc CMakeFiles/kiibohd.dir/Output/USB/arm/usb_rawio.c.obj
 .group         0x0000000000000000        0xc CMakeFiles/kiibohd.dir/Output/USB/arm/usb_rawio.c.obj
 .group         0x0000000000000000        0xc CMakeFiles/kiibohd.dir/Output/USB/arm/usb_rawio.c.obj
 .group         0x0000000000000000        0xc CMakeFiles/kiibohd.dir/Output/USB/arm/usb_rawio.c.obj
 .group         0x0000000000000000        0xc CMakeFiles/kiibohd.dir/Output/USB/arm/usb_rawio.c.obj
 .group         0x0000000000000000        0xc CMakeFiles/kiibohd.dir/Output/USB/arm/usb_rawio.c.obj
 .group         0x0000000000000000        0xc CMakeFiles/kiibohd.dir/Output/USB/arm/usb_rawio.c.obj
 .group         0x0000000000000000        0xc CMakeFiles/kiibohd.dir/Output/USB/arm/usb_rawio.c.obj
 .group         0x0000000000000000        0xc CMakeFiles/kiibohd.dir/Output/USB/arm/usb_rawio.c.obj
 .group         0x0000000000000000        0xc CMakeFiles/kiibohd.dir/Output/USB/arm/usb_rawio.c.obj
 .group         0x0000000000000000        0xc CMakeFiles/kiibohd.dir/Output/USB/arm/usb_rawio.c.obj
 .group         0x0000000000000000        0xc CMakeFiles/kiibohd.dir/Output/USB/arm/usb_rawio.c.obj
 .group         0x0000000000000000        0xc CMakeFiles/kiibohd.dir/Output/USB/arm/usb_rawio.c.obj
 .group         0x0000000000000000        0xc CMakeFiles/kiibohd.dir/Output/USB/arm/usb_rawio.c.obj
 .group         0x0000000000000000        0xc CMakeFiles/kiibohd.dir/Output/USB/arm/usb_rawio.c.obj
 .group         0x0000000000000000        0xc CMakeFiles/kiibohd.dir/Output/USB/arm/usb_rawio.c.obj
 .group         0x0000000000000000        0xc CMakeFiles/kiibohd.dir/Output/USB/arm/usb_rawio.c.obj
 .group         0x0000000000000000        0xc CMakeFiles/kiibohd.dir/Output/USB/arm/usb_rawio.c.obj
 .group         0x0000000000000000        0xc CMakeFiles/kiibohd.dir/Output/USB/arm/usb_rawio.c.obj
 .group         0x0000000000000000        0xc CMakeFiles/kiibohd.dir/Output/USB/arm/usb_rawio.c.obj
 .group         0x0000000000000000        0xc CMakeFiles/kiibohd.dir/Output/USB/arm/usb_rawio.c.obj
 .group         0x0000000000000000        0xc CMakeFiles/kiibohd.dir/Output/USB/arm/usb_rawio.c.obj
 .group         0x0000000000000000        0xc CMakeFiles/kiibohd.dir/Output/USB/arm/usb_rawio.c.obj
 .group         0x0000000000000000        0xc CMakeFiles/kiibohd.dir/Output/USB/arm/usb_rawio.c.obj
 .group         0x0000000000000000        0xc CMakeFiles/kiibohd.dir/Output/USB/arm/usb_rawio.c.obj
 .group         0x0000000000000000        0xc CMakeFiles/kiibohd.dir/Output/USB/arm/usb_rawio.c.obj
 .group         0x0000000000000000        0xc CMakeFiles/kiibohd.dir/Output/USB/arm/usb_rawio.c.obj
 .group         0x0000000000000000        0xc CMakeFiles/kiibohd.dir/Output/USB/arm/usb_rawio.c.obj
 .text          0x0000000000000000        0x0 CMakeFiles/kiibohd.dir/Output/USB/arm/usb_rawio.c.obj
 .data          0x0000000000000000        0x0 CMakeFiles/kiibohd.dir/Output/USB/arm/usb_rawio.c.obj
 .bss           0x0000000000000000        0x0 CMakeFiles/kiibohd.dir/Output/USB/arm/usb_rawio.c.obj
 .debug_macro   0x0000000000000000      0xa60 CMakeFiles/kiibohd.dir/Output/USB/arm/usb_rawio.c.obj
 .debug_macro   0x0000000000000000      0x2f1 CMakeFiles/kiibohd.dir/Output/USB/arm/usb_rawio.c.obj
 .debug_macro   0x0000000000000000       0x22 CMakeFiles/kiibohd.dir/Output/USB/arm/usb_rawio.c.obj
 .debug_macro   0x0000000000000000       0x58 CMakeFiles/kiibohd.dir/Output/USB/arm/usb_rawio.c.obj
 .debug_macro   0x0000000000000000       0x18 CMakeFiles/kiibohd.dir/Output/USB/arm/usb_rawio.c.obj
 .debug_macro   0x0000000000000000       0x94 CMakeFiles/kiibohd.dir/Output/USB/arm/usb_rawio.c.obj
 .debug_macro   0x0000000000000000       0x35 CMakeFiles/kiibohd.dir/Output/USB/arm/usb_rawio.c.obj
 .debug_macro   0x0000000000000000       0x34 CMakeFiles/kiibohd.dir/Output/USB/arm/usb_rawio.c.obj
 .debug_macro   0x0000000000000000      0x174 CMakeFiles/kiibohd.dir/Output/USB/arm/usb_rawio.c.obj
 .debug_macro   0x0000000000000000       0x57 CMakeFiles/kiibohd.dir/Output/USB/arm/usb_rawio.c.obj
 .debug_macro   0x0000000000000000       0x58 CMakeFiles/kiibohd.dir/Output/USB/arm/usb_rawio.c.obj
 .debug_macro   0x0000000000000000       0x1f CMakeFiles/kiibohd.dir/Output/USB/arm/usb_rawio.c.obj
 .debug_macro   0x0000000000000000       0x43 CMakeFiles/kiibohd.dir/Output/USB/arm/usb_rawio.c.obj
 .debug_macro   0x0000000000000000       0x20 CMakeFiles/kiibohd.dir/Output/USB/arm/usb_rawio.c.obj
 .debug_macro   0x0000000000000000      0x18e CMakeFiles/kiibohd.dir/Output/USB/arm/usb_rawio.c.obj
 .debug_macro   0x0000000000000000      0x330 CMakeFiles/kiibohd.dir/Output/USB/arm/usb_rawio.c.obj
 .debug_macro   0x0000000000000000       0x10 CMakeFiles/kiibohd.dir/Output/USB/arm/usb_rawio.c.obj
 .debug_macro   0x0000000000000000       0x35 CMakeFiles/kiibohd.dir/Output/USB/arm/usb_rawio.c.obj
 .debug_macro   0x0000000000000000       0x28 CMakeFiles/kiibohd.dir/Output/USB/arm/usb_rawio.c.obj
 .debug_macro   0x0000000000000000       0x16 CMakeFiles/kiibohd.dir/Output/USB/arm/usb_rawio.c.obj
 .debug_macro   0x0000000000000000       0xef CMakeFiles/kiibohd.dir/Output/USB/arm/usb_rawio.c.obj
 .debug_macro   0x0000000000000000       0x6a CMakeFiles/kiibohd.dir/Output/USB/arm/usb_rawio.c.obj
 .debug_macro   0x0000000000000000      0x1df CMakeFiles/kiibohd.dir/Output/USB/arm/usb_rawio.c.obj
 .debug_macro   0x0000000000000000     0x5add CMakeFiles/kiibohd.dir/Output/USB/arm/usb_rawio.c.obj
 .debug_macro   0x0000000000000000       0x10 CMakeFiles/kiibohd.dir/Output/USB/arm/usb_rawio.c.obj
 .debug_macro   0x0000000000000000       0xbe CMakeFiles/kiibohd.dir/Output/USB/arm/usb_rawio.c.obj
 .debug_macro   0x0000000000000000       0x10 CMakeFiles/kiibohd.dir/Output/USB/arm/usb_rawio.c.obj
 .debug_macro   0x0000000000000000       0x9a CMakeFiles/kiibohd.dir/Output/USB/arm/usb_rawio.c.obj
 .debug_macro   0x0000000000000000       0x22 CMakeFiles/kiibohd.dir/Output/USB/arm/usb_rawio.c.obj
 .debug_macro   0x0000000000000000      0x219 CMakeFiles/kiibohd.dir/Output/USB/arm/usb_rawio.c.obj
 .group         0x0000000000000000        0xc CMakeFiles/kiibohd.dir/Output/USB/arm/usb_serial.c.obj
 .group         0x0000000000000000        0xc CMakeFiles/kiibohd.dir/Output/USB/arm/usb_serial.c.obj
 .group         0x0000000000000000        0xc CMakeFiles/kiibohd.dir/Output/USB/arm/usb_serial.c.obj
 .group         0x0000000000000000        0xc CMakeFiles/kiibohd.dir/Output/USB/arm/usb_serial.c.obj
 .group         0x0000000000000000        0xc CMakeFiles/kiibohd.dir/Output/USB/arm/usb_serial.c.obj
 .group         0x0000000000000000        0xc CMakeFiles/kiibohd.dir/Output/USB/arm/usb_serial.c.obj
 .group         0x0000000000000000        0xc CMakeFiles/kiibohd.dir/Output/USB/arm/usb_serial.c.obj
 .group         0x0000000000000000        0xc CMakeFiles/kiibohd.dir/Output/USB/arm/usb_serial.c.obj
 .group         0x0000000000000000        0xc CMakeFiles/kiibohd.dir/Output/USB/arm/usb_serial.c.obj
 .group         0x0000000000000000        0xc CMakeFiles/kiibohd.dir/Output/USB/arm/usb_serial.c.obj
 .group         0x0000000000000000        0xc CMakeFiles/kiibohd.dir/Output/USB/arm/usb_serial.c.obj
 .group         0x0000000000000000        0xc CMakeFiles/kiibohd.dir/Output/USB/arm/usb_serial.c.obj
 .group         0x0000000000000000        0xc CMakeFiles/kiibohd.dir/Output/USB/arm/usb_serial.c.obj
 .group         0x0000000000000000        0xc CMakeFiles/kiibohd.dir/Output/USB/arm/usb_serial.c.obj
 .group         0x0000000000000000        0xc CMakeFiles/kiibohd.dir/Output/USB/arm/usb_serial.c.obj
 .group         0x0000000000000000        0xc CMakeFiles/kiibohd.dir/Output/USB/arm/usb_serial.c.obj
 .group         0x0000000000000000        0xc CMakeFiles/kiibohd.dir/Output/USB/arm/usb_serial.c.obj
 .group         0x0000000000000000        0xc CMakeFiles/kiibohd.dir/Output/USB/arm/usb_serial.c.obj
 .group         0x0000000000000000        0xc CMakeFiles/kiibohd.dir/Output/USB/arm/usb_serial.c.obj
 .group         0x0000000000000000        0xc CMakeFiles/kiibohd.dir/Output/USB/arm/usb_serial.c.obj
 .group         0x0000000000000000        0xc CMakeFiles/kiibohd.dir/Output/USB/arm/usb_serial.c.obj
 .group         0x0000000000000000        0xc CMakeFiles/kiibohd.dir/Output/USB/arm/usb_serial.c.obj
 .group         0x0000000000000000        0xc CMakeFiles/kiibohd.dir/Output/USB/arm/usb_serial.c.obj
 .group         0x0000000000000000        0xc CMakeFiles/kiibohd.dir/Output/USB/arm/usb_serial.c.obj
 .group         0x0000000000000000        0xc CMakeFiles/kiibohd.dir/Output/USB/arm/usb_serial.c.obj
 .group         0x0000000000000000        0xc CMakeFiles/kiibohd.dir/Output/USB/arm/usb_serial.c.obj
 .group         0x0000000000000000        0xc CMakeFiles/kiibohd.dir/Output/USB/arm/usb_serial.c.obj
 .group         0x0000000000000000        0xc CMakeFiles/kiibohd.dir/Output/USB/arm/usb_serial.c.obj
 .group         0x0000000000000000        0xc CMakeFiles/kiibohd.dir/Output/USB/arm/usb_serial.c.obj
 .group         0x0000000000000000        0xc CMakeFiles/kiibohd.dir/Output/USB/arm/usb_serial.c.obj
 .text          0x0000000000000000        0x0 CMakeFiles/kiibohd.dir/Output/USB/arm/usb_serial.c.obj
 .data          0x0000000000000000        0x0 CMakeFiles/kiibohd.dir/Output/USB/arm/usb_serial.c.obj
 .bss           0x0000000000000000        0x0 CMakeFiles/kiibohd.dir/Output/USB/arm/usb_serial.c.obj
 .text.usb_serial_peekchar
                0x0000000000000000       0x50 CMakeFiles/kiibohd.dir/Output/USB/arm/usb_serial.c.obj
 .text.usb_serial_read
                0x0000000000000000       0xa0 CMakeFiles/kiibohd.dir/Output/USB/arm/usb_serial.c.obj
 .text.usb_serial_flush_input
                0x0000000000000000       0x48 CMakeFiles/kiibohd.dir/Output/USB/arm/usb_serial.c.obj
 .text.usb_serial_putchar
                0x0000000000000000       0x2c CMakeFiles/kiibohd.dir/Output/USB/arm/usb_serial.c.obj
 .text.usb_serial_flush_output
                0x0000000000000000       0x7c CMakeFiles/kiibohd.dir/Output/USB/arm/usb_serial.c.obj
 .debug_macro   0x0000000000000000      0xa60 CMakeFiles/kiibohd.dir/Output/USB/arm/usb_serial.c.obj
 .debug_macro   0x0000000000000000       0x28 CMakeFiles/kiibohd.dir/Output/USB/arm/usb_serial.c.obj
 .debug_macro   0x0000000000000000      0x2f1 CMakeFiles/kiibohd.dir/Output/USB/arm/usb_serial.c.obj
 .debug_macro   0x0000000000000000       0x22 CMakeFiles/kiibohd.dir/Output/USB/arm/usb_serial.c.obj
 .debug_macro   0x0000000000000000       0x58 CMakeFiles/kiibohd.dir/Output/USB/arm/usb_serial.c.obj
 .debug_macro   0x0000000000000000       0x18 CMakeFiles/kiibohd.dir/Output/USB/arm/usb_serial.c.obj
 .debug_macro   0x0000000000000000       0x94 CMakeFiles/kiibohd.dir/Output/USB/arm/usb_serial.c.obj
 .debug_macro   0x0000000000000000       0x35 CMakeFiles/kiibohd.dir/Output/USB/arm/usb_serial.c.obj
 .debug_macro   0x0000000000000000       0x34 CMakeFiles/kiibohd.dir/Output/USB/arm/usb_serial.c.obj
 .debug_macro   0x0000000000000000      0x174 CMakeFiles/kiibohd.dir/Output/USB/arm/usb_serial.c.obj
 .debug_macro   0x0000000000000000       0x57 CMakeFiles/kiibohd.dir/Output/USB/arm/usb_serial.c.obj
 .debug_macro   0x0000000000000000       0x58 CMakeFiles/kiibohd.dir/Output/USB/arm/usb_serial.c.obj
 .debug_macro   0x0000000000000000       0x1f CMakeFiles/kiibohd.dir/Output/USB/arm/usb_serial.c.obj
 .debug_macro   0x0000000000000000       0x43 CMakeFiles/kiibohd.dir/Output/USB/arm/usb_serial.c.obj
 .debug_macro   0x0000000000000000       0x20 CMakeFiles/kiibohd.dir/Output/USB/arm/usb_serial.c.obj
 .debug_macro   0x0000000000000000      0x18e CMakeFiles/kiibohd.dir/Output/USB/arm/usb_serial.c.obj
 .debug_macro   0x0000000000000000      0x330 CMakeFiles/kiibohd.dir/Output/USB/arm/usb_serial.c.obj
 .debug_macro   0x0000000000000000       0x10 CMakeFiles/kiibohd.dir/Output/USB/arm/usb_serial.c.obj
 .debug_macro   0x0000000000000000       0x35 CMakeFiles/kiibohd.dir/Output/USB/arm/usb_serial.c.obj
 .debug_macro   0x0000000000000000       0x16 CMakeFiles/kiibohd.dir/Output/USB/arm/usb_serial.c.obj
 .debug_macro   0x0000000000000000       0xef CMakeFiles/kiibohd.dir/Output/USB/arm/usb_serial.c.obj
 .debug_macro   0x0000000000000000       0x6a CMakeFiles/kiibohd.dir/Output/USB/arm/usb_serial.c.obj
 .debug_macro   0x0000000000000000      0x1df CMakeFiles/kiibohd.dir/Output/USB/arm/usb_serial.c.obj
 .debug_macro   0x0000000000000000     0x5add CMakeFiles/kiibohd.dir/Output/USB/arm/usb_serial.c.obj
 .debug_macro   0x0000000000000000       0x10 CMakeFiles/kiibohd.dir/Output/USB/arm/usb_serial.c.obj
 .debug_macro   0x0000000000000000       0x22 CMakeFiles/kiibohd.dir/Output/USB/arm/usb_serial.c.obj
 .debug_macro   0x0000000000000000      0x219 CMakeFiles/kiibohd.dir/Output/USB/arm/usb_serial.c.obj
 .debug_macro   0x0000000000000000       0x10 CMakeFiles/kiibohd.dir/Output/USB/arm/usb_serial.c.obj
 .debug_macro   0x0000000000000000      0x4cc CMakeFiles/kiibohd.dir/Output/USB/arm/usb_serial.c.obj
 .debug_macro   0x0000000000000000       0x22 CMakeFiles/kiibohd.dir/Output/USB/arm/usb_serial.c.obj
 .group         0x0000000000000000        0xc CMakeFiles/kiibohd.dir/Debug/cli/cli.c.obj
 .group         0x0000000000000000        0xc CMakeFiles/kiibohd.dir/Debug/cli/cli.c.obj
 .group         0x0000000000000000        0xc CMakeFiles/kiibohd.dir/Debug/cli/cli.c.obj
 .group         0x0000000000000000        0xc CMakeFiles/kiibohd.dir/Debug/cli/cli.c.obj
 .group         0x0000000000000000        0xc CMakeFiles/kiibohd.dir/Debug/cli/cli.c.obj
 .group         0x0000000000000000        0xc CMakeFiles/kiibohd.dir/Debug/cli/cli.c.obj
 .group         0x0000000000000000        0xc CMakeFiles/kiibohd.dir/Debug/cli/cli.c.obj
 .group         0x0000000000000000        0xc CMakeFiles/kiibohd.dir/Debug/cli/cli.c.obj
 .group         0x0000000000000000        0xc CMakeFiles/kiibohd.dir/Debug/cli/cli.c.obj
 .group         0x0000000000000000        0xc CMakeFiles/kiibohd.dir/Debug/cli/cli.c.obj
 .group         0x0000000000000000        0xc CMakeFiles/kiibohd.dir/Debug/cli/cli.c.obj
 .group         0x0000000000000000        0xc CMakeFiles/kiibohd.dir/Debug/cli/cli.c.obj
 .group         0x0000000000000000        0xc CMakeFiles/kiibohd.dir/Debug/cli/cli.c.obj
 .group         0x0000000000000000        0xc CMakeFiles/kiibohd.dir/Debug/cli/cli.c.obj
 .group         0x0000000000000000        0xc CMakeFiles/kiibohd.dir/Debug/cli/cli.c.obj
 .text          0x0000000000000000        0x0 CMakeFiles/kiibohd.dir/Debug/cli/cli.c.obj
 .data          0x0000000000000000        0x0 CMakeFiles/kiibohd.dir/Debug/cli/cli.c.obj
 .bss           0x0000000000000000        0x0 CMakeFiles/kiibohd.dir/Debug/cli/cli.c.obj
 .debug_macro   0x0000000000000000      0xa60 CMakeFiles/kiibohd.dir/Debug/cli/cli.c.obj
 .debug_macro   0x0000000000000000       0x28 CMakeFiles/kiibohd.dir/Debug/cli/cli.c.obj
 .debug_macro   0x0000000000000000       0x22 CMakeFiles/kiibohd.dir/Debug/cli/cli.c.obj
 .debug_macro   0x0000000000000000       0x8e CMakeFiles/kiibohd.dir/Debug/cli/cli.c.obj
 .debug_macro   0x0000000000000000       0x51 CMakeFiles/kiibohd.dir/Debug/cli/cli.c.obj
 .debug_macro   0x0000000000000000       0xef CMakeFiles/kiibohd.dir/Debug/cli/cli.c.obj
 .debug_macro   0x0000000000000000       0x6a CMakeFiles/kiibohd.dir/Debug/cli/cli.c.obj
 .debug_macro   0x0000000000000000      0x1df CMakeFiles/kiibohd.dir/Debug/cli/cli.c.obj
 .debug_macro   0x0000000000000000     0x5af5 CMakeFiles/kiibohd.dir/Debug/cli/cli.c.obj
 .debug_macro   0x0000000000000000       0xbe CMakeFiles/kiibohd.dir/Debug/cli/cli.c.obj
 .debug_macro   0x0000000000000000       0x10 CMakeFiles/kiibohd.dir/Debug/cli/cli.c.obj
 .debug_macro   0x0000000000000000      0x2f1 CMakeFiles/kiibohd.dir/Debug/cli/cli.c.obj
 .debug_macro   0x0000000000000000       0x10 CMakeFiles/kiibohd.dir/Debug/cli/cli.c.obj
 .debug_macro   0x0000000000000000       0x9a CMakeFiles/kiibohd.dir/Debug/cli/cli.c.obj
 .debug_macro   0x0000000000000000       0x3a CMakeFiles/kiibohd.dir/Debug/cli/cli.c.obj
 .group         0x0000000000000000        0xc CMakeFiles/kiibohd.dir/Debug/latency/latency.c.obj
 .group         0x0000000000000000        0xc CMakeFiles/kiibohd.dir/Debug/latency/latency.c.obj
 .group         0x0000000000000000        0xc CMakeFiles/kiibohd.dir/Debug/latency/latency.c.obj
 .group         0x0000000000000000        0xc CMakeFiles/kiibohd.dir/Debug/latency/latency.c.obj
 .group         0x0000000000000000        0xc CMakeFiles/kiibohd.dir/Debug/latency/latency.c.obj
 .group         0x0000000000000000        0xc CMakeFiles/kiibohd.dir/Debug/latency/latency.c.obj
 .group         0x0000000000000000        0xc CMakeFiles/kiibohd.dir/Debug/latency/latency.c.obj
 .group         0x0000000000000000        0xc CMakeFiles/kiibohd.dir/Debug/latency/latency.c.obj
 .group         0x0000000000000000        0xc CMakeFiles/kiibohd.dir/Debug/latency/latency.c.obj
 .group         0x0000000000000000        0xc CMakeFiles/kiibohd.dir/Debug/latency/latency.c.obj
 .group         0x0000000000000000        0xc CMakeFiles/kiibohd.dir/Debug/latency/latency.c.obj
 .group         0x0000000000000000        0xc CMakeFiles/kiibohd.dir/Debug/latency/latency.c.obj
 .group         0x0000000000000000        0xc CMakeFiles/kiibohd.dir/Debug/latency/latency.c.obj
 .group         0x0000000000000000        0xc CMakeFiles/kiibohd.dir/Debug/latency/latency.c.obj
 .group         0x0000000000000000        0xc CMakeFiles/kiibohd.dir/Debug/latency/latency.c.obj
 .group         0x0000000000000000        0xc CMakeFiles/kiibohd.dir/Debug/latency/latency.c.obj
 .text          0x0000000000000000        0x0 CMakeFiles/kiibohd.dir/Debug/latency/latency.c.obj
 .data          0x0000000000000000        0x0 CMakeFiles/kiibohd.dir/Debug/latency/latency.c.obj
 .bss           0x0000000000000000        0x0 CMakeFiles/kiibohd.dir/Debug/latency/latency.c.obj
 .debug_macro   0x0000000000000000      0xa60 CMakeFiles/kiibohd.dir/Debug/latency/latency.c.obj
 .debug_macro   0x0000000000000000       0x22 CMakeFiles/kiibohd.dir/Debug/latency/latency.c.obj
 .debug_macro   0x0000000000000000       0x8e CMakeFiles/kiibohd.dir/Debug/latency/latency.c.obj
 .debug_macro   0x0000000000000000       0x51 CMakeFiles/kiibohd.dir/Debug/latency/latency.c.obj
 .debug_macro   0x0000000000000000       0xef CMakeFiles/kiibohd.dir/Debug/latency/latency.c.obj
 .debug_macro   0x0000000000000000       0x6a CMakeFiles/kiibohd.dir/Debug/latency/latency.c.obj
 .debug_macro   0x0000000000000000      0x1df CMakeFiles/kiibohd.dir/Debug/latency/latency.c.obj
 .debug_macro   0x0000000000000000      0x2ea CMakeFiles/kiibohd.dir/Debug/latency/latency.c.obj
 .debug_macro   0x0000000000000000       0x28 CMakeFiles/kiibohd.dir/Debug/latency/latency.c.obj
 .debug_macro   0x0000000000000000       0xbe CMakeFiles/kiibohd.dir/Debug/latency/latency.c.obj
 .debug_macro   0x0000000000000000       0x10 CMakeFiles/kiibohd.dir/Debug/latency/latency.c.obj
 .debug_macro   0x0000000000000000       0x9a CMakeFiles/kiibohd.dir/Debug/latency/latency.c.obj
 .debug_macro   0x0000000000000000     0x1334 CMakeFiles/kiibohd.dir/Debug/latency/latency.c.obj
 .debug_macro   0x0000000000000000       0x73 CMakeFiles/kiibohd.dir/Debug/latency/latency.c.obj
 .debug_macro   0x0000000000000000     0x5af5 CMakeFiles/kiibohd.dir/Debug/latency/latency.c.obj
 .debug_macro   0x0000000000000000       0x10 CMakeFiles/kiibohd.dir/Debug/latency/latency.c.obj
 .group         0x0000000000000000        0xc CMakeFiles/kiibohd.dir/Debug/led/led.c.obj
 .group         0x0000000000000000        0xc CMakeFiles/kiibohd.dir/Debug/led/led.c.obj
 .group         0x0000000000000000        0xc CMakeFiles/kiibohd.dir/Debug/led/led.c.obj
 .group         0x0000000000000000        0xc CMakeFiles/kiibohd.dir/Debug/led/led.c.obj
 .group         0x0000000000000000        0xc CMakeFiles/kiibohd.dir/Debug/led/led.c.obj
 .group         0x0000000000000000        0xc CMakeFiles/kiibohd.dir/Debug/led/led.c.obj
 .group         0x0000000000000000        0xc CMakeFiles/kiibohd.dir/Debug/led/led.c.obj
 .group         0x0000000000000000        0xc CMakeFiles/kiibohd.dir/Debug/led/led.c.obj
 .group         0x0000000000000000        0xc CMakeFiles/kiibohd.dir/Debug/led/led.c.obj
 .group         0x0000000000000000        0xc CMakeFiles/kiibohd.dir/Debug/led/led.c.obj
 .group         0x0000000000000000        0xc CMakeFiles/kiibohd.dir/Debug/led/led.c.obj
 .group         0x0000000000000000        0xc CMakeFiles/kiibohd.dir/Debug/led/led.c.obj
 .text          0x0000000000000000        0x0 CMakeFiles/kiibohd.dir/Debug/led/led.c.obj
 .data          0x0000000000000000        0x0 CMakeFiles/kiibohd.dir/Debug/led/led.c.obj
 .bss           0x0000000000000000        0x0 CMakeFiles/kiibohd.dir/Debug/led/led.c.obj
 .text.errorLEDToggle
                0x0000000000000000       0x34 CMakeFiles/kiibohd.dir/Debug/led/led.c.obj
 .debug_macro   0x0000000000000000      0xa60 CMakeFiles/kiibohd.dir/Debug/led/led.c.obj
 .debug_macro   0x0000000000000000       0x28 CMakeFiles/kiibohd.dir/Debug/led/led.c.obj
 .debug_macro   0x0000000000000000       0x1c CMakeFiles/kiibohd.dir/Debug/led/led.c.obj
 .debug_macro   0x0000000000000000       0x22 CMakeFiles/kiibohd.dir/Debug/led/led.c.obj
 .debug_macro   0x0000000000000000       0x8e CMakeFiles/kiibohd.dir/Debug/led/led.c.obj
 .debug_macro   0x0000000000000000       0x51 CMakeFiles/kiibohd.dir/Debug/led/led.c.obj
 .debug_macro   0x0000000000000000       0xef CMakeFiles/kiibohd.dir/Debug/led/led.c.obj
 .debug_macro   0x0000000000000000       0x6a CMakeFiles/kiibohd.dir/Debug/led/led.c.obj
 .debug_macro   0x0000000000000000      0x1df CMakeFiles/kiibohd.dir/Debug/led/led.c.obj
 .debug_macro   0x0000000000000000     0x5add CMakeFiles/kiibohd.dir/Debug/led/led.c.obj
 .debug_macro   0x0000000000000000       0x10 CMakeFiles/kiibohd.dir/Debug/led/led.c.obj
 .debug_macro   0x0000000000000000      0x2f1 CMakeFiles/kiibohd.dir/Debug/led/led.c.obj
 .group         0x0000000000000000        0xc CMakeFiles/kiibohd.dir/Debug/print/print.c.obj
 .group         0x0000000000000000        0xc CMakeFiles/kiibohd.dir/Debug/print/print.c.obj
 .group         0x0000000000000000        0xc CMakeFiles/kiibohd.dir/Debug/print/print.c.obj
 .group         0x0000000000000000        0xc CMakeFiles/kiibohd.dir/Debug/print/print.c.obj
 .group         0x0000000000000000        0xc CMakeFiles/kiibohd.dir/Debug/print/print.c.obj
 .group         0x0000000000000000        0xc CMakeFiles/kiibohd.dir/Debug/print/print.c.obj
 .group         0x0000000000000000        0xc CMakeFiles/kiibohd.dir/Debug/print/print.c.obj
 .group         0x0000000000000000        0xc CMakeFiles/kiibohd.dir/Debug/print/print.c.obj
 .group         0x0000000000000000        0xc CMakeFiles/kiibohd.dir/Debug/print/print.c.obj
 .group         0x0000000000000000        0xc CMakeFiles/kiibohd.dir/Debug/print/print.c.obj
 .group         0x0000000000000000        0xc CMakeFiles/kiibohd.dir/Debug/print/print.c.obj
 .group         0x0000000000000000        0xc CMakeFiles/kiibohd.dir/Debug/print/print.c.obj
 .group         0x0000000000000000        0xc CMakeFiles/kiibohd.dir/Debug/print/print.c.obj
 .text          0x0000000000000000        0x0 CMakeFiles/kiibohd.dir/Debug/print/print.c.obj
 .data          0x0000000000000000        0x0 CMakeFiles/kiibohd.dir/Debug/print/print.c.obj
 .bss           0x0000000000000000        0x0 CMakeFiles/kiibohd.dir/Debug/print/print.c.obj
 .text.printChar
                0x0000000000000000       0x24 CMakeFiles/kiibohd.dir/Debug/print/print.c.obj
 .debug_macro   0x0000000000000000      0xa60 CMakeFiles/kiibohd.dir/Debug/print/print.c.obj
 .debug_macro   0x0000000000000000       0x28 CMakeFiles/kiibohd.dir/Debug/print/print.c.obj
 .debug_macro   0x0000000000000000       0x22 CMakeFiles/kiibohd.dir/Debug/print/print.c.obj
 .debug_macro   0x0000000000000000       0x8e CMakeFiles/kiibohd.dir/Debug/print/print.c.obj
 .debug_macro   0x0000000000000000       0x51 CMakeFiles/kiibohd.dir/Debug/print/print.c.obj
 .debug_macro   0x0000000000000000       0xef CMakeFiles/kiibohd.dir/Debug/print/print.c.obj
 .debug_macro   0x0000000000000000       0x6a CMakeFiles/kiibohd.dir/Debug/print/print.c.obj
 .debug_macro   0x0000000000000000      0x1df CMakeFiles/kiibohd.dir/Debug/print/print.c.obj
 .debug_macro   0x0000000000000000      0x2ea CMakeFiles/kiibohd.dir/Debug/print/print.c.obj
 .debug_macro   0x0000000000000000       0xbe CMakeFiles/kiibohd.dir/Debug/print/print.c.obj
 .debug_macro   0x0000000000000000       0x10 CMakeFiles/kiibohd.dir/Debug/print/print.c.obj
 .debug_macro   0x0000000000000000       0x9a CMakeFiles/kiibohd.dir/Debug/print/print.c.obj

Memory Configuration

Name             Origin             Length             Attributes
FLASH            0x0000000000002000 0x000000000003e000 xr
RAM              0x000000001fff8000 0x0000000000010000 xrw
*default*        0x0000000000000000 0xffffffffffffffff

Linker script and memory map

LOAD CMakeFiles/kiibohd.dir/main.c.obj
LOAD CMakeFiles/kiibohd.dir/Lib/kinetis.c.obj
LOAD CMakeFiles/kiibohd.dir/Lib/delay.c.obj
LOAD CMakeFiles/kiibohd.dir/Lib/entropy.c.obj
LOAD CMakeFiles/kiibohd.dir/Lib/gpio.c.obj
LOAD CMakeFiles/kiibohd.dir/Lib/periodic.c.obj
LOAD CMakeFiles/kiibohd.dir/Lib/storage.c.obj
LOAD CMakeFiles/kiibohd.dir/Lib/time.c.obj
LOAD CMakeFiles/kiibohd.dir/Lib/arm_cortex.c.obj
LOAD CMakeFiles/kiibohd.dir/Scan/Devices/ISSILed/i2c.c.obj
LOAD CMakeFiles/kiibohd.dir/Scan/Devices/ISSILed/led_scan.c.obj
LOAD CMakeFiles/kiibohd.dir/Scan/Devices/MatrixARMPeriodic/matrix_scan.c.obj
LOAD CMakeFiles/kiibohd.dir/Scan/Devices/STLcd/lcd_scan.c.obj
LOAD CMakeFiles/kiibohd.dir/Scan/Devices/UARTConnect/connect_scan.c.obj
LOAD CMakeFiles/kiibohd.dir/Scan/Infinity_Ergodox/scan_loop.c.obj
LOAD CMakeFiles/kiibohd.dir/Macro/PartialMap/kll.c.obj
LOAD CMakeFiles/kiibohd.dir/Macro/PartialMap/layer.c.obj
LOAD CMakeFiles/kiibohd.dir/Macro/PartialMap/macro.c.obj
LOAD CMakeFiles/kiibohd.dir/Macro/PartialMap/result.c.obj
LOAD CMakeFiles/kiibohd.dir/Macro/PartialMap/trigger.c.obj
LOAD CMakeFiles/kiibohd.dir/Macro/PixelMap/pixel.c.obj
LOAD CMakeFiles/kiibohd.dir/generatedPixelmap.c.obj
LOAD CMakeFiles/kiibohd.dir/Output/HID-IO/hidio_com.c.obj
LOAD CMakeFiles/kiibohd.dir/Output/Interface/output_gen.c.obj
LOAD CMakeFiles/kiibohd.dir/Output/USB/output_com.c.obj
LOAD CMakeFiles/kiibohd.dir/Output/USB/output_usb.c.obj
LOAD CMakeFiles/kiibohd.dir/Output/USB/arm/usb_desc.c.obj
LOAD CMakeFiles/kiibohd.dir/Output/USB/arm/usb_dev.c.obj
LOAD CMakeFiles/kiibohd.dir/Output/USB/arm/usb_joystick.c.obj
LOAD CMakeFiles/kiibohd.dir/Output/USB/arm/usb_keyboard.c.obj
LOAD CMakeFiles/kiibohd.dir/Output/USB/arm/usb_mem.c.obj
LOAD CMakeFiles/kiibohd.dir/Output/USB/arm/usb_mouse.c.obj
LOAD CMakeFiles/kiibohd.dir/Output/USB/arm/usb_rawio.c.obj
LOAD CMakeFiles/kiibohd.dir/Output/USB/arm/usb_serial.c.obj
LOAD CMakeFiles/kiibohd.dir/Debug/cli/cli.c.obj
LOAD CMakeFiles/kiibohd.dir/Debug/latency/latency.c.obj
LOAD CMakeFiles/kiibohd.dir/Debug/led/led.c.obj
LOAD CMakeFiles/kiibohd.dir/Debug/print/print.c.obj
                0x0000000000002000                _app_rom = ORIGIN (FLASH)
                0x0000000000040000                _app_rom_end = (ORIGIN (FLASH) + LENGTH (FLASH))

.text           0x0000000000002000    0x15338
                0x0000000000000000                . = 0x0
 *(.vectors)
 .vectors       0x0000000000002000      0x1bc CMakeFiles/kiibohd.dir/Lib/kinetis.c.obj
                0x0000000000002000                gVectors
 *(.startup*)
 .startup       0x00000000000021bc      0x180 CMakeFiles/kiibohd.dir/Lib/kinetis.c.obj
                0x00000000000021bc                ResetHandler
                0x0000000000000400                . = 0x400
 *fill*         0x000000000000233c       0xc4 
 *(.flashconfig)
 *(.text*)
 .text.main_periodic
                0x0000000000002400       0x58 CMakeFiles/kiibohd.dir/main.c.obj
                0x0000000000002400                main_periodic
 .text.startup.main
                0x0000000000002458       0x48 CMakeFiles/kiibohd.dir/main.c.obj
                0x0000000000002458                main
 .text.systick_default_isr
                0x00000000000024a0       0x5c CMakeFiles/kiibohd.dir/Lib/kinetis.c.obj
                0x00000000000024a0                systick_isr
                0x00000000000024a0                systick_default_isr
 .text.fault_isr
                0x00000000000024fc       0x48 CMakeFiles/kiibohd.dir/Lib/kinetis.c.obj
                0x00000000000024fc                fault_isr
 .text.unused_isr
                0x0000000000002544       0x10 CMakeFiles/kiibohd.dir/Lib/kinetis.c.obj
                0x0000000000002544                enet_tx_isr
                0x0000000000002544                dma_ch6_isr
                0x0000000000002544                uart0_lon_isr
                0x0000000000002544                dma_ch8_isr
                0x0000000000002544                portcd_isr
                0x0000000000002544                can1_rx_warn_isr
                0x0000000000002544                dma_error_isr
                0x0000000000002544                portd_isr
                0x0000000000002544                enet_error_isr
                0x0000000000002544                tpm1_isr
                0x0000000000002544                porte_isr
                0x0000000000002544                portb_isr
                0x0000000000002544                spi1_isr
                0x0000000000002544                uart3_status_isr
                0x0000000000002544                mcm_isr
                0x0000000000002544                uart1_status_isr
                0x0000000000002544                randnum_isr
                0x0000000000002544                dma_ch11_isr
                0x0000000000002544                i2c2_isr
                0x0000000000002544                pit1_isr
                0x0000000000002544                dma_ch4_isr
                0x0000000000002544                software_isr
                0x0000000000002544                dma_ch7_isr
                0x0000000000002544                can1_bus_off_isr
                0x0000000000002544                ftm2_isr
                0x0000000000002544                uart5_status_isr
                0x0000000000002544                lpuart0_status_isr
                0x0000000000002544                dma_ch9_isr
                0x0000000000002544                pit2_isr
                0x0000000000002544                i2c3_isr
                0x0000000000002544                can1_error_isr
                0x0000000000002544                can0_wakeup_isr
                0x0000000000002544                flash_cmd_isr
                0x0000000000002544                uart2_status_isr
                0x0000000000002544                svcall_isr
                0x0000000000002544                dma_ch15_isr
                0x0000000000002544                uart1_error_isr
                0x0000000000002544                usbhs_phy_isr
                0x0000000000002544                unused_isr
                0x0000000000002544                spi0_isr
                0x0000000000002544                dma_ch3_isr
                0x0000000000002544                flash_error_isr
                0x0000000000002544                uart5_error_isr
                0x0000000000002544                rtc_seconds_isr
                0x0000000000002544                pdb_isr
                0x0000000000002544                dac1_isr
                0x0000000000002544                dma_ch14_isr
                0x0000000000002544                rtc_alarm_isr
                0x0000000000002544                dma_ch2_isr
                0x0000000000002544                ftm1_isr
                0x0000000000002544                dma_ch13_isr
                0x0000000000002544                uart2_error_isr
                0x0000000000002544                usb_charge_isr
                0x0000000000002544                cmt_isr
                0x0000000000002544                usbhs_isr
                0x0000000000002544                ftm3_isr
                0x0000000000002544                tsi0_isr
                0x0000000000002544                spi2_isr
                0x0000000000002544                can0_bus_off_isr
                0x0000000000002544                uart3_error_isr
                0x0000000000002544                porta_isr
                0x0000000000002544                low_voltage_isr
                0x0000000000002544                can0_error_isr
                0x0000000000002544                dma_ch12_isr
                0x0000000000002544                can1_wakeup_isr
                0x0000000000002544                pit3_isr
                0x0000000000002544                enet_rx_isr
                0x0000000000002544                portc_isr
                0x0000000000002544                debugmonitor_isr
                0x0000000000002544                cmp1_isr
                0x0000000000002544                ftm0_isr
                0x0000000000002544                tpm0_isr
                0x0000000000002544                i2s0_rx_isr
                0x0000000000002544                uart4_error_isr
                0x0000000000002544                can0_message_isr
                0x0000000000002544                can1_message_isr
                0x0000000000002544                sdhc_isr
                0x0000000000002544                dma_ch10_isr
                0x0000000000002544                uart0_error_isr
                0x0000000000002544                i2s0_isr
                0x0000000000002544                enet_timer_isr
                0x0000000000002544                i2s0_tx_isr
                0x0000000000002544                adc1_isr
                0x0000000000002544                cmp0_isr
                0x0000000000002544                pit_isr
                0x0000000000002544                dac0_isr
                0x0000000000002544                can1_tx_warn_isr
                0x0000000000002544                uart0_status_isr
                0x0000000000002544                mcg_isr
                0x0000000000002544                dma_ch1_isr
                0x0000000000002544                dma_ch5_isr
                0x0000000000002544                can0_rx_warn_isr
                0x0000000000002544                can0_tx_warn_isr
                0x0000000000002544                uart4_status_isr
                0x0000000000002544                cmp2_isr
                0x0000000000002544                pendablesrvreq_isr
                0x0000000000002544                wakeup_isr
                0x0000000000002544                cmp3_isr
                0x0000000000002544                tpm2_isr
                0x0000000000002544                dma_ch0_isr
                0x0000000000002544                adc0_isr
 .text.nmi_default_isr
                0x0000000000002554       0x28 CMakeFiles/kiibohd.dir/Lib/kinetis.c.obj
                0x0000000000002554                nmi_isr
                0x0000000000002554                nmi_default_isr
 .text.hard_fault_default_isr
                0x000000000000257c       0x4c CMakeFiles/kiibohd.dir/Lib/kinetis.c.obj
                0x000000000000257c                hard_fault_isr
                0x000000000000257c                hard_fault_default_isr
 .text.memmanage_fault_default_isr
                0x00000000000025c8       0x58 CMakeFiles/kiibohd.dir/Lib/kinetis.c.obj
                0x00000000000025c8                memmanage_fault_default_isr
                0x00000000000025c8                memmanage_fault_isr
 .text.bus_fault_default_isr
                0x0000000000002620       0x58 CMakeFiles/kiibohd.dir/Lib/kinetis.c.obj
                0x0000000000002620                bus_fault_isr
                0x0000000000002620                bus_fault_default_isr
 .text.usage_fault_default_isr
                0x0000000000002678       0x40 CMakeFiles/kiibohd.dir/Lib/kinetis.c.obj
                0x0000000000002678                usage_fault_default_isr
                0x0000000000002678                usage_fault_isr
 .text.watchdog_default_isr
                0x00000000000026b8       0x78 CMakeFiles/kiibohd.dir/Lib/kinetis.c.obj
                0x00000000000026b8                watchdog_isr
                0x00000000000026b8                watchdog_default_isr
 .text.__stack_chk_fail
                0x0000000000002730       0x1c CMakeFiles/kiibohd.dir/Lib/kinetis.c.obj
                0x0000000000002730                __stack_chk_fail
 .text.memset   0x000000000000274c       0x2c CMakeFiles/kiibohd.dir/Lib/kinetis.c.obj
                0x000000000000274c                memset
 .text.memcpy   0x0000000000002778       0x4c CMakeFiles/kiibohd.dir/Lib/kinetis.c.obj
                0x0000000000002778                memcpy
 .text.us_now   0x00000000000027c4       0x60 CMakeFiles/kiibohd.dir/Lib/delay.c.obj
                0x00000000000027c4                us_now
 .text.yield    0x0000000000002824       0x20 CMakeFiles/kiibohd.dir/Lib/delay.c.obj
                0x0000000000002824                yield
 .text.delay_us
                0x0000000000002844       0x34 CMakeFiles/kiibohd.dir/Lib/delay.c.obj
                0x0000000000002844                delay_us
 .text.delay_ms
                0x0000000000002878       0x34 CMakeFiles/kiibohd.dir/Lib/delay.c.obj
                0x0000000000002878                delay_ms
 .text.rand_initialize
                0x00000000000028ac       0x78 CMakeFiles/kiibohd.dir/Lib/entropy.c.obj
                0x00000000000028ac                rand_initialize
 .text.rand_value32
                0x0000000000002924       0x7c CMakeFiles/kiibohd.dir/Lib/entropy.c.obj
                0x0000000000002924                rand_value32
 .text.rand_available
                0x00000000000029a0       0x28 CMakeFiles/kiibohd.dir/Lib/entropy.c.obj
                0x00000000000029a0                rand_available
 .text.lptmr_isr
                0x00000000000029c8      0x140 CMakeFiles/kiibohd.dir/Lib/entropy.c.obj
                0x00000000000029c8                lptmr_isr
 .text.GPIO_Ctrl
                0x0000000000002b08       0xd8 CMakeFiles/kiibohd.dir/Lib/gpio.c.obj
                0x0000000000002b08                GPIO_Ctrl
 .text.Periodic_init
                0x0000000000002be0       0x5c CMakeFiles/kiibohd.dir/Lib/periodic.c.obj
                0x0000000000002be0                Periodic_init
 .text.Periodic_enable
                0x0000000000002c3c       0x28 CMakeFiles/kiibohd.dir/Lib/periodic.c.obj
                0x0000000000002c3c                Periodic_enable
 .text.Periodic_disable
                0x0000000000002c64       0x28 CMakeFiles/kiibohd.dir/Lib/periodic.c.obj
                0x0000000000002c64                Periodic_disable
 .text.Periodic_function
                0x0000000000002c8c       0x28 CMakeFiles/kiibohd.dir/Lib/periodic.c.obj
                0x0000000000002c8c                Periodic_function
 .text.Periodic_cycles
                0x0000000000002cb4       0x28 CMakeFiles/kiibohd.dir/Lib/periodic.c.obj
                0x0000000000002cb4                Periodic_cycles
 .text.pit0_isr
                0x0000000000002cdc       0x30 CMakeFiles/kiibohd.dir/Lib/periodic.c.obj
                0x0000000000002cdc                pit0_isr
 .text.Time_now
                0x0000000000002d0c       0x30 CMakeFiles/kiibohd.dir/Lib/time.c.obj
                0x0000000000002d0c                Time_now
 .text.Time_init
                0x0000000000002d3c       0x24 CMakeFiles/kiibohd.dir/Lib/time.c.obj
                0x0000000000002d3c                Time_init
 .text.Time_add
                0x0000000000002d60       0x5c CMakeFiles/kiibohd.dir/Lib/time.c.obj
                0x0000000000002d60                Time_add
 .text.Time_compare
                0x0000000000002dbc       0x50 CMakeFiles/kiibohd.dir/Lib/time.c.obj
                0x0000000000002dbc                Time_compare
 .text.Time_ms  0x0000000000002e0c       0x24 CMakeFiles/kiibohd.dir/Lib/time.c.obj
                0x0000000000002e0c                Time_ms
 .text.Time_us  0x0000000000002e30       0x48 CMakeFiles/kiibohd.dir/Lib/time.c.obj
                0x0000000000002e30                Time_us
 .text.Time_ns  0x0000000000002e78       0x50 CMakeFiles/kiibohd.dir/Lib/time.c.obj
                0x0000000000002e78                Time_ns
 .text.Time_duration_rollover
                0x0000000000002ec8       0x6c CMakeFiles/kiibohd.dir/Lib/time.c.obj
                0x0000000000002ec8                Time_duration_rollover
 .text.Time_duration_rollover_now
                0x0000000000002f34       0x4c CMakeFiles/kiibohd.dir/Lib/time.c.obj
                0x0000000000002f34                Time_duration_rollover_now
 .text.Time_duration
                0x0000000000002f80       0x30 CMakeFiles/kiibohd.dir/Lib/time.c.obj
                0x0000000000002f80                Time_duration
 .text.Time_duration_ms
                0x0000000000002fb0       0x30 CMakeFiles/kiibohd.dir/Lib/time.c.obj
                0x0000000000002fb0                Time_duration_ms
 .text.Time_duration_us
                0x0000000000002fe0       0x3c CMakeFiles/kiibohd.dir/Lib/time.c.obj
                0x0000000000002fe0                Time_duration_us
 .text.Time_duration_ns
                0x000000000000301c       0x3c CMakeFiles/kiibohd.dir/Lib/time.c.obj
                0x000000000000301c                Time_duration_ns
 .text.Time_duration_ticks
                0x0000000000003058       0x4c CMakeFiles/kiibohd.dir/Lib/time.c.obj
                0x0000000000003058                Time_duration_ticks
 .text.Time_tick_reset
                0x00000000000030a4       0x3c CMakeFiles/kiibohd.dir/Lib/time.c.obj
                0x00000000000030a4                Time_tick_reset
 .text.Time_tick_start
                0x00000000000030e0       0x38 CMakeFiles/kiibohd.dir/Lib/time.c.obj
                0x00000000000030e0                Time_tick_start
 .text.Time_tick_update
                0x0000000000003118       0x80 CMakeFiles/kiibohd.dir/Lib/time.c.obj
                0x0000000000003118                Time_tick_update
 .text.i2c_initial
                0x0000000000003198       0x2c CMakeFiles/kiibohd.dir/Scan/Devices/ISSILed/i2c.c.obj
                0x0000000000003198                i2c_initial
 .text.i2c_setup
                0x00000000000031c4       0x70 CMakeFiles/kiibohd.dir/Scan/Devices/ISSILed/i2c.c.obj
                0x00000000000031c4                i2c_setup
 .text.i2c_error
                0x0000000000003234       0x2c CMakeFiles/kiibohd.dir/Scan/Devices/ISSILed/i2c.c.obj
                0x0000000000003234                i2c_error
 .text.i2c_reset
                0x0000000000003260       0x2c CMakeFiles/kiibohd.dir/Scan/Devices/ISSILed/i2c.c.obj
                0x0000000000003260                i2c_reset
 .text.i2c_busy
                0x000000000000328c       0x30 CMakeFiles/kiibohd.dir/Scan/Devices/ISSILed/i2c.c.obj
                0x000000000000328c                i2c_busy
 .text.i2c_send_sequence
                0x00000000000032bc      0x12c CMakeFiles/kiibohd.dir/Scan/Devices/ISSILed/i2c.c.obj
                0x00000000000032bc                i2c_send_sequence
 .text.i2c_isr  0x00000000000033e8      0x1e0 CMakeFiles/kiibohd.dir/Scan/Devices/ISSILed/i2c.c.obj
                0x00000000000033e8                i2c_isr
 .text.i2c0_isr
                0x00000000000035c8       0x24 CMakeFiles/kiibohd.dir/Scan/Devices/ISSILed/i2c.c.obj
                0x00000000000035c8                i2c0_isr
 .text.i2c1_isr
                0x00000000000035ec       0x24 CMakeFiles/kiibohd.dir/Scan/Devices/ISSILed/i2c.c.obj
                0x00000000000035ec                i2c1_isr
 .text.cliFunc_ledToggle
                0x0000000000003610       0x40 CMakeFiles/kiibohd.dir/Scan/Devices/ISSILed/led_scan.c.obj
                0x0000000000003610                cliFunc_ledToggle
 .text.cliFunc_ledCheck
                0x0000000000003650       0x28 CMakeFiles/kiibohd.dir/Scan/Devices/ISSILed/led_scan.c.obj
                0x0000000000003650                cliFunc_ledCheck
 .text.cliFunc_ledSet
                0x0000000000003678       0x5c CMakeFiles/kiibohd.dir/Scan/Devices/ISSILed/led_scan.c.obj
                0x0000000000003678                cliFunc_ledSet
 .text.LED_linkedSend
                0x00000000000036d4       0x74 CMakeFiles/kiibohd.dir/Scan/Devices/ISSILed/led_scan.c.obj
                0x00000000000036d4                LED_linkedSend
 .text.cliFunc_ledFPS
                0x0000000000003748       0x90 CMakeFiles/kiibohd.dir/Scan/Devices/ISSILed/led_scan.c.obj
                0x0000000000003748                cliFunc_ledFPS
 .text.LED_setupPage
                0x00000000000037d8       0x5c CMakeFiles/kiibohd.dir/Scan/Devices/ISSILed/led_scan.c.obj
                0x00000000000037d8                LED_setupPage
 .text.LED_zeroPages
                0x0000000000003834       0x94 CMakeFiles/kiibohd.dir/Scan/Devices/ISSILed/led_scan.c.obj
                0x0000000000003834                LED_zeroPages
 .text.LED_zeroControlPages
                0x00000000000038c8       0x30 CMakeFiles/kiibohd.dir/Scan/Devices/ISSILed/led_scan.c.obj
                0x00000000000038c8                LED_zeroControlPages
 .text.LED_sendPage
                0x00000000000038f8       0x4c CMakeFiles/kiibohd.dir/Scan/Devices/ISSILed/led_scan.c.obj
                0x00000000000038f8                LED_sendPage
 .text.LED_writeReg
                0x0000000000003944       0x64 CMakeFiles/kiibohd.dir/Scan/Devices/ISSILed/led_scan.c.obj
                0x0000000000003944                LED_writeReg
 .text.LED_reset
                0x00000000000039a8       0x94 CMakeFiles/kiibohd.dir/Scan/Devices/ISSILed/led_scan.c.obj
                0x00000000000039a8                LED_reset
 .text.cliFunc_ledReset
                0x0000000000003a3c       0x44 CMakeFiles/kiibohd.dir/Scan/Devices/ISSILed/led_scan.c.obj
                0x0000000000003a3c                cliFunc_ledReset
 .text.LED_setup
                0x0000000000003a80       0xe4 CMakeFiles/kiibohd.dir/Scan/Devices/ISSILed/led_scan.c.obj
                0x0000000000003a80                LED_setup
 .text.LED_scan
                0x0000000000003b64      0x1c8 CMakeFiles/kiibohd.dir/Scan/Devices/ISSILed/led_scan.c.obj
                0x0000000000003b64                LED_scan
 .text.LED_currentChange
                0x0000000000003d2c       0x28 CMakeFiles/kiibohd.dir/Scan/Devices/ISSILed/led_scan.c.obj
                0x0000000000003d2c                LED_currentChange
 .text.LED_control
                0x0000000000003d54       0xa8 CMakeFiles/kiibohd.dir/Scan/Devices/ISSILed/led_scan.c.obj
                0x0000000000003d54                LED_control
 .text.LED_control_capability
                0x0000000000003dfc       0x8c CMakeFiles/kiibohd.dir/Scan/Devices/ISSILed/led_scan.c.obj
                0x0000000000003dfc                LED_control_capability
 .text.cliFunc_matrixState
                0x0000000000003e88       0x40 CMakeFiles/kiibohd.dir/Scan/Devices/MatrixARMPeriodic/matrix_scan.c.obj
                0x0000000000003e88                cliFunc_matrixState
 .text.cliFunc_debounce
                0x0000000000003ec8       0x60 CMakeFiles/kiibohd.dir/Scan/Devices/MatrixARMPeriodic/matrix_scan.c.obj
                0x0000000000003ec8                cliFunc_debounce
 .text.cliFunc_matrixInfo
                0x0000000000003f28       0x64 CMakeFiles/kiibohd.dir/Scan/Devices/MatrixARMPeriodic/matrix_scan.c.obj
                0x0000000000003f28                cliFunc_matrixInfo
 .text.cliFunc_matrixDebug
                0x0000000000003f8c       0x90 CMakeFiles/kiibohd.dir/Scan/Devices/MatrixARMPeriodic/matrix_scan.c.obj
                0x0000000000003f8c                cliFunc_matrixDebug
 .text.cliFunc_strobeDelay
                0x000000000000401c       0x60 CMakeFiles/kiibohd.dir/Scan/Devices/MatrixARMPeriodic/matrix_scan.c.obj
                0x000000000000401c                cliFunc_strobeDelay
 .text.Matrix_setup
                0x000000000000407c      0x12c CMakeFiles/kiibohd.dir/Scan/Devices/MatrixARMPeriodic/matrix_scan.c.obj
                0x000000000000407c                Matrix_setup
 .text.Matrix_keyPositionDebug
                0x00000000000041a8       0x74 CMakeFiles/kiibohd.dir/Scan/Devices/MatrixARMPeriodic/matrix_scan.c.obj
                0x00000000000041a8                Matrix_keyPositionDebug
 .text.Matrix_single_scan
                0x000000000000421c      0x4a0 CMakeFiles/kiibohd.dir/Scan/Devices/MatrixARMPeriodic/matrix_scan.c.obj
                0x000000000000421c                Matrix_single_scan
 .text.Matrix_start
                0x00000000000046bc       0x28 CMakeFiles/kiibohd.dir/Scan/Devices/MatrixARMPeriodic/matrix_scan.c.obj
                0x00000000000046bc                Matrix_start
 .text.Matrix_currentChange
                0x00000000000046e4       0x20 CMakeFiles/kiibohd.dir/Scan/Devices/MatrixARMPeriodic/matrix_scan.c.obj
                0x00000000000046e4                Matrix_currentChange
 .text.cliFunc_lcdColor
                0x0000000000004704       0x60 CMakeFiles/kiibohd.dir/Scan/Devices/STLcd/lcd_scan.c.obj
                0x0000000000004704                cliFunc_lcdColor
 .text.SPI_setup
                0x0000000000004764       0x58 CMakeFiles/kiibohd.dir/Scan/Devices/STLcd/lcd_scan.c.obj
                0x0000000000004764                SPI_setup
 .text.SPI_write
                0x00000000000047bc       0x60 CMakeFiles/kiibohd.dir/Scan/Devices/STLcd/lcd_scan.c.obj
                0x00000000000047bc                SPI_write
 .text.LCD_writeControlReg
                0x000000000000481c       0x68 CMakeFiles/kiibohd.dir/Scan/Devices/STLcd/lcd_scan.c.obj
                0x000000000000481c                LCD_writeControlReg
 .text.cliFunc_lcdDisp
                0x0000000000004884       0x90 CMakeFiles/kiibohd.dir/Scan/Devices/STLcd/lcd_scan.c.obj
                0x0000000000004884                cliFunc_lcdDisp
 .text.LCD_writeDataReg
                0x0000000000004914       0x58 CMakeFiles/kiibohd.dir/Scan/Devices/STLcd/lcd_scan.c.obj
                0x0000000000004914                LCD_writeDataReg
 .text.cliFunc_lcdCmd
                0x000000000000496c       0x9c CMakeFiles/kiibohd.dir/Scan/Devices/STLcd/lcd_scan.c.obj
                0x000000000000496c                cliFunc_lcdCmd
 .text.LCD_writeDisplayReg
                0x0000000000004a08       0x48 CMakeFiles/kiibohd.dir/Scan/Devices/STLcd/lcd_scan.c.obj
                0x0000000000004a08                LCD_writeDisplayReg
 .text.cliFunc_lcdTest
                0x0000000000004a50       0x58 CMakeFiles/kiibohd.dir/Scan/Devices/STLcd/lcd_scan.c.obj
                0x0000000000004a50                cliFunc_lcdTest
 .text.LCD_layerStackExact_capability.part.0
                0x0000000000004aa8      0x14c CMakeFiles/kiibohd.dir/Scan/Devices/STLcd/lcd_scan.c.obj
 .text.LCD_clearPage
                0x0000000000004bf4       0x60 CMakeFiles/kiibohd.dir/Scan/Devices/STLcd/lcd_scan.c.obj
                0x0000000000004bf4                LCD_clearPage
 .text.LCD_clear
                0x0000000000004c54       0x44 CMakeFiles/kiibohd.dir/Scan/Devices/STLcd/lcd_scan.c.obj
                0x0000000000004c54                LCD_clear
 .text.LCD_initialize
                0x0000000000004c98       0x60 CMakeFiles/kiibohd.dir/Scan/Devices/STLcd/lcd_scan.c.obj
                0x0000000000004c98                LCD_initialize
 .text.cliFunc_lcdInit
                0x0000000000004cf8       0x24 CMakeFiles/kiibohd.dir/Scan/Devices/STLcd/lcd_scan.c.obj
                0x0000000000004cf8                cliFunc_lcdInit
 .text.LCD_setup
                0x0000000000004d1c      0x12c CMakeFiles/kiibohd.dir/Scan/Devices/STLcd/lcd_scan.c.obj
                0x0000000000004d1c                LCD_setup
 .text.LCD_scan
                0x0000000000004e48       0xa0 CMakeFiles/kiibohd.dir/Scan/Devices/STLcd/lcd_scan.c.obj
                0x0000000000004e48                LCD_scan
 .text.LCD_currentChange
                0x0000000000004ee8       0x34 CMakeFiles/kiibohd.dir/Scan/Devices/STLcd/lcd_scan.c.obj
                0x0000000000004ee8                LCD_currentChange
 .text.LCD_layerStackExact_capability
                0x0000000000004f1c       0x60 CMakeFiles/kiibohd.dir/Scan/Devices/STLcd/lcd_scan.c.obj
                0x0000000000004f1c                LCD_layerStackExact_capability
 .text.LCD_layerStack_capability
                0x0000000000004f7c       0xd8 CMakeFiles/kiibohd.dir/Scan/Devices/STLcd/lcd_scan.c.obj
                0x0000000000004f7c                LCD_layerStack_capability
 .text.Connect_receive_RemoteOutput
                0x0000000000005054       0x28 CMakeFiles/kiibohd.dir/Scan/Devices/UARTConnect/connect_scan.c.obj
                0x0000000000005054                Connect_receive_RemoteOutput
 .text.Connect_receive_Animation
                0x000000000000507c       0x2c CMakeFiles/kiibohd.dir/Scan/Devices/UARTConnect/connect_scan.c.obj
                0x000000000000507c                Connect_receive_Animation
 .text.cliFunc_connectDbg
                0x00000000000050a8       0x40 CMakeFiles/kiibohd.dir/Scan/Devices/UARTConnect/connect_scan.c.obj
                0x00000000000050a8                cliFunc_connectDbg
 .text.Connect_receive_CurrentEvent
                0x00000000000050e8       0x68 CMakeFiles/kiibohd.dir/Scan/Devices/UARTConnect/connect_scan.c.obj
                0x00000000000050e8                Connect_receive_CurrentEvent
 .text.Connect_receive_CableCheck
                0x0000000000005150      0x154 CMakeFiles/kiibohd.dir/Scan/Devices/UARTConnect/connect_scan.c.obj
                0x0000000000005150                Connect_receive_CableCheck
 .text.cliFunc_connectLst
                0x00000000000052a4       0x7c CMakeFiles/kiibohd.dir/Scan/Devices/UARTConnect/connect_scan.c.obj
                0x00000000000052a4                cliFunc_connectLst
 .text.cliFunc_connectSts
                0x0000000000005320      0x160 CMakeFiles/kiibohd.dir/Scan/Devices/UARTConnect/connect_scan.c.obj
                0x0000000000005320                cliFunc_connectSts
 .text.cliFunc_connectMst
                0x0000000000005480       0x84 CMakeFiles/kiibohd.dir/Scan/Devices/UARTConnect/connect_scan.c.obj
                0x0000000000005480                cliFunc_connectMst
 .text.Connect_addBytes.part.1
                0x0000000000005504       0xdc CMakeFiles/kiibohd.dir/Scan/Devices/UARTConnect/connect_scan.c.obj
 .text.Connect_receive_ScanCode
                0x00000000000055e0      0x198 CMakeFiles/kiibohd.dir/Scan/Devices/UARTConnect/connect_scan.c.obj
                0x00000000000055e0                Connect_receive_ScanCode
 .text.Connect_receive_RemoteInput
                0x0000000000005778       0x28 CMakeFiles/kiibohd.dir/Scan/Devices/UARTConnect/connect_scan.c.obj
                0x0000000000005778                Connect_receive_RemoteInput
 .text.Connect_addBytes
                0x00000000000057a0       0x54 CMakeFiles/kiibohd.dir/Scan/Devices/UARTConnect/connect_scan.c.obj
                0x00000000000057a0                Connect_addBytes
 .text.Connect_receive_RemoteCapability
                0x00000000000057f4      0x134 CMakeFiles/kiibohd.dir/Scan/Devices/UARTConnect/connect_scan.c.obj
                0x00000000000057f4                Connect_receive_RemoteCapability
 .text.Connect_send_CableCheck
                0x0000000000005928       0xa0 CMakeFiles/kiibohd.dir/Scan/Devices/UARTConnect/connect_scan.c.obj
                0x0000000000005928                Connect_send_CableCheck
 .text.Connect_send_IdRequest
                0x00000000000059c8       0x58 CMakeFiles/kiibohd.dir/Scan/Devices/UARTConnect/connect_scan.c.obj
                0x00000000000059c8                Connect_send_IdRequest
 .text.Connect_send_IdEnumeration
                0x0000000000005a20       0x58 CMakeFiles/kiibohd.dir/Scan/Devices/UARTConnect/connect_scan.c.obj
                0x0000000000005a20                Connect_send_IdEnumeration
 .text.Connect_receive_IdRequest
                0x0000000000005a78       0x50 CMakeFiles/kiibohd.dir/Scan/Devices/UARTConnect/connect_scan.c.obj
                0x0000000000005a78                Connect_receive_IdRequest
 .text.Connect_send_IdReport
                0x0000000000005ac8       0x58 CMakeFiles/kiibohd.dir/Scan/Devices/UARTConnect/connect_scan.c.obj
                0x0000000000005ac8                Connect_send_IdReport
 .text.Connect_receive_IdEnumeration
                0x0000000000005b20       0x6c CMakeFiles/kiibohd.dir/Scan/Devices/UARTConnect/connect_scan.c.obj
                0x0000000000005b20                Connect_receive_IdEnumeration
 .text.Connect_send_ScanCode
                0x0000000000005b8c       0x74 CMakeFiles/kiibohd.dir/Scan/Devices/UARTConnect/connect_scan.c.obj
                0x0000000000005b8c                Connect_send_ScanCode
 .text.Connect_send_RemoteCapability
                0x0000000000005c00       0xdc CMakeFiles/kiibohd.dir/Scan/Devices/UARTConnect/connect_scan.c.obj
                0x0000000000005c00                Connect_send_RemoteCapability
 .text.Connect_send_Idle
                0x0000000000005cdc       0x7c CMakeFiles/kiibohd.dir/Scan/Devices/UARTConnect/connect_scan.c.obj
                0x0000000000005cdc                Connect_send_Idle
 .text.cliFunc_connectIdl
                0x0000000000005d58       0x4c CMakeFiles/kiibohd.dir/Scan/Devices/UARTConnect/connect_scan.c.obj
                0x0000000000005d58                cliFunc_connectIdl
 .text.Connect_send_CurrentEvent
                0x0000000000005da4       0x60 CMakeFiles/kiibohd.dir/Scan/Devices/UARTConnect/connect_scan.c.obj
                0x0000000000005da4                Connect_send_CurrentEvent
 .text.cliFunc_connectCmd
                0x0000000000005e04       0x94 CMakeFiles/kiibohd.dir/Scan/Devices/UARTConnect/connect_scan.c.obj
                0x0000000000005e04                cliFunc_connectCmd
 .text.Connect_reset
                0x0000000000005e98       0x60 CMakeFiles/kiibohd.dir/Scan/Devices/UARTConnect/connect_scan.c.obj
                0x0000000000005e98                Connect_reset
 .text.cliFunc_connectRst
                0x0000000000005ef8       0x40 CMakeFiles/kiibohd.dir/Scan/Devices/UARTConnect/connect_scan.c.obj
                0x0000000000005ef8                cliFunc_connectRst
 .text.Connect_setup
                0x0000000000005f38      0x200 CMakeFiles/kiibohd.dir/Scan/Devices/UARTConnect/connect_scan.c.obj
                0x0000000000005f38                Connect_setup
 .text.Connect_rx_process
                0x0000000000006138      0x1e0 CMakeFiles/kiibohd.dir/Scan/Devices/UARTConnect/connect_scan.c.obj
                0x0000000000006138                Connect_rx_process
 .text.Connect_scan
                0x0000000000006318      0x20c CMakeFiles/kiibohd.dir/Scan/Devices/UARTConnect/connect_scan.c.obj
                0x0000000000006318                Connect_scan
 .text.Connect_currentChange
                0x0000000000006524       0x38 CMakeFiles/kiibohd.dir/Scan/Devices/UARTConnect/connect_scan.c.obj
                0x0000000000006524                Connect_currentChange
 .text.Connect_receive_IdReport
                0x000000000000655c       0x80 CMakeFiles/kiibohd.dir/Scan/Devices/UARTConnect/connect_scan.c.obj
                0x000000000000655c                Connect_receive_IdReport
 .text.Scan_setup
                0x00000000000065dc       0x40 CMakeFiles/kiibohd.dir/Scan/Infinity_Ergodox/scan_loop.c.obj
                0x00000000000065dc                Scan_setup
 .text.Scan_poll
                0x000000000000661c       0x2c CMakeFiles/kiibohd.dir/Scan/Infinity_Ergodox/scan_loop.c.obj
                0x000000000000661c                Scan_poll
 .text.Scan_periodic
                0x0000000000006648       0x28 CMakeFiles/kiibohd.dir/Scan/Infinity_Ergodox/scan_loop.c.obj
                0x0000000000006648                Scan_periodic
 .text.Scan_finishedWithMacro
                0x0000000000006670       0x20 CMakeFiles/kiibohd.dir/Scan/Infinity_Ergodox/scan_loop.c.obj
                0x0000000000006670                Scan_finishedWithMacro
 .text.Scan_finishedWithOutput
                0x0000000000006690       0x20 CMakeFiles/kiibohd.dir/Scan/Infinity_Ergodox/scan_loop.c.obj
                0x0000000000006690                Scan_finishedWithOutput
 .text.Scan_currentChange
                0x00000000000066b0       0x38 CMakeFiles/kiibohd.dir/Scan/Infinity_Ergodox/scan_loop.c.obj
                0x00000000000066b0                Scan_currentChange
 .text.KLL_TriggerIndex_loopkup
                0x00000000000066e8       0x58 CMakeFiles/kiibohd.dir/Macro/PartialMap/kll.c.obj
                0x00000000000066e8                KLL_TriggerIndex_loopkup
 .text.KLL_CapabilityState
                0x0000000000006740       0x80 CMakeFiles/kiibohd.dir/Macro/PartialMap/kll.c.obj
                0x0000000000006740                KLL_CapabilityState
 .text.Layer_layerStateSet.part.0
                0x00000000000067c0      0x160 CMakeFiles/kiibohd.dir/Macro/PartialMap/layer.c.obj
 .text.Layer_layerState_capability
                0x0000000000006920       0x7c CMakeFiles/kiibohd.dir/Macro/PartialMap/layer.c.obj
                0x0000000000006920                Layer_layerState_capability
 .text.Layer_layerLatch_capability
                0x000000000000699c       0x78 CMakeFiles/kiibohd.dir/Macro/PartialMap/layer.c.obj
                0x000000000000699c                Layer_layerLatch_capability
 .text.Layer_layerLock_capability
                0x0000000000006a14       0x78 CMakeFiles/kiibohd.dir/Macro/PartialMap/layer.c.obj
                0x0000000000006a14                Layer_layerLock_capability
 .text.Layer_layerShift_capability
                0x0000000000006a8c       0xb4 CMakeFiles/kiibohd.dir/Macro/PartialMap/layer.c.obj
                0x0000000000006a8c                Layer_layerShift_capability
 .text.Layer_layerRotate_capability
                0x0000000000006b40       0xb0 CMakeFiles/kiibohd.dir/Macro/PartialMap/layer.c.obj
                0x0000000000006b40                Layer_layerRotate_capability
 .text.Layer_clearLayers
                0x0000000000006bf0       0x34 CMakeFiles/kiibohd.dir/Macro/PartialMap/layer.c.obj
                0x0000000000006bf0                Layer_clearLayers
 .text.Layer_setup
                0x0000000000006c24       0x34 CMakeFiles/kiibohd.dir/Macro/PartialMap/layer.c.obj
                0x0000000000006c24                Layer_setup
 .text.Layer_layerLookup
                0x0000000000006c58      0x150 CMakeFiles/kiibohd.dir/Macro/PartialMap/layer.c.obj
                0x0000000000006c58                Layer_layerLookup
 .text.Macro_none_capability
                0x0000000000006da8       0x3c CMakeFiles/kiibohd.dir/Macro/PartialMap/macro.c.obj
                0x0000000000006da8                Macro_none_capability
 .text.cliFunc_posList
                0x0000000000006de4       0x28 CMakeFiles/kiibohd.dir/Macro/PartialMap/macro.c.obj
                0x0000000000006de4                cliFunc_posList
 .text.cliFunc_capDebug
                0x0000000000006e0c       0x48 CMakeFiles/kiibohd.dir/Macro/PartialMap/macro.c.obj
                0x0000000000006e0c                cliFunc_capDebug
 .text.cliFunc_layerDebug
                0x0000000000006e54       0x48 CMakeFiles/kiibohd.dir/Macro/PartialMap/macro.c.obj
                0x0000000000006e54                cliFunc_layerDebug
 .text.cliFunc_macroProc
                0x0000000000006e9c       0x48 CMakeFiles/kiibohd.dir/Macro/PartialMap/macro.c.obj
                0x0000000000006e9c                cliFunc_macroProc
 .text.cliFunc_capList
                0x0000000000006ee4       0x80 CMakeFiles/kiibohd.dir/Macro/PartialMap/macro.c.obj
                0x0000000000006ee4                cliFunc_capList
 .text.cliFunc_macroList
                0x0000000000006f64      0x1a0 CMakeFiles/kiibohd.dir/Macro/PartialMap/macro.c.obj
                0x0000000000006f64                cliFunc_macroList
 .text.cliFunc_macroDebug
                0x0000000000007104       0x88 CMakeFiles/kiibohd.dir/Macro/PartialMap/macro.c.obj
                0x0000000000007104                cliFunc_macroDebug
 .text.cliFunc_capSelect
                0x000000000000718c      0x124 CMakeFiles/kiibohd.dir/Macro/PartialMap/macro.c.obj
                0x000000000000718c                cliFunc_capSelect
 .text.cliFunc_layerState
                0x00000000000072b0       0x80 CMakeFiles/kiibohd.dir/Macro/PartialMap/macro.c.obj
                0x00000000000072b0                cliFunc_layerState
 .text.cliFunc_macroStep
                0x0000000000007330       0x3c CMakeFiles/kiibohd.dir/Macro/PartialMap/macro.c.obj
                0x0000000000007330                cliFunc_macroStep
 .text.cliFunc_layerList
                0x000000000000736c       0xb8 CMakeFiles/kiibohd.dir/Macro/PartialMap/macro.c.obj
                0x000000000000736c                cliFunc_layerList
 .text.cliFunc_voteDebug
                0x0000000000007424       0x5c CMakeFiles/kiibohd.dir/Macro/PartialMap/macro.c.obj
                0x0000000000007424                cliFunc_voteDebug
 .text.Macro_showScheduleType
                0x0000000000007480       0xc4 CMakeFiles/kiibohd.dir/Macro/PartialMap/macro.c.obj
                0x0000000000007480                Macro_showScheduleType
 .text.Macro_showTriggerType
                0x0000000000007544      0x108 CMakeFiles/kiibohd.dir/Macro/PartialMap/macro.c.obj
                0x0000000000007544                Macro_showTriggerType
 .text.Macro_testThreadSafe_capability
                0x000000000000764c       0x7c CMakeFiles/kiibohd.dir/Macro/PartialMap/macro.c.obj
                0x000000000000764c                Macro_testThreadSafe_capability
 .text.Macro_testThreadUnsafe_capability
                0x00000000000076c8       0x7c CMakeFiles/kiibohd.dir/Macro/PartialMap/macro.c.obj
                0x00000000000076c8                Macro_testThreadUnsafe_capability
 .text.Macro_showTriggerEvent
                0x0000000000007744       0x74 CMakeFiles/kiibohd.dir/Macro/PartialMap/macro.c.obj
                0x0000000000007744                Macro_showTriggerEvent
 .text.Macro_pressReleaseAdd
                0x00000000000077b8       0xf8 CMakeFiles/kiibohd.dir/Macro/PartialMap/macro.c.obj
                0x00000000000077b8                Macro_pressReleaseAdd
 .text.Macro_keyState
                0x00000000000078b0       0x80 CMakeFiles/kiibohd.dir/Macro/PartialMap/macro.c.obj
                0x00000000000078b0                Macro_keyState
 .text.cliFunc_keyHold
                0x0000000000007930       0x48 CMakeFiles/kiibohd.dir/Macro/PartialMap/macro.c.obj
                0x0000000000007930                cliFunc_keyHold
 .text.cliFunc_keyPress
                0x0000000000007978       0x48 CMakeFiles/kiibohd.dir/Macro/PartialMap/macro.c.obj
                0x0000000000007978                cliFunc_keyPress
 .text.cliFunc_keyRelease
                0x00000000000079c0       0x48 CMakeFiles/kiibohd.dir/Macro/PartialMap/macro.c.obj
                0x00000000000079c0                cliFunc_keyRelease
 .text.Macro_ledState
                0x0000000000007a08       0x44 CMakeFiles/kiibohd.dir/Macro/PartialMap/macro.c.obj
                0x0000000000007a08                Macro_ledState
 .text.Macro_animationState
                0x0000000000007a4c       0x74 CMakeFiles/kiibohd.dir/Macro/PartialMap/macro.c.obj
                0x0000000000007a4c                Macro_animationState
 .text.Macro_layerState
                0x0000000000007ac0       0x78 CMakeFiles/kiibohd.dir/Macro/PartialMap/macro.c.obj
                0x0000000000007ac0                Macro_layerState
 .text.Macro_timeState
                0x0000000000007b38       0x90 CMakeFiles/kiibohd.dir/Macro/PartialMap/macro.c.obj
                0x0000000000007b38                Macro_timeState
 .text.Macro_rotationState
                0x0000000000007bc8       0x68 CMakeFiles/kiibohd.dir/Macro/PartialMap/macro.c.obj
                0x0000000000007bc8                Macro_rotationState
 .text.Macro_rotate_capability
                0x0000000000007c30       0x58 CMakeFiles/kiibohd.dir/Macro/PartialMap/macro.c.obj
                0x0000000000007c30                Macro_rotate_capability
 .text.Macro_tick_update
                0x0000000000007c88       0x68 CMakeFiles/kiibohd.dir/Macro/PartialMap/macro.c.obj
                0x0000000000007c88                Macro_tick_update
 .text.Macro_poll
                0x0000000000007cf0       0x24 CMakeFiles/kiibohd.dir/Macro/PartialMap/macro.c.obj
                0x0000000000007cf0                Macro_poll
 .text.Macro_periodic
                0x0000000000007d14      0x1b8 CMakeFiles/kiibohd.dir/Macro/PartialMap/macro.c.obj
                0x0000000000007d14                Macro_periodic
 .text.Macro_setup
                0x0000000000007ecc       0x8c CMakeFiles/kiibohd.dir/Macro/PartialMap/macro.c.obj
                0x0000000000007ecc                Macro_setup
 .text.macroDebugShowTrigger
                0x0000000000007f58      0x170 CMakeFiles/kiibohd.dir/Macro/PartialMap/macro.c.obj
                0x0000000000007f58                macroDebugShowTrigger
 .text.macroDebugShowResult
                0x00000000000080c8      0x138 CMakeFiles/kiibohd.dir/Macro/PartialMap/macro.c.obj
                0x00000000000080c8                macroDebugShowResult
 .text.cliFunc_macroShow
                0x0000000000008200       0x58 CMakeFiles/kiibohd.dir/Macro/PartialMap/macro.c.obj
                0x0000000000008200                cliFunc_macroShow
 .text.Result_evalResultMacroCombo
                0x0000000000008258      0x158 CMakeFiles/kiibohd.dir/Macro/PartialMap/result.c.obj
                0x0000000000008258                Result_evalResultMacroCombo
 .text.Result_appendResultMacroToPendingList
                0x00000000000083b0      0x150 CMakeFiles/kiibohd.dir/Macro/PartialMap/result.c.obj
                0x00000000000083b0                Result_appendResultMacroToPendingList
 .text.Result_evalResultMacro
                0x0000000000008500       0x90 CMakeFiles/kiibohd.dir/Macro/PartialMap/result.c.obj
                0x0000000000008500                Result_evalResultMacro
 .text.Result_setup
                0x0000000000008590       0x3c CMakeFiles/kiibohd.dir/Macro/PartialMap/result.c.obj
                0x0000000000008590                Result_setup
 .text.Result_process_delayed
                0x00000000000085cc       0xac CMakeFiles/kiibohd.dir/Macro/PartialMap/result.c.obj
                0x00000000000085cc                Result_process_delayed
 .text.Result_process
                0x0000000000008678       0x68 CMakeFiles/kiibohd.dir/Macro/PartialMap/result.c.obj
                0x0000000000008678                Result_process
 .text.Trigger_showTriggerMacroVote
                0x00000000000086e0       0xac CMakeFiles/kiibohd.dir/Macro/PartialMap/trigger.c.obj
                0x00000000000086e0                Trigger_showTriggerMacroVote
 .text.Trigger_isLongResultMacro
                0x000000000000878c       0x44 CMakeFiles/kiibohd.dir/Macro/PartialMap/trigger.c.obj
                0x000000000000878c                Trigger_isLongResultMacro
 .text.Trigger_isLongTriggerMacro
                0x00000000000087d0       0x2c CMakeFiles/kiibohd.dir/Macro/PartialMap/trigger.c.obj
                0x00000000000087d0                Trigger_isLongTriggerMacro
 .text.Trigger_evalShortTriggerMacroVote_PHRO
                0x00000000000087fc       0x38 CMakeFiles/kiibohd.dir/Macro/PartialMap/trigger.c.obj
                0x00000000000087fc                Trigger_evalShortTriggerMacroVote_PHRO
 .text.Trigger_evalShortTriggerMacroVote_DRO
                0x0000000000008834       0x28 CMakeFiles/kiibohd.dir/Macro/PartialMap/trigger.c.obj
                0x0000000000008834                Trigger_evalShortTriggerMacroVote_DRO
 .text.Trigger_evalShortTriggerMacroVote
                0x000000000000885c       0xf8 CMakeFiles/kiibohd.dir/Macro/PartialMap/trigger.c.obj
                0x000000000000885c                Trigger_evalShortTriggerMacroVote
 .text.Trigger_evalLongTriggerMacroVote
                0x0000000000008954       0xd4 CMakeFiles/kiibohd.dir/Macro/PartialMap/trigger.c.obj
                0x0000000000008954                Trigger_evalLongTriggerMacroVote
 .text.Trigger_overallVote
                0x0000000000008a28       0xc0 CMakeFiles/kiibohd.dir/Macro/PartialMap/trigger.c.obj
                0x0000000000008a28                Trigger_overallVote
 .text.Trigger_evalTriggerMacro
                0x0000000000008ae8      0x1f8 CMakeFiles/kiibohd.dir/Macro/PartialMap/trigger.c.obj
                0x0000000000008ae8                Trigger_evalTriggerMacro
 .text.Trigger_updateTriggerMacroPendingList
                0x0000000000008ce0       0xd4 CMakeFiles/kiibohd.dir/Macro/PartialMap/trigger.c.obj
                0x0000000000008ce0                Trigger_updateTriggerMacroPendingList
 .text.Trigger_setup
                0x0000000000008db4       0x38 CMakeFiles/kiibohd.dir/Macro/PartialMap/trigger.c.obj
                0x0000000000008db4                Trigger_setup
 .text.Trigger_process
                0x0000000000008dec      0x110 CMakeFiles/kiibohd.dir/Macro/PartialMap/trigger.c.obj
                0x0000000000008dec                Trigger_process
 .text.cliFunc_aniAdd
                0x0000000000008efc       0x28 CMakeFiles/kiibohd.dir/Macro/PixelMap/pixel.c.obj
                0x0000000000008efc                cliFunc_aniAdd
 .text.cliFunc_aniDel
                0x0000000000008f24       0x34 CMakeFiles/kiibohd.dir/Macro/PixelMap/pixel.c.obj
                0x0000000000008f24                cliFunc_aniDel
 .text.cliFunc_aniStack
                0x0000000000008f58       0xe4 CMakeFiles/kiibohd.dir/Macro/PixelMap/pixel.c.obj
                0x0000000000008f58                cliFunc_aniStack
 .text.cliFunc_pixelList
                0x000000000000903c      0x15c CMakeFiles/kiibohd.dir/Macro/PixelMap/pixel.c.obj
                0x000000000000903c                cliFunc_pixelList
 .text.cliFunc_pixelTest
                0x0000000000009198      0x10c CMakeFiles/kiibohd.dir/Macro/PixelMap/pixel.c.obj
                0x0000000000009198                cliFunc_pixelTest
 .text.cliFunc_chanTest
                0x00000000000092a4      0x104 CMakeFiles/kiibohd.dir/Macro/PixelMap/pixel.c.obj
                0x00000000000092a4                cliFunc_chanTest
 .text.cliFunc_pixelSCTest
                0x00000000000093a8       0xf0 CMakeFiles/kiibohd.dir/Macro/PixelMap/pixel.c.obj
                0x00000000000093a8                cliFunc_pixelSCTest
 .text.Pixel_Pixel_capability
                0x0000000000009498       0x3c CMakeFiles/kiibohd.dir/Macro/PixelMap/pixel.c.obj
                0x0000000000009498                Pixel_Pixel_capability
 .text.Pixel_AnimationControl_capability
                0x00000000000094d4       0x90 CMakeFiles/kiibohd.dir/Macro/PixelMap/pixel.c.obj
                0x00000000000094d4                Pixel_AnimationControl_capability
 .text.Pixel_FadeSet_capability
                0x0000000000009564       0x7c CMakeFiles/kiibohd.dir/Macro/PixelMap/pixel.c.obj
                0x0000000000009564                Pixel_FadeSet_capability
 .text.Pixel_FadeLayerHighlight_capability
                0x00000000000095e0       0x28 CMakeFiles/kiibohd.dir/Macro/PixelMap/pixel.c.obj
                0x00000000000095e0                Pixel_FadeLayerHighlight_capability
 .text.Pixel_showPixelElement
                0x0000000000009608       0x74 CMakeFiles/kiibohd.dir/Macro/PixelMap/pixel.c.obj
                0x0000000000009608                Pixel_showPixelElement
 .text.Pixel_clearAnimations
                0x000000000000967c       0x3c CMakeFiles/kiibohd.dir/Macro/PixelMap/pixel.c.obj
                0x000000000000967c                Pixel_clearAnimations
 .text.Pixel_lookupAnimation
                0x00000000000096b8       0x40 CMakeFiles/kiibohd.dir/Macro/PixelMap/pixel.c.obj
                0x00000000000096b8                Pixel_lookupAnimation
 .text.Pixel_addAnimation
                0x00000000000096f8       0xe0 CMakeFiles/kiibohd.dir/Macro/PixelMap/pixel.c.obj
                0x00000000000096f8                Pixel_addAnimation
 .text.Pixel_AnimationIndex_capability
                0x00000000000097d8       0x7c CMakeFiles/kiibohd.dir/Macro/PixelMap/pixel.c.obj
                0x00000000000097d8                Pixel_AnimationIndex_capability
 .text.Pixel_Animation_capability
                0x0000000000009854       0x78 CMakeFiles/kiibohd.dir/Macro/PixelMap/pixel.c.obj
                0x0000000000009854                Pixel_Animation_capability
 .text.Pixel_addDefaultAnimation
                0x00000000000098cc       0x58 CMakeFiles/kiibohd.dir/Macro/PixelMap/pixel.c.obj
                0x00000000000098cc                Pixel_addDefaultAnimation
 .text.Pixel_bufferMap
                0x0000000000009924       0x74 CMakeFiles/kiibohd.dir/Macro/PixelMap/pixel.c.obj
                0x0000000000009924                Pixel_bufferMap
 .text.LED_bufferMap
                0x0000000000009998       0x74 CMakeFiles/kiibohd.dir/Macro/PixelMap/pixel.c.obj
                0x0000000000009998                LED_bufferMap
 .text.Pixel_pixelEvaluation
                0x0000000000009a0c      0x340 CMakeFiles/kiibohd.dir/Macro/PixelMap/pixel.c.obj
                0x0000000000009a0c                Pixel_pixelEvaluation
 .text.Pixel_pixelTweenNextPos
                0x0000000000009d4c       0x44 CMakeFiles/kiibohd.dir/Macro/PixelMap/pixel.c.obj
                0x0000000000009d4c                Pixel_pixelTweenNextPos
 .text.Pixel_channelSet
                0x0000000000009d90       0x84 CMakeFiles/kiibohd.dir/Macro/PixelMap/pixel.c.obj
                0x0000000000009d90                Pixel_channelSet
 .text.Pixel_channelToggle
                0x0000000000009e14       0x90 CMakeFiles/kiibohd.dir/Macro/PixelMap/pixel.c.obj
                0x0000000000009e14                Pixel_channelToggle
 .text.Pixel_pixelSet
                0x0000000000009ea4       0x3c CMakeFiles/kiibohd.dir/Macro/PixelMap/pixel.c.obj
                0x0000000000009ea4                Pixel_pixelSet
 .text.Pixel_clearPixels
                0x0000000000009ee0       0x34 CMakeFiles/kiibohd.dir/Macro/PixelMap/pixel.c.obj
                0x0000000000009ee0                Pixel_clearPixels
 .text.Pixel_pixelToggle
                0x0000000000009f14       0x38 CMakeFiles/kiibohd.dir/Macro/PixelMap/pixel.c.obj
                0x0000000000009f14                Pixel_pixelToggle
 .text.cliFunc_pixelXYTest
                0x0000000000009f4c      0x23c CMakeFiles/kiibohd.dir/Macro/PixelMap/pixel.c.obj
                0x0000000000009f4c                cliFunc_pixelXYTest
 .text.Pixel_SecondaryProcessing_profile_init
                0x000000000000a188       0x54 CMakeFiles/kiibohd.dir/Macro/PixelMap/pixel.c.obj
                0x000000000000a188                Pixel_SecondaryProcessing_profile_init
 .text.Pixel_SecondaryProcessing_setup
                0x000000000000a1dc       0x90 CMakeFiles/kiibohd.dir/Macro/PixelMap/pixel.c.obj
                0x000000000000a1dc                Pixel_SecondaryProcessing_setup
 .text.Pixel_SecondaryProcessing
                0x000000000000a26c      0x1fc CMakeFiles/kiibohd.dir/Macro/PixelMap/pixel.c.obj
                0x000000000000a26c                Pixel_SecondaryProcessing
 .text.Pixel_determineLastTriggerScanCode
                0x000000000000a468       0x3c CMakeFiles/kiibohd.dir/Macro/PixelMap/pixel.c.obj
                0x000000000000a468                Pixel_determineLastTriggerScanCode
 .text.Pixel_fillPixelLookup
                0x000000000000a4a4      0x274 CMakeFiles/kiibohd.dir/Macro/PixelMap/pixel.c.obj
                0x000000000000a4a4                Pixel_fillPixelLookup
 .text.Pixel_pixelTweenStandard
                0x000000000000a718       0x70 CMakeFiles/kiibohd.dir/Macro/PixelMap/pixel.c.obj
                0x000000000000a718                Pixel_pixelTweenStandard
 .text.Pixel_pixelTweenInterpolation
                0x000000000000a788      0x240 CMakeFiles/kiibohd.dir/Macro/PixelMap/pixel.c.obj
                0x000000000000a788                Pixel_pixelTweenInterpolation
 .text.Pixel_frameTweenStandard
                0x000000000000a9c8       0x58 CMakeFiles/kiibohd.dir/Macro/PixelMap/pixel.c.obj
                0x000000000000a9c8                Pixel_frameTweenStandard
 .text.Pixel_animationProcess
                0x000000000000aa20       0xa8 CMakeFiles/kiibohd.dir/Macro/PixelMap/pixel.c.obj
                0x000000000000aa20                Pixel_animationProcess
 .text.Pixel_stackProcess
                0x000000000000aac8       0x6c CMakeFiles/kiibohd.dir/Macro/PixelMap/pixel.c.obj
                0x000000000000aac8                Pixel_stackProcess
 .text.Pixel_setAnimationControl
                0x000000000000ab34       0x28 CMakeFiles/kiibohd.dir/Macro/PixelMap/pixel.c.obj
                0x000000000000ab34                Pixel_setAnimationControl
 .text.Pixel_initializeStartAnimations
                0x000000000000ab5c       0x60 CMakeFiles/kiibohd.dir/Macro/PixelMap/pixel.c.obj
                0x000000000000ab5c                Pixel_initializeStartAnimations
 .text.Pixel_process
                0x000000000000abbc      0x2d4 CMakeFiles/kiibohd.dir/Macro/PixelMap/pixel.c.obj
                0x000000000000abbc                Pixel_process
 .text.Pixel_setup
                0x000000000000ae90       0x68 CMakeFiles/kiibohd.dir/Macro/PixelMap/pixel.c.obj
                0x000000000000ae90                Pixel_setup
 .text.Pixel_dispBuffer
                0x000000000000aef8       0xd4 CMakeFiles/kiibohd.dir/Macro/PixelMap/pixel.c.obj
                0x000000000000aef8                Pixel_dispBuffer
 .text.cliFunc_rectDisp
                0x000000000000afcc       0x2c CMakeFiles/kiibohd.dir/Macro/PixelMap/pixel.c.obj
                0x000000000000afcc                cliFunc_rectDisp
 .text.HIDIO_supported_0_call
                0x000000000000aff8       0x24 CMakeFiles/kiibohd.dir/Output/HID-IO/hidio_com.c.obj
                0x000000000000aff8                HIDIO_supported_0_call
 .text.HIDIO_supported_0_reply
                0x000000000000b01c       0x24 CMakeFiles/kiibohd.dir/Output/HID-IO/hidio_com.c.obj
                0x000000000000b01c                HIDIO_supported_0_reply
 .text.HIDIO_test_2_reply
                0x000000000000b040       0x4c CMakeFiles/kiibohd.dir/Output/HID-IO/hidio_com.c.obj
                0x000000000000b040                HIDIO_test_2_reply
 .text.HIDIO_info_1_reply
                0x000000000000b08c       0x24 CMakeFiles/kiibohd.dir/Output/HID-IO/hidio_com.c.obj
                0x000000000000b08c                HIDIO_info_1_reply
 .text.HIDIO_info_1_call
                0x000000000000b0b0       0x24 CMakeFiles/kiibohd.dir/Output/HID-IO/hidio_com.c.obj
                0x000000000000b0b0                HIDIO_info_1_call
 .text.HIDIO_buffer_munch
                0x000000000000b0d4       0x58 CMakeFiles/kiibohd.dir/Output/HID-IO/hidio_com.c.obj
                0x000000000000b0d4                HIDIO_buffer_munch
 .text.HIDIO_buffer_push_byte
                0x000000000000b12c       0x34 CMakeFiles/kiibohd.dir/Output/HID-IO/hidio_com.c.obj
                0x000000000000b12c                HIDIO_buffer_push_byte
 .text.HIDIO_modify_buffer
                0x000000000000b160       0x44 CMakeFiles/kiibohd.dir/Output/HID-IO/hidio_com.c.obj
                0x000000000000b160                HIDIO_modify_buffer
 .text.HIDIO_buffer_pop_bytes
                0x000000000000b1a4       0x64 CMakeFiles/kiibohd.dir/Output/HID-IO/hidio_com.c.obj
                0x000000000000b1a4                HIDIO_buffer_pop_bytes
 .text.HIDIO_buffer_free_bytes
                0x000000000000b208       0x30 CMakeFiles/kiibohd.dir/Output/HID-IO/hidio_com.c.obj
                0x000000000000b208                HIDIO_buffer_free_bytes
 .text.HIDIO_buffer_position
                0x000000000000b238       0x30 CMakeFiles/kiibohd.dir/Output/HID-IO/hidio_com.c.obj
                0x000000000000b238                HIDIO_buffer_position
 .text.HIDIO_buffer_id
                0x000000000000b268       0x2c CMakeFiles/kiibohd.dir/Output/HID-IO/hidio_com.c.obj
                0x000000000000b268                HIDIO_buffer_id
 .text.HIDIO_payload_start
                0x000000000000b294       0x28 CMakeFiles/kiibohd.dir/Output/HID-IO/hidio_com.c.obj
                0x000000000000b294                HIDIO_payload_start
 .text.HIDIO_buffer_generate_packet
                0x000000000000b2bc      0x1f4 CMakeFiles/kiibohd.dir/Output/HID-IO/hidio_com.c.obj
                0x000000000000b2bc                HIDIO_buffer_generate_packet
 .text.HIDIO_test_2_call
                0x000000000000b4b0       0xc4 CMakeFiles/kiibohd.dir/Output/HID-IO/hidio_com.c.obj
                0x000000000000b4b0                HIDIO_test_2_call
 .text.HIDIO_nopayload_ack
                0x000000000000b574       0x38 CMakeFiles/kiibohd.dir/Output/HID-IO/hidio_com.c.obj
                0x000000000000b574                HIDIO_nopayload_ack
 .text.HIDIO_register_id
                0x000000000000b5ac       0x68 CMakeFiles/kiibohd.dir/Output/HID-IO/hidio_com.c.obj
                0x000000000000b5ac                HIDIO_register_id
 .text.HIDIO_call_id
                0x000000000000b614       0xac CMakeFiles/kiibohd.dir/Output/HID-IO/hidio_com.c.obj
                0x000000000000b614                HIDIO_call_id
 .text.HIDIO_reply_id
                0x000000000000b6c0       0xa8 CMakeFiles/kiibohd.dir/Output/HID-IO/hidio_com.c.obj
                0x000000000000b6c0                HIDIO_reply_id
 .text.HIDIO_setup
                0x000000000000b768       0xf0 CMakeFiles/kiibohd.dir/Output/HID-IO/hidio_com.c.obj
                0x000000000000b768                HIDIO_setup
 .text.HIDIO_process_incoming_packet
                0x000000000000b858      0x244 CMakeFiles/kiibohd.dir/Output/HID-IO/hidio_com.c.obj
                0x000000000000b858                HIDIO_process_incoming_packet
 .text.HIDIO_process
                0x000000000000ba9c       0xbc CMakeFiles/kiibohd.dir/Output/HID-IO/hidio_com.c.obj
                0x000000000000ba9c                HIDIO_process
 .text.cliFunc_outputDebug
                0x000000000000bb58       0x44 CMakeFiles/kiibohd.dir/Output/Interface/output_gen.c.obj
                0x000000000000bb58                cliFunc_outputDebug
 .text.Output_flashMode_capability
                0x000000000000bb9c       0x44 CMakeFiles/kiibohd.dir/Output/Interface/output_gen.c.obj
                0x000000000000bb9c                Output_flashMode_capability
 .text.OutputGen_setup
                0x000000000000bbe0       0x50 CMakeFiles/kiibohd.dir/Output/Interface/output_gen.c.obj
                0x000000000000bbe0                OutputGen_setup
 .text.Output_current_available
                0x000000000000bc30       0x34 CMakeFiles/kiibohd.dir/Output/Interface/output_gen.c.obj
                0x000000000000bc30                Output_current_available
 .text.Output_update_usb_current
                0x000000000000bc64       0x40 CMakeFiles/kiibohd.dir/Output/Interface/output_gen.c.obj
                0x000000000000bc64                Output_update_usb_current
 .text.Output_update_external_current
                0x000000000000bca4       0x60 CMakeFiles/kiibohd.dir/Output/Interface/output_gen.c.obj
                0x000000000000bca4                Output_update_external_current
 .text.cliFunc_current
                0x000000000000bd04       0x5c CMakeFiles/kiibohd.dir/Output/Interface/output_gen.c.obj
                0x000000000000bd04                cliFunc_current
 .text.Output_setup
                0x000000000000bd60       0x28 CMakeFiles/kiibohd.dir/Output/USB/output_com.c.obj
                0x000000000000bd60                Output_setup
 .text.Output_poll
                0x000000000000bd88       0x24 CMakeFiles/kiibohd.dir/Output/USB/output_com.c.obj
                0x000000000000bd88                Output_poll
 .text.Output_periodic
                0x000000000000bdac       0x24 CMakeFiles/kiibohd.dir/Output/USB/output_com.c.obj
                0x000000000000bdac                Output_periodic
 .text.Output_firmwareReload
                0x000000000000bdd0       0x24 CMakeFiles/kiibohd.dir/Output/USB/output_com.c.obj
                0x000000000000bdd0                Output_firmwareReload
 .text.Output_softReset
                0x000000000000bdf4       0x24 CMakeFiles/kiibohd.dir/Output/USB/output_com.c.obj
                0x000000000000bdf4                Output_softReset
 .text.Output_availablechar
                0x000000000000be18       0x24 CMakeFiles/kiibohd.dir/Output/USB/output_com.c.obj
                0x000000000000be18                Output_availablechar
 .text.Output_getchar
                0x000000000000be3c       0x24 CMakeFiles/kiibohd.dir/Output/USB/output_com.c.obj
                0x000000000000be3c                Output_getchar
 .text.Output_putstr
                0x000000000000be60       0x24 CMakeFiles/kiibohd.dir/Output/USB/output_com.c.obj
                0x000000000000be60                Output_putstr
 .text.Output_rawio_availablechar
                0x000000000000be84       0x24 CMakeFiles/kiibohd.dir/Output/USB/output_com.c.obj
                0x000000000000be84                Output_rawio_availablechar
 .text.Output_rawio_getbuffer
                0x000000000000bea8       0x24 CMakeFiles/kiibohd.dir/Output/USB/output_com.c.obj
                0x000000000000bea8                Output_rawio_getbuffer
 .text.Output_rawio_sendbuffer
                0x000000000000becc       0x24 CMakeFiles/kiibohd.dir/Output/USB/output_com.c.obj
                0x000000000000becc                Output_rawio_sendbuffer
 .text.cliFunc_readLEDs
                0x000000000000bef0       0x40 CMakeFiles/kiibohd.dir/Output/USB/output_usb.c.obj
                0x000000000000bef0                cliFunc_readLEDs
 .text.cliFunc_usbAddr
                0x000000000000bf30       0x40 CMakeFiles/kiibohd.dir/Output/USB/output_usb.c.obj
                0x000000000000bf30                cliFunc_usbAddr
 .text.cliFunc_idle
                0x000000000000bf70       0x6c CMakeFiles/kiibohd.dir/Output/USB/output_usb.c.obj
                0x000000000000bf70                cliFunc_idle
 .text.cliFunc_usbConf
                0x000000000000bfdc       0x3c CMakeFiles/kiibohd.dir/Output/USB/output_usb.c.obj
                0x000000000000bfdc                cliFunc_usbConf
 .text.cliFunc_usbInitTime
                0x000000000000c018       0x68 CMakeFiles/kiibohd.dir/Output/USB/output_usb.c.obj
                0x000000000000c018                cliFunc_usbInitTime
 .text.cliFunc_kbdProtocol
                0x000000000000c080       0x74 CMakeFiles/kiibohd.dir/Output/USB/output_usb.c.obj
                0x000000000000c080                cliFunc_kbdProtocol
 .text.Output_consCtrlSend_capability
                0x000000000000c0f4       0x94 CMakeFiles/kiibohd.dir/Output/USB/output_usb.c.obj
                0x000000000000c0f4                Output_consCtrlSend_capability
 .text.Output_noneSend_capability
                0x000000000000c188       0x3c CMakeFiles/kiibohd.dir/Output/USB/output_usb.c.obj
                0x000000000000c188                Output_noneSend_capability
 .text.Output_sysCtrlSend_capability
                0x000000000000c1c4       0x94 CMakeFiles/kiibohd.dir/Output/USB/output_usb.c.obj
                0x000000000000c1c4                Output_sysCtrlSend_capability
 .text.Output_usbCodeSend_capability
                0x000000000000c258      0x244 CMakeFiles/kiibohd.dir/Output/USB/output_usb.c.obj
                0x000000000000c258                Output_usbCodeSend_capability
 .text.Output_usbMouse_capability
                0x000000000000c49c       0xc0 CMakeFiles/kiibohd.dir/Output/USB/output_usb.c.obj
                0x000000000000c49c                Output_usbMouse_capability
 .text.Output_usbMouseWheel_capability
                0x000000000000c55c       0x80 CMakeFiles/kiibohd.dir/Output/USB/output_usb.c.obj
                0x000000000000c55c                Output_usbMouseWheel_capability
 .text.USB_flushBuffers
                0x000000000000c5dc       0x54 CMakeFiles/kiibohd.dir/Output/USB/output_usb.c.obj
                0x000000000000c5dc                USB_flushBuffers
 .text.Output_kbdProtocolBoot_capability
                0x000000000000c630       0x68 CMakeFiles/kiibohd.dir/Output/USB/output_usb.c.obj
                0x000000000000c630                Output_kbdProtocolBoot_capability
 .text.Output_kbdProtocolNKRO_capability
                0x000000000000c698       0x68 CMakeFiles/kiibohd.dir/Output/USB/output_usb.c.obj
                0x000000000000c698                Output_kbdProtocolNKRO_capability
 .text.Output_toggleKbdProtocol_capability
                0x000000000000c700       0x6c CMakeFiles/kiibohd.dir/Output/USB/output_usb.c.obj
                0x000000000000c700                Output_toggleKbdProtocol_capability
 .text.USB_setup
                0x000000000000c76c       0xbc CMakeFiles/kiibohd.dir/Output/USB/output_usb.c.obj
                0x000000000000c76c                USB_setup
 .text.USB_poll
                0x000000000000c828       0x3c CMakeFiles/kiibohd.dir/Output/USB/output_usb.c.obj
                0x000000000000c828                USB_poll
 .text.USB_indicator_update
                0x000000000000c864       0x90 CMakeFiles/kiibohd.dir/Output/USB/output_usb.c.obj
                0x000000000000c864                USB_indicator_update
 .text.USB_periodic
                0x000000000000c8f4       0xd4 CMakeFiles/kiibohd.dir/Output/USB/output_usb.c.obj
                0x000000000000c8f4                USB_periodic
 .text.USB_SysCtrlDebug
                0x000000000000c9c8       0x3c CMakeFiles/kiibohd.dir/Output/USB/output_usb.c.obj
                0x000000000000c9c8                USB_SysCtrlDebug
 .text.USB_ConsCtrlDebug
                0x000000000000ca04       0x3c CMakeFiles/kiibohd.dir/Output/USB/output_usb.c.obj
                0x000000000000ca04                USB_ConsCtrlDebug
 .text.USB_6KRODebug
                0x000000000000ca40       0x84 CMakeFiles/kiibohd.dir/Output/USB/output_usb.c.obj
                0x000000000000ca40                USB_6KRODebug
 .text.USB_NKRODebug
                0x000000000000cac4       0x78 CMakeFiles/kiibohd.dir/Output/USB/output_usb.c.obj
                0x000000000000cac4                USB_NKRODebug
 .text.USB_firmwareReload
                0x000000000000cb3c       0x24 CMakeFiles/kiibohd.dir/Output/USB/output_usb.c.obj
                0x000000000000cb3c                USB_firmwareReload
 .text.USB_softReset
                0x000000000000cb60       0x2c CMakeFiles/kiibohd.dir/Output/USB/output_usb.c.obj
                0x000000000000cb60                USB_softReset
 .text.USB_availablechar
                0x000000000000cb8c       0x24 CMakeFiles/kiibohd.dir/Output/USB/output_usb.c.obj
                0x000000000000cb8c                USB_availablechar
 .text.USB_getchar
                0x000000000000cbb0       0x24 CMakeFiles/kiibohd.dir/Output/USB/output_usb.c.obj
                0x000000000000cbb0                USB_getchar
 .text.USB_putstr
                0x000000000000cbd4       0x30 CMakeFiles/kiibohd.dir/Output/USB/output_usb.c.obj
                0x000000000000cbd4                USB_putstr
 .text.USB_rawio_availablechar
                0x000000000000cc04       0x24 CMakeFiles/kiibohd.dir/Output/USB/output_usb.c.obj
                0x000000000000cc04                USB_rawio_availablechar
 .text.USB_rawio_getbuffer
                0x000000000000cc28       0x24 CMakeFiles/kiibohd.dir/Output/USB/output_usb.c.obj
                0x000000000000cc28                USB_rawio_getbuffer
 .text.USB_rawio_sendbuffer
                0x000000000000cc4c       0x24 CMakeFiles/kiibohd.dir/Output/USB/output_usb.c.obj
                0x000000000000cc4c                USB_rawio_sendbuffer
 .text.usb_set_config_descriptor_size
                0x000000000000cc70       0x2c CMakeFiles/kiibohd.dir/Output/USB/arm/usb_desc.c.obj
                0x000000000000cc70                usb_set_config_descriptor_size
 .text.endpoint0_transmit
                0x000000000000cc9c       0x58 CMakeFiles/kiibohd.dir/Output/USB/arm/usb_dev.c.obj
 .text.usb_device_check
                0x000000000000ccf4       0x5c CMakeFiles/kiibohd.dir/Output/USB/arm/usb_dev.c.obj
                0x000000000000ccf4                usb_device_check
 .text.usb_set_configuration
                0x000000000000cd50       0x34 CMakeFiles/kiibohd.dir/Output/USB/arm/usb_dev.c.obj
                0x000000000000cd50                usb_set_configuration
 .text.usb_setup
                0x000000000000cd84      0x58c CMakeFiles/kiibohd.dir/Output/USB/arm/usb_dev.c.obj
                0x000000000000cd84                usb_setup
 .text.keyboard_control
                0x000000000000d310       0x74 CMakeFiles/kiibohd.dir/Output/USB/arm/usb_dev.c.obj
                0x000000000000d310                keyboard_control
 .text.usb_rx   0x000000000000d384       0x50 CMakeFiles/kiibohd.dir/Output/USB/arm/usb_dev.c.obj
                0x000000000000d384                usb_rx
 .text.usb_tx_packet_count
                0x000000000000d3d4       0x40 CMakeFiles/kiibohd.dir/Output/USB/arm/usb_dev.c.obj
                0x000000000000d3d4                usb_tx_packet_count
 .text.usb_rx_memory
                0x000000000000d414       0x98 CMakeFiles/kiibohd.dir/Output/USB/arm/usb_dev.c.obj
                0x000000000000d414                usb_rx_memory
 .text.usb_tx   0x000000000000d4ac       0xc0 CMakeFiles/kiibohd.dir/Output/USB/arm/usb_dev.c.obj
                0x000000000000d4ac                usb_tx
 .text.usb_resume
                0x000000000000d56c       0x6c CMakeFiles/kiibohd.dir/Output/USB/arm/usb_dev.c.obj
                0x000000000000d56c                usb_resume
 .text.usb_device_reload
                0x000000000000d5d8       0x50 CMakeFiles/kiibohd.dir/Output/USB/arm/usb_dev.c.obj
                0x000000000000d5d8                usb_device_reload
 .text.usb_isr  0x000000000000d628      0x3b8 CMakeFiles/kiibohd.dir/Output/USB/arm/usb_dev.c.obj
                0x000000000000d628                usb_isr
 .text.usb_init
                0x000000000000d9e0      0x144 CMakeFiles/kiibohd.dir/Output/USB/arm/usb_dev.c.obj
                0x000000000000d9e0                usb_init
 .text.usb_configured
                0x000000000000db24       0x28 CMakeFiles/kiibohd.dir/Output/USB/arm/usb_dev.c.obj
                0x000000000000db24                usb_configured
 .text.usb_keyboard_send
                0x000000000000db4c      0x210 CMakeFiles/kiibohd.dir/Output/USB/arm/usb_keyboard.c.obj
                0x000000000000db4c                usb_keyboard_send
 .text.usb_keyboard_idle_update
                0x000000000000dd5c       0x64 CMakeFiles/kiibohd.dir/Output/USB/arm/usb_keyboard.c.obj
                0x000000000000dd5c                usb_keyboard_idle_update
 .text.usb_keyboard_clear
                0x000000000000ddc0       0x38 CMakeFiles/kiibohd.dir/Output/USB/arm/usb_keyboard.c.obj
                0x000000000000ddc0                usb_keyboard_clear
 .text.usb_malloc
                0x000000000000ddf8       0x54 CMakeFiles/kiibohd.dir/Output/USB/arm/usb_mem.c.obj
                0x000000000000ddf8                usb_malloc
 .text.usb_free
                0x000000000000de4c       0x70 CMakeFiles/kiibohd.dir/Output/USB/arm/usb_mem.c.obj
                0x000000000000de4c                usb_free
 .text.usb_mouse_send
                0x000000000000debc      0x110 CMakeFiles/kiibohd.dir/Output/USB/arm/usb_mouse.c.obj
                0x000000000000debc                usb_mouse_send
 .text.usb_rawio_available
                0x000000000000dfcc       0x34 CMakeFiles/kiibohd.dir/Output/USB/arm/usb_rawio.c.obj
                0x000000000000dfcc                usb_rawio_available
 .text.usb_rawio_rx
                0x000000000000e000       0x84 CMakeFiles/kiibohd.dir/Output/USB/arm/usb_rawio.c.obj
                0x000000000000e000                usb_rawio_rx
 .text.usb_rawio_tx
                0x000000000000e084       0x94 CMakeFiles/kiibohd.dir/Output/USB/arm/usb_rawio.c.obj
                0x000000000000e084                usb_rawio_tx
 .text.usb_serial_getchar
                0x000000000000e118       0x64 CMakeFiles/kiibohd.dir/Output/USB/arm/usb_serial.c.obj
                0x000000000000e118                usb_serial_getchar
 .text.usb_serial_available
                0x000000000000e17c       0x38 CMakeFiles/kiibohd.dir/Output/USB/arm/usb_serial.c.obj
                0x000000000000e17c                usb_serial_available
 .text.usb_serial_write
                0x000000000000e1b4      0x100 CMakeFiles/kiibohd.dir/Output/USB/arm/usb_serial.c.obj
                0x000000000000e1b4                usb_serial_write
 .text.usb_serial_flush_callback
                0x000000000000e2b4       0x6c CMakeFiles/kiibohd.dir/Output/USB/arm/usb_serial.c.obj
                0x000000000000e2b4                usb_serial_flush_callback
 .text.cliFunc_clear
                0x000000000000e320       0x28 CMakeFiles/kiibohd.dir/Debug/cli/cli.c.obj
                0x000000000000e320                cliFunc_clear
 .text.cliFunc_colorTest
                0x000000000000e348       0x34 CMakeFiles/kiibohd.dir/Debug/cli/cli.c.obj
                0x000000000000e348                cliFunc_colorTest
 .text.cliFunc_reload
                0x000000000000e37c       0x3c CMakeFiles/kiibohd.dir/Debug/cli/cli.c.obj
                0x000000000000e37c                cliFunc_reload
 .text.cliFunc_reset
                0x000000000000e3b8       0x28 CMakeFiles/kiibohd.dir/Debug/cli/cli.c.obj
                0x000000000000e3b8                cliFunc_reset
 .text.cliFunc_help
                0x000000000000e3e0       0xdc CMakeFiles/kiibohd.dir/Debug/cli/cli.c.obj
                0x000000000000e3e0                cliFunc_help
 .text.cliFunc_led
                0x000000000000e4bc       0x30 CMakeFiles/kiibohd.dir/Debug/cli/cli.c.obj
                0x000000000000e4bc                cliFunc_led
 .text.cliFunc_restart
                0x000000000000e4ec       0x24 CMakeFiles/kiibohd.dir/Debug/cli/cli.c.obj
                0x000000000000e4ec                cliFunc_restart
 .text.cliFunc_tick
                0x000000000000e510       0x70 CMakeFiles/kiibohd.dir/Debug/cli/cli.c.obj
                0x000000000000e510                cliFunc_tick
 .text.cliFunc_cliDebug
                0x000000000000e580       0x50 CMakeFiles/kiibohd.dir/Debug/cli/cli.c.obj
                0x000000000000e580                cliFunc_cliDebug
 .text.cliFunc_rand
                0x000000000000e5d0       0x5c CMakeFiles/kiibohd.dir/Debug/cli/cli.c.obj
                0x000000000000e5d0                cliFunc_rand
 .text.ChipVersion_cpuid_partno
                0x000000000000e62c       0x70 CMakeFiles/kiibohd.dir/Debug/cli/cli.c.obj
                0x000000000000e62c                ChipVersion_cpuid_partno
 .text.ChipVersion_cpuid_implementor
                0x000000000000e69c       0x3c CMakeFiles/kiibohd.dir/Debug/cli/cli.c.obj
                0x000000000000e69c                ChipVersion_cpuid_implementor
 .text.ChipVersion_lookup
                0x000000000000e6d8       0xc0 CMakeFiles/kiibohd.dir/Debug/cli/cli.c.obj
                0x000000000000e6d8                ChipVersion_lookup
 .text.cliFunc_version
                0x000000000000e798      0x348 CMakeFiles/kiibohd.dir/Debug/cli/cli.c.obj
                0x000000000000e798                cliFunc_version
 .text.prompt   0x000000000000eae0       0x34 CMakeFiles/kiibohd.dir/Debug/cli/cli.c.obj
                0x000000000000eae0                prompt
 .text.CLI_argumentIsolation
                0x000000000000eb14       0x44 CMakeFiles/kiibohd.dir/Debug/cli/cli.c.obj
                0x000000000000eb14                CLI_argumentIsolation
 .text.cliFunc_periodic
                0x000000000000eb58       0x50 CMakeFiles/kiibohd.dir/Debug/cli/cli.c.obj
                0x000000000000eb58                cliFunc_periodic
 .text.CLI_commandLookup
                0x000000000000eba8       0xe8 CMakeFiles/kiibohd.dir/Debug/cli/cli.c.obj
                0x000000000000eba8                CLI_commandLookup
 .text.CLI_registerDictionary
                0x000000000000ec90       0x58 CMakeFiles/kiibohd.dir/Debug/cli/cli.c.obj
                0x000000000000ec90                CLI_registerDictionary
 .text.CLI_init
                0x000000000000ece8       0x70 CMakeFiles/kiibohd.dir/Debug/cli/cli.c.obj
                0x000000000000ece8                CLI_init
 .text.CLI_tabCompletion
                0x000000000000ed58       0xd0 CMakeFiles/kiibohd.dir/Debug/cli/cli.c.obj
                0x000000000000ed58                CLI_tabCompletion
 .text.CLI_wrap
                0x000000000000ee28       0x44 CMakeFiles/kiibohd.dir/Debug/cli/cli.c.obj
                0x000000000000ee28                CLI_wrap
 .text.CLI_saveHistory
                0x000000000000ee6c       0x68 CMakeFiles/kiibohd.dir/Debug/cli/cli.c.obj
                0x000000000000ee6c                CLI_saveHistory
 .text.CLI_retreiveHistory
                0x000000000000eed4       0x5c CMakeFiles/kiibohd.dir/Debug/cli/cli.c.obj
                0x000000000000eed4                CLI_retreiveHistory
 .text.CLI_process
                0x000000000000ef30      0x230 CMakeFiles/kiibohd.dir/Debug/cli/cli.c.obj
                0x000000000000ef30                CLI_process
 .text.printLatency
                0x000000000000f160       0x98 CMakeFiles/kiibohd.dir/Debug/cli/cli.c.obj
                0x000000000000f160                printLatency
 .text.cliFunc_latency
                0x000000000000f1f8       0x84 CMakeFiles/kiibohd.dir/Debug/cli/cli.c.obj
                0x000000000000f1f8                cliFunc_latency
 .text.Latency_init
                0x000000000000f27c       0x38 CMakeFiles/kiibohd.dir/Debug/latency/latency.c.obj
                0x000000000000f27c                Latency_init
 .text.Latency_resources
                0x000000000000f2b4       0x28 CMakeFiles/kiibohd.dir/Debug/latency/latency.c.obj
                0x000000000000f2b4                Latency_resources
 .text.Latency_add_resource
                0x000000000000f2dc       0x54 CMakeFiles/kiibohd.dir/Debug/latency/latency.c.obj
                0x000000000000f2dc                Latency_add_resource
 .text.Latency_query
                0x000000000000f330       0x70 CMakeFiles/kiibohd.dir/Debug/latency/latency.c.obj
                0x000000000000f330                Latency_query
 .text.Latency_query_name
                0x000000000000f3a0       0x2c CMakeFiles/kiibohd.dir/Debug/latency/latency.c.obj
                0x000000000000f3a0                Latency_query_name
 .text.Latency_start_time
                0x000000000000f3cc       0x3c CMakeFiles/kiibohd.dir/Debug/latency/latency.c.obj
                0x000000000000f3cc                Latency_start_time
 .text.Latency_end_time
                0x000000000000f408       0xa4 CMakeFiles/kiibohd.dir/Debug/latency/latency.c.obj
                0x000000000000f408                Latency_end_time
 .text.init_errorLED
                0x000000000000f4ac       0x34 CMakeFiles/kiibohd.dir/Debug/led/led.c.obj
                0x000000000000f4ac                init_errorLED
 .text.errorLED
                0x000000000000f4e0       0x48 CMakeFiles/kiibohd.dir/Debug/led/led.c.obj
                0x000000000000f4e0                errorLED
 .text.printstrs
                0x000000000000f528       0x48 CMakeFiles/kiibohd.dir/Debug/print/print.c.obj
                0x000000000000f528                printstrs
 .text._print   0x000000000000f570       0x24 CMakeFiles/kiibohd.dir/Debug/print/print.c.obj
                0x000000000000f570                _print
 .text.lenStr   0x000000000000f594       0x2c CMakeFiles/kiibohd.dir/Debug/print/print.c.obj
                0x000000000000f594                lenStr
 .text.revsStr  0x000000000000f5c0       0x40 CMakeFiles/kiibohd.dir/Debug/print/print.c.obj
                0x000000000000f5c0                revsStr
 .text.int8ToStr
                0x000000000000f600       0x44 CMakeFiles/kiibohd.dir/Debug/print/print.c.obj
                0x000000000000f600                int8ToStr
 .text.printInt8
                0x000000000000f644       0x28 CMakeFiles/kiibohd.dir/Debug/print/print.c.obj
                0x000000000000f644                printInt8
 .text.int16ToStr
                0x000000000000f66c       0x44 CMakeFiles/kiibohd.dir/Debug/print/print.c.obj
                0x000000000000f66c                int16ToStr
 .text.printInt16
                0x000000000000f6b0       0x28 CMakeFiles/kiibohd.dir/Debug/print/print.c.obj
                0x000000000000f6b0                printInt16
 .text.int32ToStr
                0x000000000000f6d8       0x44 CMakeFiles/kiibohd.dir/Debug/print/print.c.obj
                0x000000000000f6d8                int32ToStr
 .text.printInt32
                0x000000000000f71c       0x28 CMakeFiles/kiibohd.dir/Debug/print/print.c.obj
                0x000000000000f71c                printInt32
 .text.hexToStr_op
                0x000000000000f744       0x78 CMakeFiles/kiibohd.dir/Debug/print/print.c.obj
                0x000000000000f744                hexToStr_op
 .text.printHex_op
                0x000000000000f7bc       0x2c CMakeFiles/kiibohd.dir/Debug/print/print.c.obj
                0x000000000000f7bc                printHex_op
 .text.hex32ToStr_op
                0x000000000000f7e8       0x78 CMakeFiles/kiibohd.dir/Debug/print/print.c.obj
                0x000000000000f7e8                hex32ToStr_op
 .text.printHex32_op
                0x000000000000f860       0x2c CMakeFiles/kiibohd.dir/Debug/print/print.c.obj
                0x000000000000f860                printHex32_op
 .text.hex32ToStr16
                0x000000000000f88c       0x40 CMakeFiles/kiibohd.dir/Debug/print/print.c.obj
                0x000000000000f88c                hex32ToStr16
 .text.eqStr    0x000000000000f8cc       0x44 CMakeFiles/kiibohd.dir/Debug/print/print.c.obj
                0x000000000000f8cc                eqStr
 .text.numToInt
                0x000000000000f910       0x9c CMakeFiles/kiibohd.dir/Debug/print/print.c.obj
                0x000000000000f910                numToInt
 *(.rodata*)
 .rodata.__stack_chk_fail.str1.1
                0x000000000000f9ac        0xc CMakeFiles/kiibohd.dir/Lib/kinetis.c.obj
 .rodata.bus_fault_default_isr.str1.1
                0x000000000000f9b8       0x22 CMakeFiles/kiibohd.dir/Lib/kinetis.c.obj
 .rodata.fault_isr.str1.1
                0x000000000000f9da       0x22 CMakeFiles/kiibohd.dir/Lib/kinetis.c.obj
                                          0x9 (size before relaxing)
 .rodata.hard_fault_default_isr.str1.1
                0x000000000000f9da       0x17 CMakeFiles/kiibohd.dir/Lib/kinetis.c.obj
                                         0x1a (size before relaxing)
 .rodata.memmanage_fault_default_isr.str1.1
                0x000000000000f9f1       0x2d CMakeFiles/kiibohd.dir/Lib/kinetis.c.obj
 .rodata.nmi_default_isr.str1.1
                0x000000000000fa1e        0x7 CMakeFiles/kiibohd.dir/Lib/kinetis.c.obj
 .rodata.sys_reset_to_loader_magic
                0x000000000000fa25       0x16 CMakeFiles/kiibohd.dir/Lib/kinetis.c.obj
                0x000000000000fa25                sys_reset_to_loader_magic
 .rodata.usage_fault_default_isr.str1.1
                0x000000000000fa3b       0x18 CMakeFiles/kiibohd.dir/Lib/kinetis.c.obj
 .rodata.watchdog_default_isr.str1.1
                0x000000000000fa53       0x2a CMakeFiles/kiibohd.dir/Lib/kinetis.c.obj
                                         0x2c (size before relaxing)
 .rodata.str1.1
                0x000000000000fa7d        0xa CMakeFiles/kiibohd.dir/Lib/time.c.obj
 .rodata.i2c_isr.str1.1
                0x000000000000fa87       0x46 CMakeFiles/kiibohd.dir/Scan/Devices/ISSILed/i2c.c.obj
 .rodata.i2c_send_sequence.str1.1
                0x000000000000facd       0x57 CMakeFiles/kiibohd.dir/Scan/Devices/ISSILed/i2c.c.obj
                                         0x5a (size before relaxing)
 .rodata.LED_control_capability.str1.1
                0x000000000000fb24       0x24 CMakeFiles/kiibohd.dir/Scan/Devices/ISSILed/led_scan.c.obj
 .rodata.LED_ledEnableMask
                0x000000000000fb48       0x28 CMakeFiles/kiibohd.dir/Scan/Devices/ISSILed/led_scan.c.obj
                0x000000000000fb48                LED_ledEnableMask
 .rodata.LED_scan.str1.1
                0x000000000000fb70       0x46 CMakeFiles/kiibohd.dir/Scan/Devices/ISSILed/led_scan.c.obj
 .rodata.LED_setup.str1.1
                0x000000000000fbb6        0x8 CMakeFiles/kiibohd.dir/Scan/Devices/ISSILed/led_scan.c.obj
 .rodata.cliFunc_ledFPS.str1.1
                0x000000000000fbbe       0x49 CMakeFiles/kiibohd.dir/Scan/Devices/ISSILed/led_scan.c.obj
 .rodata.cliFunc_ledSet.str1.1
                0x000000000000fc07       0x25 CMakeFiles/kiibohd.dir/Scan/Devices/ISSILed/led_scan.c.obj
 .rodata.cliFunc_ledToggle.str1.1
                0x000000000000fc2c       0x1e CMakeFiles/kiibohd.dir/Scan/Devices/ISSILed/led_scan.c.obj
                                         0x21 (size before relaxing)
 .rodata.hardware_shutdown_pin
                0x000000000000fc4a        0x2 CMakeFiles/kiibohd.dir/Scan/Devices/ISSILed/led_scan.c.obj
 .rodata.ledCLIDict
                0x000000000000fc4c       0x48 CMakeFiles/kiibohd.dir/Scan/Devices/ISSILed/led_scan.c.obj
                0x000000000000fc4c                ledCLIDict
 .rodata.ledCLIDictName
                0x000000000000fc94       0x19 CMakeFiles/kiibohd.dir/Scan/Devices/ISSILed/led_scan.c.obj
                0x000000000000fc94                ledCLIDictName
 .rodata.ledCheckCLIDict_DescEntry
                0x000000000000fcad       0x36 CMakeFiles/kiibohd.dir/Scan/Devices/ISSILed/led_scan.c.obj
                0x000000000000fcad                ledCheckCLIDict_DescEntry
 .rodata.ledFPSCLIDict_DescEntry
                0x000000000000fce3       0x30 CMakeFiles/kiibohd.dir/Scan/Devices/ISSILed/led_scan.c.obj
                0x000000000000fce3                ledFPSCLIDict_DescEntry
 .rodata.ledResetCLIDict_DescEntry
                0x000000000000fd13       0x12 CMakeFiles/kiibohd.dir/Scan/Devices/ISSILed/led_scan.c.obj
                0x000000000000fd13                ledResetCLIDict_DescEntry
 .rodata.ledSetCLIDict_DescEntry
                0x000000000000fd25       0x1d CMakeFiles/kiibohd.dir/Scan/Devices/ISSILed/led_scan.c.obj
                0x000000000000fd25                ledSetCLIDict_DescEntry
 .rodata.ledToggleCLIDict_DescEntry
                0x000000000000fd42       0x1f CMakeFiles/kiibohd.dir/Scan/Devices/ISSILed/led_scan.c.obj
                0x000000000000fd42                ledToggleCLIDict_DescEntry
 .rodata.str1.1
                0x000000000000fd61       0x2a CMakeFiles/kiibohd.dir/Scan/Devices/ISSILed/led_scan.c.obj
 .rodata.Matrix_cols
                0x000000000000fd8b       0x12 CMakeFiles/kiibohd.dir/Scan/Devices/MatrixARMPeriodic/matrix_scan.c.obj
                0x000000000000fd8b                Matrix_cols
 .rodata.Matrix_keyPositionDebug.str1.1
                0x000000000000fd9d       0x3e CMakeFiles/kiibohd.dir/Scan/Devices/MatrixARMPeriodic/matrix_scan.c.obj
 .rodata.Matrix_rows
                0x000000000000fddb        0xa CMakeFiles/kiibohd.dir/Scan/Devices/MatrixARMPeriodic/matrix_scan.c.obj
                0x000000000000fddb                Matrix_rows
 .rodata.Matrix_setup.str1.1
                0x000000000000fde5        0xe CMakeFiles/kiibohd.dir/Scan/Devices/MatrixARMPeriodic/matrix_scan.c.obj
 .rodata.Matrix_single_scan.str1.1
                0x000000000000fdf3       0x99 CMakeFiles/kiibohd.dir/Scan/Devices/MatrixARMPeriodic/matrix_scan.c.obj
                                         0xa2 (size before relaxing)
 .rodata.cliFunc_debounce.str1.1
                0x000000000000fe8c       0x23 CMakeFiles/kiibohd.dir/Scan/Devices/MatrixARMPeriodic/matrix_scan.c.obj
                                         0x29 (size before relaxing)
 .rodata.cliFunc_matrixDebug.str1.1
                0x000000000000feaf       0x26 CMakeFiles/kiibohd.dir/Scan/Devices/MatrixARMPeriodic/matrix_scan.c.obj
 .rodata.cliFunc_matrixInfo.str1.1
                0x000000000000fed5       0x57 CMakeFiles/kiibohd.dir/Scan/Devices/MatrixARMPeriodic/matrix_scan.c.obj
 .rodata.cliFunc_strobeDelay.str1.1
                0x000000000000ff2c       0x21 CMakeFiles/kiibohd.dir/Scan/Devices/MatrixARMPeriodic/matrix_scan.c.obj
                                         0x24 (size before relaxing)
 .rodata.debounceCLIDict_DescEntry
                0x000000000000ff4d       0x39 CMakeFiles/kiibohd.dir/Scan/Devices/MatrixARMPeriodic/matrix_scan.c.obj
                0x000000000000ff4d                debounceCLIDict_DescEntry
 *fill*         0x000000000000ff86        0x2 
 .rodata.matrixCLIDict
                0x000000000000ff88       0x48 CMakeFiles/kiibohd.dir/Scan/Devices/MatrixARMPeriodic/matrix_scan.c.obj
                0x000000000000ff88                matrixCLIDict
 .rodata.matrixCLIDictName
                0x000000000000ffd0       0x17 CMakeFiles/kiibohd.dir/Scan/Devices/MatrixARMPeriodic/matrix_scan.c.obj
                0x000000000000ffd0                matrixCLIDictName
 .rodata.matrixDebugCLIDict_DescEntry
                0x000000000000ffe7       0x86 CMakeFiles/kiibohd.dir/Scan/Devices/MatrixARMPeriodic/matrix_scan.c.obj
                0x000000000000ffe7                matrixDebugCLIDict_DescEntry
 .rodata.matrixInfoCLIDict_DescEntry
                0x000000000001006d       0x28 CMakeFiles/kiibohd.dir/Scan/Devices/MatrixARMPeriodic/matrix_scan.c.obj
                0x000000000001006d                matrixInfoCLIDict_DescEntry
 .rodata.matrixStateCLIDict_DescEntry
                0x0000000000010095       0x9a CMakeFiles/kiibohd.dir/Scan/Devices/MatrixARMPeriodic/matrix_scan.c.obj
                0x0000000000010095                matrixStateCLIDict_DescEntry
 .rodata.str1.1
                0x000000000001012f       0x38 CMakeFiles/kiibohd.dir/Scan/Devices/MatrixARMPeriodic/matrix_scan.c.obj
 .rodata.strobeDelayCLIDict_DescEntry
                0x0000000000010167       0x3c CMakeFiles/kiibohd.dir/Scan/Devices/MatrixARMPeriodic/matrix_scan.c.obj
                0x0000000000010167                strobeDelayCLIDict_DescEntry
 *fill*         0x00000000000101a3        0x1 
 .rodata        0x00000000000101a4      0x53c CMakeFiles/kiibohd.dir/Scan/Devices/STLcd/lcd_scan.c.obj
 .rodata.LCD_layerStackExact_capability.str1.1
                0x00000000000106e0       0x40 CMakeFiles/kiibohd.dir/Scan/Devices/STLcd/lcd_scan.c.obj
 .rodata.LCD_layerStack_capability.str1.1
                0x0000000000010720       0x1c CMakeFiles/kiibohd.dir/Scan/Devices/STLcd/lcd_scan.c.obj
 .rodata.LCD_setup.str1.1
                0x000000000001073c        0x6 CMakeFiles/kiibohd.dir/Scan/Devices/STLcd/lcd_scan.c.obj
 .rodata.STLcdDefaultImage
                0x0000000000010742      0x200 CMakeFiles/kiibohd.dir/Scan/Devices/STLcd/lcd_scan.c.obj
                0x0000000000010742                STLcdDefaultImage
 .rodata.cliFunc_lcdCmd.str1.1
                0x0000000000010942       0x5b CMakeFiles/kiibohd.dir/Scan/Devices/STLcd/lcd_scan.c.obj
                                         0x5e (size before relaxing)
 *fill*         0x000000000001099d        0x3 
 .rodata.lcdCLIDict
                0x00000000000109a0       0x48 CMakeFiles/kiibohd.dir/Scan/Devices/STLcd/lcd_scan.c.obj
                0x00000000000109a0                lcdCLIDict
 .rodata.lcdCLIDictName
                0x00000000000109e8       0x17 CMakeFiles/kiibohd.dir/Scan/Devices/STLcd/lcd_scan.c.obj
                0x00000000000109e8                lcdCLIDictName
 .rodata.lcdCmdCLIDict_DescEntry
                0x00000000000109ff       0x44 CMakeFiles/kiibohd.dir/Scan/Devices/STLcd/lcd_scan.c.obj
                0x00000000000109ff                lcdCmdCLIDict_DescEntry
 .rodata.lcdColorCLIDict_DescEntry
                0x0000000000010a43       0x45 CMakeFiles/kiibohd.dir/Scan/Devices/STLcd/lcd_scan.c.obj
                0x0000000000010a43                lcdColorCLIDict_DescEntry
 .rodata.lcdDispCLIDict_DescEntry
                0x0000000000010a88       0x4e CMakeFiles/kiibohd.dir/Scan/Devices/STLcd/lcd_scan.c.obj
                0x0000000000010a88                lcdDispCLIDict_DescEntry
 .rodata.lcdInitCLIDict_DescEntry
                0x0000000000010ad6       0x1f CMakeFiles/kiibohd.dir/Scan/Devices/STLcd/lcd_scan.c.obj
                0x0000000000010ad6                lcdInitCLIDict_DescEntry
 .rodata.lcdTestCLIDict_DescEntry
                0x0000000000010af5       0x1a CMakeFiles/kiibohd.dir/Scan/Devices/STLcd/lcd_scan.c.obj
                0x0000000000010af5                lcdTestCLIDict_DescEntry
 .rodata.str1.1
                0x0000000000010b0f       0x28 CMakeFiles/kiibohd.dir/Scan/Devices/STLcd/lcd_scan.c.obj
 *fill*         0x0000000000010b37        0x1 
 .rodata        0x0000000000010b38       0x33 CMakeFiles/kiibohd.dir/Scan/Devices/UARTConnect/connect_scan.c.obj
 .rodata.Connect_addBytes.part.1.str1.1
                0x0000000000010b6b       0x45 CMakeFiles/kiibohd.dir/Scan/Devices/UARTConnect/connect_scan.c.obj
 .rodata.Connect_addBytes.str1.1
                0x0000000000010bb0       0x78 CMakeFiles/kiibohd.dir/Scan/Devices/UARTConnect/connect_scan.c.obj
 .rodata.Connect_receive_Animation.str1.1
                0x0000000000010c28       0x1f CMakeFiles/kiibohd.dir/Scan/Devices/UARTConnect/connect_scan.c.obj
 .rodata.Connect_receive_CableCheck.str1.1
                0x0000000000010c47       0x81 CMakeFiles/kiibohd.dir/Scan/Devices/UARTConnect/connect_scan.c.obj
                                         0x83 (size before relaxing)
 .rodata.Connect_receive_CurrentEvent.str1.1
                0x0000000000010cc8       0x39 CMakeFiles/kiibohd.dir/Scan/Devices/UARTConnect/connect_scan.c.obj
 .rodata.Connect_receive_IdEnumeration.str1.1
                0x0000000000010d01       0x5d CMakeFiles/kiibohd.dir/Scan/Devices/UARTConnect/connect_scan.c.obj
 .rodata.Connect_receive_IdReport.str1.1
                0x0000000000010d5e       0x3e CMakeFiles/kiibohd.dir/Scan/Devices/UARTConnect/connect_scan.c.obj
 .rodata.Connect_receive_IdRequest.str1.1
                0x0000000000010d9c       0x55 CMakeFiles/kiibohd.dir/Scan/Devices/UARTConnect/connect_scan.c.obj
 .rodata.Connect_receive_ScanCode.str1.1
                0x0000000000010df1       0x90 CMakeFiles/kiibohd.dir/Scan/Devices/UARTConnect/connect_scan.c.obj
 .rodata.Connect_rx_process.str1.1
                0x0000000000010e81       0x4a CMakeFiles/kiibohd.dir/Scan/Devices/UARTConnect/connect_scan.c.obj
 .rodata.Connect_scan.str1.1
                0x0000000000010ecb       0x18 CMakeFiles/kiibohd.dir/Scan/Devices/UARTConnect/connect_scan.c.obj
 .rodata.Connect_setup.str1.1
                0x0000000000010ee3        0xc CMakeFiles/kiibohd.dir/Scan/Devices/UARTConnect/connect_scan.c.obj
 .rodata.cliFunc_connectCmd.str1.1
                0x0000000000010eef       0x2b CMakeFiles/kiibohd.dir/Scan/Devices/UARTConnect/connect_scan.c.obj
 .rodata.cliFunc_connectDbg.str1.1
                0x0000000000010f1a       0x2c CMakeFiles/kiibohd.dir/Scan/Devices/UARTConnect/connect_scan.c.obj
                                         0x2f (size before relaxing)
 .rodata.cliFunc_connectIdl.str1.1
                0x0000000000010f46       0x28 CMakeFiles/kiibohd.dir/Scan/Devices/UARTConnect/connect_scan.c.obj
 .rodata.cliFunc_connectLst.str1.1
                0x0000000000010f6e       0x2f CMakeFiles/kiibohd.dir/Scan/Devices/UARTConnect/connect_scan.c.obj
                                         0x33 (size before relaxing)
 .rodata.cliFunc_connectMst.str1.1
                0x0000000000010f9d       0x57 CMakeFiles/kiibohd.dir/Scan/Devices/UARTConnect/connect_scan.c.obj
 .rodata.cliFunc_connectRst.str1.1
                0x0000000000010ff4       0x31 CMakeFiles/kiibohd.dir/Scan/Devices/UARTConnect/connect_scan.c.obj
 .rodata.cliFunc_connectSts.str1.1
                0x0000000000011025       0xa4 CMakeFiles/kiibohd.dir/Scan/Devices/UARTConnect/connect_scan.c.obj
                                         0xa6 (size before relaxing)
 .rodata.connectCmdCLIDict_DescEntry
                0x00000000000110c9       0x6c CMakeFiles/kiibohd.dir/Scan/Devices/UARTConnect/connect_scan.c.obj
                0x00000000000110c9                connectCmdCLIDict_DescEntry
 .rodata.connectDbgCLIDict_DescEntry
                0x0000000000011135       0x1f CMakeFiles/kiibohd.dir/Scan/Devices/UARTConnect/connect_scan.c.obj
                0x0000000000011135                connectDbgCLIDict_DescEntry
 .rodata.connectIdlCLIDict_DescEntry
                0x0000000000011154       0x61 CMakeFiles/kiibohd.dir/Scan/Devices/UARTConnect/connect_scan.c.obj
                0x0000000000011154                connectIdlCLIDict_DescEntry
 .rodata.connectLstCLIDict_DescEntry
                0x00000000000111b5       0x32 CMakeFiles/kiibohd.dir/Scan/Devices/UARTConnect/connect_scan.c.obj
                0x00000000000111b5                connectLstCLIDict_DescEntry
 .rodata.connectMstCLIDict_DescEntry
                0x00000000000111e7       0x3e CMakeFiles/kiibohd.dir/Scan/Devices/UARTConnect/connect_scan.c.obj
                0x00000000000111e7                connectMstCLIDict_DescEntry
 .rodata.connectRstCLIDict_DescEntry
                0x0000000000011225       0x3b CMakeFiles/kiibohd.dir/Scan/Devices/UARTConnect/connect_scan.c.obj
                0x0000000000011225                connectRstCLIDict_DescEntry
 .rodata.connectStsCLIDict_DescEntry
                0x0000000000011260       0x14 CMakeFiles/kiibohd.dir/Scan/Devices/UARTConnect/connect_scan.c.obj
                0x0000000000011260                connectStsCLIDict_DescEntry
 .rodata.str1.1
                0x0000000000011274       0xc3 CMakeFiles/kiibohd.dir/Scan/Devices/UARTConnect/connect_scan.c.obj
 *fill*         0x0000000000011337        0x1 
 .rodata.uartConnectCLIDict
                0x0000000000011338       0x60 CMakeFiles/kiibohd.dir/Scan/Devices/UARTConnect/connect_scan.c.obj
                0x0000000000011338                uartConnectCLIDict
 .rodata.uartConnectCLIDictName
                0x0000000000011398       0x1c CMakeFiles/kiibohd.dir/Scan/Devices/UARTConnect/connect_scan.c.obj
                0x0000000000011398                uartConnectCLIDictName
 .rodata.Layer_layerLatch_capability.str1.1
                0x00000000000113b4       0x1d CMakeFiles/kiibohd.dir/Macro/PartialMap/layer.c.obj
 .rodata.Layer_layerLock_capability.str1.1
                0x00000000000113d1       0x1c CMakeFiles/kiibohd.dir/Macro/PartialMap/layer.c.obj
 .rodata.Layer_layerRotate_capability.str1.1
                0x00000000000113ed       0x1c CMakeFiles/kiibohd.dir/Macro/PartialMap/layer.c.obj
 .rodata.Layer_layerShift_capability.str1.1
                0x0000000000011409       0x1d CMakeFiles/kiibohd.dir/Macro/PartialMap/layer.c.obj
 .rodata.Layer_layerStateSet.part.0.str1.1
                0x0000000000011426       0x11 CMakeFiles/kiibohd.dir/Macro/PartialMap/layer.c.obj
                                         0x16 (size before relaxing)
 .rodata.Layer_layerState_capability.str1.1
                0x0000000000011437       0x28 CMakeFiles/kiibohd.dir/Macro/PartialMap/layer.c.obj
                                         0x2d (size before relaxing)
 *fill*         0x000000000001145f        0x1 
 .rodata.CapabilitiesList
                0x0000000000011460       0xe0 CMakeFiles/kiibohd.dir/Macro/PartialMap/macro.c.obj
                0x0000000000011460                CapabilitiesList
 .rodata.InterconnectOffsetList
                0x0000000000011540        0x3 CMakeFiles/kiibohd.dir/Macro/PartialMap/macro.c.obj
                0x0000000000011540                InterconnectOffsetList
 *fill*         0x0000000000011543        0x1 
 .rodata.LayerIndex
                0x0000000000011544       0x24 CMakeFiles/kiibohd.dir/Macro/PartialMap/macro.c.obj
                0x0000000000011544                LayerIndex
 .rodata.Macro_animationState.str1.1
                0x0000000000011568       0x42 CMakeFiles/kiibohd.dir/Macro/PartialMap/macro.c.obj
 .rodata.Macro_keyState.str1.1
                0x00000000000115aa       0x3c CMakeFiles/kiibohd.dir/Macro/PartialMap/macro.c.obj
 .rodata.Macro_layerState.str1.1
                0x00000000000115e6       0x3e CMakeFiles/kiibohd.dir/Macro/PartialMap/macro.c.obj
 .rodata.Macro_none_capability.str1.1
                0x0000000000011624        0xd CMakeFiles/kiibohd.dir/Macro/PartialMap/macro.c.obj
 .rodata.Macro_periodic.str1.1
                0x0000000000011631       0xa9 CMakeFiles/kiibohd.dir/Macro/PartialMap/macro.c.obj
 .rodata.Macro_pressReleaseAdd.str1.1
                0x00000000000116da       0x8c CMakeFiles/kiibohd.dir/Macro/PartialMap/macro.c.obj
 .rodata.Macro_rotate_capability.str1.1
                0x0000000000011766        0xf CMakeFiles/kiibohd.dir/Macro/PartialMap/macro.c.obj
 .rodata.Macro_setup.str1.1
                0x0000000000011775        0xb CMakeFiles/kiibohd.dir/Macro/PartialMap/macro.c.obj
 .rodata.Macro_showSchedule.str1.1
                0x0000000000011780        0xb CMakeFiles/kiibohd.dir/Macro/PartialMap/macro.c.obj
                                          0x4 (size before relaxing)
 .rodata.Macro_showScheduleType.str1.1
                0x0000000000011780       0x2e CMakeFiles/kiibohd.dir/Macro/PartialMap/macro.c.obj
                                         0x5f (size before relaxing)
 .rodata.Macro_showTriggerType.str1.1
                0x00000000000117ae       0x3e CMakeFiles/kiibohd.dir/Macro/PartialMap/macro.c.obj
                                         0x4e (size before relaxing)
 .rodata.Macro_testThreadSafe_capability.str1.1
                0x00000000000117ec       0x24 CMakeFiles/kiibohd.dir/Macro/PartialMap/macro.c.obj
 .rodata.Macro_testThreadUnsafe_capability.str1.1
                0x0000000000011810       0x28 CMakeFiles/kiibohd.dir/Macro/PartialMap/macro.c.obj
 .rodata.Macro_timeState.str1.1
                0x0000000000011838       0x8e CMakeFiles/kiibohd.dir/Macro/PartialMap/macro.c.obj
 *fill*         0x00000000000118c6        0x2 
 .rodata.ResultMacroList
                0x00000000000118c8      0x1ac CMakeFiles/kiibohd.dir/Macro/PartialMap/macro.c.obj
                0x00000000000118c8                ResultMacroList
 .rodata.TriggerMacroList
                0x0000000000011a74      0x3a0 CMakeFiles/kiibohd.dir/Macro/PartialMap/macro.c.obj
                0x0000000000011a74                TriggerMacroList
 .rodata.capDebugCLIDict_DescEntry
                0x0000000000011e14       0x49 CMakeFiles/kiibohd.dir/Macro/PartialMap/macro.c.obj
                0x0000000000011e14                capDebugCLIDict_DescEntry
 .rodata.capListCLIDict_DescEntry
                0x0000000000011e5d       0x3c CMakeFiles/kiibohd.dir/Macro/PartialMap/macro.c.obj
                0x0000000000011e5d                capListCLIDict_DescEntry
 .rodata.capSelectCLIDict_DescEntry
                0x0000000000011e99       0x76 CMakeFiles/kiibohd.dir/Macro/PartialMap/macro.c.obj
                0x0000000000011e99                capSelectCLIDict_DescEntry
 .rodata.cliFunc_capDebug.str1.1
                0x0000000000011f0f       0x2a CMakeFiles/kiibohd.dir/Macro/PartialMap/macro.c.obj
 .rodata.cliFunc_capList.str1.1
                0x0000000000011f39       0x29 CMakeFiles/kiibohd.dir/Macro/PartialMap/macro.c.obj
                                         0x2d (size before relaxing)
 .rodata.cliFunc_capSelect.str1.1
                0x0000000000011f62       0xaa CMakeFiles/kiibohd.dir/Macro/PartialMap/macro.c.obj
                                         0xb0 (size before relaxing)
 .rodata.cliFunc_layerDebug.str1.1
                0x000000000001200c       0x25 CMakeFiles/kiibohd.dir/Macro/PartialMap/macro.c.obj
 .rodata.cliFunc_layerList.str1.1
                0x0000000000012031       0x5c CMakeFiles/kiibohd.dir/Macro/PartialMap/macro.c.obj
                                         0x61 (size before relaxing)
 .rodata.cliFunc_layerState.str1.1
                0x000000000001208d       0x29 CMakeFiles/kiibohd.dir/Macro/PartialMap/macro.c.obj
 .rodata.cliFunc_macroDebug.str1.1
                0x00000000000120b6       0x25 CMakeFiles/kiibohd.dir/Macro/PartialMap/macro.c.obj
 .rodata.cliFunc_macroList.str1.1
                0x00000000000120db      0x117 CMakeFiles/kiibohd.dir/Macro/PartialMap/macro.c.obj
                                        0x119 (size before relaxing)
 .rodata.cliFunc_macroProc.str1.1
                0x00000000000121f2       0x2a CMakeFiles/kiibohd.dir/Macro/PartialMap/macro.c.obj
 .rodata.cliFunc_posList.str1.1
                0x000000000001221c        0x3 CMakeFiles/kiibohd.dir/Macro/PartialMap/macro.c.obj
 .rodata.cliFunc_voteDebug.str1.1
                0x000000000001221c       0x24 CMakeFiles/kiibohd.dir/Macro/PartialMap/macro.c.obj
 .rodata.default_tl_0x00
                0x0000000000012240        0x4 CMakeFiles/kiibohd.dir/Macro/PartialMap/macro.c.obj
                0x0000000000012240                default_tl_0x00
 .rodata.default_tl_0x01
                0x0000000000012244        0x4 CMakeFiles/kiibohd.dir/Macro/PartialMap/macro.c.obj
                0x0000000000012244                default_tl_0x01
 .rodata.default_tl_0x02
                0x0000000000012248        0x4 CMakeFiles/kiibohd.dir/Macro/PartialMap/macro.c.obj
                0x0000000000012248                default_tl_0x02
 .rodata.default_tl_0x03
                0x000000000001224c        0x8 CMakeFiles/kiibohd.dir/Macro/PartialMap/macro.c.obj
                0x000000000001224c                default_tl_0x03
 .rodata.default_tl_0x04
                0x0000000000012254        0x8 CMakeFiles/kiibohd.dir/Macro/PartialMap/macro.c.obj
                0x0000000000012254                default_tl_0x04
 .rodata.default_tl_0x05
                0x000000000001225c        0x8 CMakeFiles/kiibohd.dir/Macro/PartialMap/macro.c.obj
                0x000000000001225c                default_tl_0x05
 .rodata.default_tl_0x06
                0x0000000000012264        0x8 CMakeFiles/kiibohd.dir/Macro/PartialMap/macro.c.obj
                0x0000000000012264                default_tl_0x06
 .rodata.default_tl_0x07
                0x000000000001226c        0x8 CMakeFiles/kiibohd.dir/Macro/PartialMap/macro.c.obj
                0x000000000001226c                default_tl_0x07
 .rodata.default_tl_0x08
                0x0000000000012274        0x8 CMakeFiles/kiibohd.dir/Macro/PartialMap/macro.c.obj
                0x0000000000012274                default_tl_0x08
 .rodata.default_tl_0x09
                0x000000000001227c        0x8 CMakeFiles/kiibohd.dir/Macro/PartialMap/macro.c.obj
                0x000000000001227c                default_tl_0x09
 .rodata.default_tl_0x0A
                0x0000000000012284        0x4 CMakeFiles/kiibohd.dir/Macro/PartialMap/macro.c.obj
                0x0000000000012284                default_tl_0x0A
 .rodata.default_tl_0x0B
                0x0000000000012288        0x4 CMakeFiles/kiibohd.dir/Macro/PartialMap/macro.c.obj
                0x0000000000012288                default_tl_0x0B
 .rodata.default_tl_0x0C
                0x000000000001228c        0x8 CMakeFiles/kiibohd.dir/Macro/PartialMap/macro.c.obj
                0x000000000001228c                default_tl_0x0C
 .rodata.default_tl_0x0D
                0x0000000000012294        0x8 CMakeFiles/kiibohd.dir/Macro/PartialMap/macro.c.obj
                0x0000000000012294                default_tl_0x0D
 .rodata.default_tl_0x0E
                0x000000000001229c        0x8 CMakeFiles/kiibohd.dir/Macro/PartialMap/macro.c.obj
                0x000000000001229c                default_tl_0x0E
 .rodata.default_tl_0x0F
                0x00000000000122a4        0x8 CMakeFiles/kiibohd.dir/Macro/PartialMap/macro.c.obj
                0x00000000000122a4                default_tl_0x0F
 .rodata.default_tl_0x10
                0x00000000000122ac        0x8 CMakeFiles/kiibohd.dir/Macro/PartialMap/macro.c.obj
                0x00000000000122ac                default_tl_0x10
 .rodata.default_tl_0x11
                0x00000000000122b4        0x8 CMakeFiles/kiibohd.dir/Macro/PartialMap/macro.c.obj
                0x00000000000122b4                default_tl_0x11
 .rodata.default_tl_0x12
                0x00000000000122bc        0x8 CMakeFiles/kiibohd.dir/Macro/PartialMap/macro.c.obj
                0x00000000000122bc                default_tl_0x12
 .rodata.default_tl_0x13
                0x00000000000122c4        0x4 CMakeFiles/kiibohd.dir/Macro/PartialMap/macro.c.obj
                0x00000000000122c4                default_tl_0x13
 .rodata.default_tl_0x14
                0x00000000000122c8        0x4 CMakeFiles/kiibohd.dir/Macro/PartialMap/macro.c.obj
                0x00000000000122c8                default_tl_0x14
 .rodata.default_tl_0x15
                0x00000000000122cc        0x4 CMakeFiles/kiibohd.dir/Macro/PartialMap/macro.c.obj
                0x00000000000122cc                default_tl_0x15
 .rodata.default_tl_0x16
                0x00000000000122d0        0x8 CMakeFiles/kiibohd.dir/Macro/PartialMap/macro.c.obj
                0x00000000000122d0                default_tl_0x16
 .rodata.default_tl_0x17
                0x00000000000122d8        0x8 CMakeFiles/kiibohd.dir/Macro/PartialMap/macro.c.obj
                0x00000000000122d8                default_tl_0x17
 .rodata.default_tl_0x18
                0x00000000000122e0        0x8 CMakeFiles/kiibohd.dir/Macro/PartialMap/macro.c.obj
                0x00000000000122e0                default_tl_0x18
 .rodata.default_tl_0x19
                0x00000000000122e8        0x8 CMakeFiles/kiibohd.dir/Macro/PartialMap/macro.c.obj
                0x00000000000122e8                default_tl_0x19
 .rodata.default_tl_0x1A
                0x00000000000122f0        0x8 CMakeFiles/kiibohd.dir/Macro/PartialMap/macro.c.obj
                0x00000000000122f0                default_tl_0x1A
 .rodata.default_tl_0x1B
                0x00000000000122f8        0x8 CMakeFiles/kiibohd.dir/Macro/PartialMap/macro.c.obj
                0x00000000000122f8                default_tl_0x1B
 .rodata.default_tl_0x1C
                0x0000000000012300        0x8 CMakeFiles/kiibohd.dir/Macro/PartialMap/macro.c.obj
                0x0000000000012300                default_tl_0x1C
 .rodata.default_tl_0x1D
                0x0000000000012308        0x8 CMakeFiles/kiibohd.dir/Macro/PartialMap/macro.c.obj
                0x0000000000012308                default_tl_0x1D
 .rodata.default_tl_0x1E
                0x0000000000012310        0x8 CMakeFiles/kiibohd.dir/Macro/PartialMap/macro.c.obj
                0x0000000000012310                default_tl_0x1E
 .rodata.default_tl_0x1F
                0x0000000000012318        0x8 CMakeFiles/kiibohd.dir/Macro/PartialMap/macro.c.obj
                0x0000000000012318                default_tl_0x1F
 .rodata.default_tl_0x20
                0x0000000000012320        0x8 CMakeFiles/kiibohd.dir/Macro/PartialMap/macro.c.obj
                0x0000000000012320                default_tl_0x20
 .rodata.default_tl_0x21
                0x0000000000012328        0x8 CMakeFiles/kiibohd.dir/Macro/PartialMap/macro.c.obj
                0x0000000000012328                default_tl_0x21
 .rodata.default_tl_0x22
                0x0000000000012330        0x8 CMakeFiles/kiibohd.dir/Macro/PartialMap/macro.c.obj
                0x0000000000012330                default_tl_0x22
 .rodata.default_tl_0x23
                0x0000000000012338        0x8 CMakeFiles/kiibohd.dir/Macro/PartialMap/macro.c.obj
                0x0000000000012338                default_tl_0x23
 .rodata.default_tl_0x24
                0x0000000000012340        0x8 CMakeFiles/kiibohd.dir/Macro/PartialMap/macro.c.obj
                0x0000000000012340                default_tl_0x24
 .rodata.default_tl_0x25
                0x0000000000012348        0x8 CMakeFiles/kiibohd.dir/Macro/PartialMap/macro.c.obj
                0x0000000000012348                default_tl_0x25
 .rodata.default_tl_0x26
                0x0000000000012350        0x8 CMakeFiles/kiibohd.dir/Macro/PartialMap/macro.c.obj
                0x0000000000012350                default_tl_0x26
 .rodata.default_tl_0x27
                0x0000000000012358        0x8 CMakeFiles/kiibohd.dir/Macro/PartialMap/macro.c.obj
                0x0000000000012358                default_tl_0x27
 .rodata.default_tl_0x28
                0x0000000000012360        0x8 CMakeFiles/kiibohd.dir/Macro/PartialMap/macro.c.obj
                0x0000000000012360                default_tl_0x28
 .rodata.default_tl_0x29
                0x0000000000012368        0x8 CMakeFiles/kiibohd.dir/Macro/PartialMap/macro.c.obj
                0x0000000000012368                default_tl_0x29
 .rodata.default_tl_0x2A
                0x0000000000012370        0x8 CMakeFiles/kiibohd.dir/Macro/PartialMap/macro.c.obj
                0x0000000000012370                default_tl_0x2A
 .rodata.default_tl_0x2B
                0x0000000000012378        0x8 CMakeFiles/kiibohd.dir/Macro/PartialMap/macro.c.obj
                0x0000000000012378                default_tl_0x2B
 .rodata.default_tl_0x2C
                0x0000000000012380        0x8 CMakeFiles/kiibohd.dir/Macro/PartialMap/macro.c.obj
                0x0000000000012380                default_tl_0x2C
 .rodata.default_tl_0x2D
                0x0000000000012388        0x8 CMakeFiles/kiibohd.dir/Macro/PartialMap/macro.c.obj
                0x0000000000012388                default_tl_0x2D
 .rodata.default_tl_0x2E
                0x0000000000012390        0x4 CMakeFiles/kiibohd.dir/Macro/PartialMap/macro.c.obj
                0x0000000000012390                default_tl_0x2E
 .rodata.default_tl_0x2F
                0x0000000000012394        0x4 CMakeFiles/kiibohd.dir/Macro/PartialMap/macro.c.obj
                0x0000000000012394                default_tl_0x2F
 .rodata.default_tl_0x30
                0x0000000000012398        0x8 CMakeFiles/kiibohd.dir/Macro/PartialMap/macro.c.obj
                0x0000000000012398                default_tl_0x30
 .rodata.default_tl_0x31
                0x00000000000123a0        0x8 CMakeFiles/kiibohd.dir/Macro/PartialMap/macro.c.obj
                0x00000000000123a0                default_tl_0x31
 .rodata.default_tl_0x32
                0x00000000000123a8        0x8 CMakeFiles/kiibohd.dir/Macro/PartialMap/macro.c.obj
                0x00000000000123a8                default_tl_0x32
 .rodata.default_tl_0x33
                0x00000000000123b0        0x8 CMakeFiles/kiibohd.dir/Macro/PartialMap/macro.c.obj
                0x00000000000123b0                default_tl_0x33
 .rodata.default_tl_0x34
                0x00000000000123b8        0x8 CMakeFiles/kiibohd.dir/Macro/PartialMap/macro.c.obj
                0x00000000000123b8                default_tl_0x34
 .rodata.default_tl_0x35
                0x00000000000123c0        0x8 CMakeFiles/kiibohd.dir/Macro/PartialMap/macro.c.obj
                0x00000000000123c0                default_tl_0x35
 .rodata.default_tl_0x36
                0x00000000000123c8        0x8 CMakeFiles/kiibohd.dir/Macro/PartialMap/macro.c.obj
                0x00000000000123c8                default_tl_0x36
 .rodata.default_tl_0x37
                0x00000000000123d0        0x4 CMakeFiles/kiibohd.dir/Macro/PartialMap/macro.c.obj
                0x00000000000123d0                default_tl_0x37
 .rodata.default_tl_0x38
                0x00000000000123d4        0x4 CMakeFiles/kiibohd.dir/Macro/PartialMap/macro.c.obj
                0x00000000000123d4                default_tl_0x38
 .rodata.default_tl_0x39
                0x00000000000123d8        0x8 CMakeFiles/kiibohd.dir/Macro/PartialMap/macro.c.obj
                0x00000000000123d8                default_tl_0x39
 .rodata.default_tl_0x3A
                0x00000000000123e0        0x8 CMakeFiles/kiibohd.dir/Macro/PartialMap/macro.c.obj
                0x00000000000123e0                default_tl_0x3A
 .rodata.default_tl_0x3B
                0x00000000000123e8        0x8 CMakeFiles/kiibohd.dir/Macro/PartialMap/macro.c.obj
                0x00000000000123e8                default_tl_0x3B
 .rodata.default_tl_0x3C
                0x00000000000123f0        0x8 CMakeFiles/kiibohd.dir/Macro/PartialMap/macro.c.obj
                0x00000000000123f0                default_tl_0x3C
 .rodata.default_tl_0x3D
                0x00000000000123f8        0x8 CMakeFiles/kiibohd.dir/Macro/PartialMap/macro.c.obj
                0x00000000000123f8                default_tl_0x3D
 .rodata.default_tl_0x3E
                0x0000000000012400        0x8 CMakeFiles/kiibohd.dir/Macro/PartialMap/macro.c.obj
                0x0000000000012400                default_tl_0x3E
 .rodata.default_tl_0x3F
                0x0000000000012408        0x8 CMakeFiles/kiibohd.dir/Macro/PartialMap/macro.c.obj
                0x0000000000012408                default_tl_0x3F
 .rodata.default_tl_0x40
                0x0000000000012410        0x4 CMakeFiles/kiibohd.dir/Macro/PartialMap/macro.c.obj
                0x0000000000012410                default_tl_0x40
 .rodata.default_tl_0x41
                0x0000000000012414        0x4 CMakeFiles/kiibohd.dir/Macro/PartialMap/macro.c.obj
                0x0000000000012414                default_tl_0x41
 .rodata.default_tl_0x42
                0x0000000000012418        0x4 CMakeFiles/kiibohd.dir/Macro/PartialMap/macro.c.obj
                0x0000000000012418                default_tl_0x42
 .rodata.default_tl_0x43
                0x000000000001241c        0x8 CMakeFiles/kiibohd.dir/Macro/PartialMap/macro.c.obj
                0x000000000001241c                default_tl_0x43
 .rodata.default_tl_0x44
                0x0000000000012424        0x8 CMakeFiles/kiibohd.dir/Macro/PartialMap/macro.c.obj
                0x0000000000012424                default_tl_0x44
 .rodata.default_tl_0x45
                0x000000000001242c        0x8 CMakeFiles/kiibohd.dir/Macro/PartialMap/macro.c.obj
                0x000000000001242c                default_tl_0x45
 .rodata.default_tl_0x46
                0x0000000000012434        0x8 CMakeFiles/kiibohd.dir/Macro/PartialMap/macro.c.obj
                0x0000000000012434                default_tl_0x46
 .rodata.default_tl_0x47
                0x000000000001243c        0x8 CMakeFiles/kiibohd.dir/Macro/PartialMap/macro.c.obj
                0x000000000001243c                default_tl_0x47
 .rodata.default_tl_0x48
                0x0000000000012444        0x8 CMakeFiles/kiibohd.dir/Macro/PartialMap/macro.c.obj
                0x0000000000012444                default_tl_0x48
 .rodata.default_tl_0x49
                0x000000000001244c        0x8 CMakeFiles/kiibohd.dir/Macro/PartialMap/macro.c.obj
                0x000000000001244c                default_tl_0x49
 .rodata.default_tl_0x4A
                0x0000000000012454        0x8 CMakeFiles/kiibohd.dir/Macro/PartialMap/macro.c.obj
                0x0000000000012454                default_tl_0x4A
 .rodata.default_tl_0x4B
                0x000000000001245c        0x8 CMakeFiles/kiibohd.dir/Macro/PartialMap/macro.c.obj
                0x000000000001245c                default_tl_0x4B
 .rodata.default_tl_0x4C
                0x0000000000012464        0x8 CMakeFiles/kiibohd.dir/Macro/PartialMap/macro.c.obj
                0x0000000000012464                default_tl_0x4C
 .rodata.default_tl_0x4D
                0x000000000001246c        0x8 CMakeFiles/kiibohd.dir/Macro/PartialMap/macro.c.obj
                0x000000000001246c                default_tl_0x4D
 .rodata.default_tl_0x4E
                0x0000000000012474        0x8 CMakeFiles/kiibohd.dir/Macro/PartialMap/macro.c.obj
                0x0000000000012474                default_tl_0x4E
 .rodata.default_tl_0x4F
                0x000000000001247c        0x8 CMakeFiles/kiibohd.dir/Macro/PartialMap/macro.c.obj
                0x000000000001247c                default_tl_0x4F
 .rodata.default_tl_0x50
                0x0000000000012484        0x8 CMakeFiles/kiibohd.dir/Macro/PartialMap/macro.c.obj
                0x0000000000012484                default_tl_0x50
 .rodata.default_tl_0x51
                0x000000000001248c        0x8 CMakeFiles/kiibohd.dir/Macro/PartialMap/macro.c.obj
                0x000000000001248c                default_tl_0x51
 .rodata.default_tl_0x52
                0x0000000000012494        0x8 CMakeFiles/kiibohd.dir/Macro/PartialMap/macro.c.obj
                0x0000000000012494                default_tl_0x52
 .rodata.default_tl_0x53
                0x000000000001249c        0x8 CMakeFiles/kiibohd.dir/Macro/PartialMap/macro.c.obj
                0x000000000001249c                default_tl_0x53
 .rodata.default_tl_0x54
                0x00000000000124a4        0x8 CMakeFiles/kiibohd.dir/Macro/PartialMap/macro.c.obj
                0x00000000000124a4                default_tl_0x54
 .rodata.default_tl_0x55
                0x00000000000124ac        0x8 CMakeFiles/kiibohd.dir/Macro/PartialMap/macro.c.obj
                0x00000000000124ac                default_tl_0x55
 .rodata.default_tl_0x56
                0x00000000000124b4        0x8 CMakeFiles/kiibohd.dir/Macro/PartialMap/macro.c.obj
                0x00000000000124b4                default_tl_0x56
 .rodata.default_tl_0x57
                0x00000000000124bc        0x8 CMakeFiles/kiibohd.dir/Macro/PartialMap/macro.c.obj
                0x00000000000124bc                default_tl_0x57
 .rodata.default_tl_0x58
                0x00000000000124c4        0x8 CMakeFiles/kiibohd.dir/Macro/PartialMap/macro.c.obj
                0x00000000000124c4                default_tl_0x58
 .rodata.default_tl_0x59
                0x00000000000124cc        0x8 CMakeFiles/kiibohd.dir/Macro/PartialMap/macro.c.obj
                0x00000000000124cc                default_tl_0x59
 .rodata.default_tl_0x5A
                0x00000000000124d4        0x8 CMakeFiles/kiibohd.dir/Macro/PartialMap/macro.c.obj
                0x00000000000124d4                default_tl_0x5A
 .rodata.keyHoldCLIDict_DescEntry
                0x00000000000124dc       0x6d CMakeFiles/kiibohd.dir/Macro/PartialMap/macro.c.obj
                0x00000000000124dc                keyHoldCLIDict_DescEntry
 .rodata.keyPressCLIDict_DescEntry
                0x0000000000012549       0x6e CMakeFiles/kiibohd.dir/Macro/PartialMap/macro.c.obj
                0x0000000000012549                keyPressCLIDict_DescEntry
 .rodata.keyReleaseCLIDict_DescEntry
                0x00000000000125b7       0x6b CMakeFiles/kiibohd.dir/Macro/PartialMap/macro.c.obj
                0x00000000000125b7                keyReleaseCLIDict_DescEntry
 *fill*         0x0000000000012622        0x2 
 .rodata.layer1_tl_0x00
                0x0000000000012624        0x8 CMakeFiles/kiibohd.dir/Macro/PartialMap/macro.c.obj
                0x0000000000012624                layer1_tl_0x00
 .rodata.layer1_tl_0x01
                0x000000000001262c        0x8 CMakeFiles/kiibohd.dir/Macro/PartialMap/macro.c.obj
                0x000000000001262c                layer1_tl_0x01
 .rodata.layer1_tl_0x02
                0x0000000000012634        0x8 CMakeFiles/kiibohd.dir/Macro/PartialMap/macro.c.obj
                0x0000000000012634                layer1_tl_0x02
 .rodata.layer1_tl_0x03
                0x000000000001263c        0x8 CMakeFiles/kiibohd.dir/Macro/PartialMap/macro.c.obj
                0x000000000001263c                layer1_tl_0x03
 .rodata.layer1_tl_0x04
                0x0000000000012644        0x8 CMakeFiles/kiibohd.dir/Macro/PartialMap/macro.c.obj
                0x0000000000012644                layer1_tl_0x04
 .rodata.layer1_tl_0x05
                0x000000000001264c        0x8 CMakeFiles/kiibohd.dir/Macro/PartialMap/macro.c.obj
                0x000000000001264c                layer1_tl_0x05
 .rodata.layer1_tl_0x06
                0x0000000000012654        0x4 CMakeFiles/kiibohd.dir/Macro/PartialMap/macro.c.obj
                0x0000000000012654                layer1_tl_0x06
 .rodata.layer1_tl_0x07
                0x0000000000012658        0x4 CMakeFiles/kiibohd.dir/Macro/PartialMap/macro.c.obj
                0x0000000000012658                layer1_tl_0x07
 .rodata.layer1_tl_0x08
                0x000000000001265c        0x4 CMakeFiles/kiibohd.dir/Macro/PartialMap/macro.c.obj
                0x000000000001265c                layer1_tl_0x08
 .rodata.layer1_tl_0x09
                0x0000000000012660        0x8 CMakeFiles/kiibohd.dir/Macro/PartialMap/macro.c.obj
                0x0000000000012660                layer1_tl_0x09
 .rodata.layer1_tl_0x0A
                0x0000000000012668        0x4 CMakeFiles/kiibohd.dir/Macro/PartialMap/macro.c.obj
                0x0000000000012668                layer1_tl_0x0A
 .rodata.layer1_tl_0x0B
                0x000000000001266c        0x4 CMakeFiles/kiibohd.dir/Macro/PartialMap/macro.c.obj
                0x000000000001266c                layer1_tl_0x0B
 .rodata.layer1_tl_0x0C
                0x0000000000012670        0x4 CMakeFiles/kiibohd.dir/Macro/PartialMap/macro.c.obj
                0x0000000000012670                layer1_tl_0x0C
 .rodata.layer1_tl_0x0D
                0x0000000000012674        0x4 CMakeFiles/kiibohd.dir/Macro/PartialMap/macro.c.obj
                0x0000000000012674                layer1_tl_0x0D
 .rodata.layer1_tl_0x0E
                0x0000000000012678        0x4 CMakeFiles/kiibohd.dir/Macro/PartialMap/macro.c.obj
                0x0000000000012678                layer1_tl_0x0E
 .rodata.layer1_tl_0x0F
                0x000000000001267c        0x4 CMakeFiles/kiibohd.dir/Macro/PartialMap/macro.c.obj
                0x000000000001267c                layer1_tl_0x0F
 .rodata.layer1_tl_0x10
                0x0000000000012680        0x4 CMakeFiles/kiibohd.dir/Macro/PartialMap/macro.c.obj
                0x0000000000012680                layer1_tl_0x10
 .rodata.layer1_tl_0x11
                0x0000000000012684        0x4 CMakeFiles/kiibohd.dir/Macro/PartialMap/macro.c.obj
                0x0000000000012684                layer1_tl_0x11
 .rodata.layer1_tl_0x12
                0x0000000000012688        0x4 CMakeFiles/kiibohd.dir/Macro/PartialMap/macro.c.obj
                0x0000000000012688                layer1_tl_0x12
 .rodata.layer1_tl_0x13
                0x000000000001268c        0x4 CMakeFiles/kiibohd.dir/Macro/PartialMap/macro.c.obj
                0x000000000001268c                layer1_tl_0x13
 .rodata.layer1_tl_0x14
                0x0000000000012690        0x4 CMakeFiles/kiibohd.dir/Macro/PartialMap/macro.c.obj
                0x0000000000012690                layer1_tl_0x14
 .rodata.layer1_tl_0x15
                0x0000000000012694        0x4 CMakeFiles/kiibohd.dir/Macro/PartialMap/macro.c.obj
                0x0000000000012694                layer1_tl_0x15
 .rodata.layer1_tl_0x16
                0x0000000000012698        0x4 CMakeFiles/kiibohd.dir/Macro/PartialMap/macro.c.obj
                0x0000000000012698                layer1_tl_0x16
 .rodata.layer1_tl_0x17
                0x000000000001269c        0x4 CMakeFiles/kiibohd.dir/Macro/PartialMap/macro.c.obj
                0x000000000001269c                layer1_tl_0x17
 .rodata.layer1_tl_0x18
                0x00000000000126a0        0x4 CMakeFiles/kiibohd.dir/Macro/PartialMap/macro.c.obj
                0x00000000000126a0                layer1_tl_0x18
 .rodata.layer1_tl_0x19
                0x00000000000126a4        0x4 CMakeFiles/kiibohd.dir/Macro/PartialMap/macro.c.obj
                0x00000000000126a4                layer1_tl_0x19
 .rodata.layer1_tl_0x1A
                0x00000000000126a8        0x4 CMakeFiles/kiibohd.dir/Macro/PartialMap/macro.c.obj
                0x00000000000126a8                layer1_tl_0x1A
 .rodata.layer1_tl_0x1B
                0x00000000000126ac        0x8 CMakeFiles/kiibohd.dir/Macro/PartialMap/macro.c.obj
                0x00000000000126ac                layer1_tl_0x1B
 .rodata.layer1_tl_0x1C
                0x00000000000126b4        0x4 CMakeFiles/kiibohd.dir/Macro/PartialMap/macro.c.obj
                0x00000000000126b4                layer1_tl_0x1C
 .rodata.layer1_tl_0x1D
                0x00000000000126b8        0x4 CMakeFiles/kiibohd.dir/Macro/PartialMap/macro.c.obj
                0x00000000000126b8                layer1_tl_0x1D
 .rodata.layer1_tl_0x1E
                0x00000000000126bc        0x4 CMakeFiles/kiibohd.dir/Macro/PartialMap/macro.c.obj
                0x00000000000126bc                layer1_tl_0x1E
 .rodata.layer1_tl_0x1F
                0x00000000000126c0        0x4 CMakeFiles/kiibohd.dir/Macro/PartialMap/macro.c.obj
                0x00000000000126c0                layer1_tl_0x1F
 .rodata.layer1_tl_0x20
                0x00000000000126c4        0x4 CMakeFiles/kiibohd.dir/Macro/PartialMap/macro.c.obj
                0x00000000000126c4                layer1_tl_0x20
 .rodata.layer1_tl_0x21
                0x00000000000126c8        0x4 CMakeFiles/kiibohd.dir/Macro/PartialMap/macro.c.obj
                0x00000000000126c8                layer1_tl_0x21
 .rodata.layer1_tl_0x22
                0x00000000000126cc        0x4 CMakeFiles/kiibohd.dir/Macro/PartialMap/macro.c.obj
                0x00000000000126cc                layer1_tl_0x22
 .rodata.layer1_tl_0x23
                0x00000000000126d0        0x4 CMakeFiles/kiibohd.dir/Macro/PartialMap/macro.c.obj
                0x00000000000126d0                layer1_tl_0x23
 .rodata.layer1_tl_0x24
                0x00000000000126d4        0x4 CMakeFiles/kiibohd.dir/Macro/PartialMap/macro.c.obj
                0x00000000000126d4                layer1_tl_0x24
 .rodata.layer1_tl_0x25
                0x00000000000126d8        0x4 CMakeFiles/kiibohd.dir/Macro/PartialMap/macro.c.obj
                0x00000000000126d8                layer1_tl_0x25
 .rodata.layer1_tl_0x26
                0x00000000000126dc        0x8 CMakeFiles/kiibohd.dir/Macro/PartialMap/macro.c.obj
                0x00000000000126dc                layer1_tl_0x26
 .rodata.layer1_tl_0x27
                0x00000000000126e4        0x8 CMakeFiles/kiibohd.dir/Macro/PartialMap/macro.c.obj
                0x00000000000126e4                layer1_tl_0x27
 .rodata.layer1_tl_0x28
                0x00000000000126ec        0x8 CMakeFiles/kiibohd.dir/Macro/PartialMap/macro.c.obj
                0x00000000000126ec                layer1_tl_0x28
 .rodata.layer1_tl_0x29
                0x00000000000126f4        0x4 CMakeFiles/kiibohd.dir/Macro/PartialMap/macro.c.obj
                0x00000000000126f4                layer1_tl_0x29
 .rodata.layer1_tl_0x2A
                0x00000000000126f8        0x4 CMakeFiles/kiibohd.dir/Macro/PartialMap/macro.c.obj
                0x00000000000126f8                layer1_tl_0x2A
 .rodata.layer1_tl_0x2B
                0x00000000000126fc        0x4 CMakeFiles/kiibohd.dir/Macro/PartialMap/macro.c.obj
                0x00000000000126fc                layer1_tl_0x2B
 .rodata.layer1_tl_0x2C
                0x0000000000012700        0x4 CMakeFiles/kiibohd.dir/Macro/PartialMap/macro.c.obj
                0x0000000000012700                layer1_tl_0x2C
 .rodata.layer1_tl_0x2D
                0x0000000000012704        0x8 CMakeFiles/kiibohd.dir/Macro/PartialMap/macro.c.obj
                0x0000000000012704                layer1_tl_0x2D
 .rodata.layer1_tl_0x2E
                0x000000000001270c        0x8 CMakeFiles/kiibohd.dir/Macro/PartialMap/macro.c.obj
                0x000000000001270c                layer1_tl_0x2E
 .rodata.layer1_tl_0x2F
                0x0000000000012714        0x8 CMakeFiles/kiibohd.dir/Macro/PartialMap/macro.c.obj
                0x0000000000012714                layer1_tl_0x2F
 .rodata.layer1_tl_0x30
                0x000000000001271c        0x8 CMakeFiles/kiibohd.dir/Macro/PartialMap/macro.c.obj
                0x000000000001271c                layer1_tl_0x30
 .rodata.layer1_tl_0x31
                0x0000000000012724        0x8 CMakeFiles/kiibohd.dir/Macro/PartialMap/macro.c.obj
                0x0000000000012724                layer1_tl_0x31
 .rodata.layer1_tl_0x32
                0x000000000001272c        0x8 CMakeFiles/kiibohd.dir/Macro/PartialMap/macro.c.obj
                0x000000000001272c                layer1_tl_0x32
 .rodata.layer1_tl_0x33
                0x0000000000012734        0x4 CMakeFiles/kiibohd.dir/Macro/PartialMap/macro.c.obj
                0x0000000000012734                layer1_tl_0x33
 .rodata.layer1_tl_0x34
                0x0000000000012738        0x4 CMakeFiles/kiibohd.dir/Macro/PartialMap/macro.c.obj
                0x0000000000012738                layer1_tl_0x34
 .rodata.layer1_tl_0x35
                0x000000000001273c        0x4 CMakeFiles/kiibohd.dir/Macro/PartialMap/macro.c.obj
                0x000000000001273c                layer1_tl_0x35
 .rodata.layer1_tl_0x36
                0x0000000000012740        0x4 CMakeFiles/kiibohd.dir/Macro/PartialMap/macro.c.obj
                0x0000000000012740                layer1_tl_0x36
 .rodata.layer1_tl_0x37
                0x0000000000012744        0x4 CMakeFiles/kiibohd.dir/Macro/PartialMap/macro.c.obj
                0x0000000000012744                layer1_tl_0x37
 .rodata.layer1_tl_0x38
                0x0000000000012748        0x4 CMakeFiles/kiibohd.dir/Macro/PartialMap/macro.c.obj
                0x0000000000012748                layer1_tl_0x38
 .rodata.layer1_tl_0x39
                0x000000000001274c        0x4 CMakeFiles/kiibohd.dir/Macro/PartialMap/macro.c.obj
                0x000000000001274c                layer1_tl_0x39
 .rodata.layer1_tl_0x3A
                0x0000000000012750        0x4 CMakeFiles/kiibohd.dir/Macro/PartialMap/macro.c.obj
                0x0000000000012750                layer1_tl_0x3A
 .rodata.layer1_tl_0x3B
                0x0000000000012754        0x4 CMakeFiles/kiibohd.dir/Macro/PartialMap/macro.c.obj
                0x0000000000012754                layer1_tl_0x3B
 .rodata.layer1_tl_0x3C
                0x0000000000012758        0x4 CMakeFiles/kiibohd.dir/Macro/PartialMap/macro.c.obj
                0x0000000000012758                layer1_tl_0x3C
 .rodata.layer1_tl_0x3D
                0x000000000001275c        0x4 CMakeFiles/kiibohd.dir/Macro/PartialMap/macro.c.obj
                0x000000000001275c                layer1_tl_0x3D
 .rodata.layer1_tl_0x3E
                0x0000000000012760        0x4 CMakeFiles/kiibohd.dir/Macro/PartialMap/macro.c.obj
                0x0000000000012760                layer1_tl_0x3E
 .rodata.layer1_tl_0x3F
                0x0000000000012764        0x4 CMakeFiles/kiibohd.dir/Macro/PartialMap/macro.c.obj
                0x0000000000012764                layer1_tl_0x3F
 .rodata.layer1_tl_0x40
                0x0000000000012768        0x4 CMakeFiles/kiibohd.dir/Macro/PartialMap/macro.c.obj
                0x0000000000012768                layer1_tl_0x40
 .rodata.layer1_tl_0x41
                0x000000000001276c        0x4 CMakeFiles/kiibohd.dir/Macro/PartialMap/macro.c.obj
                0x000000000001276c                layer1_tl_0x41
 .rodata.layer1_tl_0x42
                0x0000000000012770        0x4 CMakeFiles/kiibohd.dir/Macro/PartialMap/macro.c.obj
                0x0000000000012770                layer1_tl_0x42
 .rodata.layer1_tl_0x43
                0x0000000000012774        0x4 CMakeFiles/kiibohd.dir/Macro/PartialMap/macro.c.obj
                0x0000000000012774                layer1_tl_0x43
 .rodata.layer1_tl_0x44
                0x0000000000012778        0x4 CMakeFiles/kiibohd.dir/Macro/PartialMap/macro.c.obj
                0x0000000000012778                layer1_tl_0x44
 .rodata.layer1_tl_0x45
                0x000000000001277c        0x4 CMakeFiles/kiibohd.dir/Macro/PartialMap/macro.c.obj
                0x000000000001277c                layer1_tl_0x45
 .rodata.layer1_tl_0x46
                0x0000000000012780        0x4 CMakeFiles/kiibohd.dir/Macro/PartialMap/macro.c.obj
                0x0000000000012780                layer1_tl_0x46
 .rodata.layer1_tl_0x47
                0x0000000000012784        0x4 CMakeFiles/kiibohd.dir/Macro/PartialMap/macro.c.obj
                0x0000000000012784                layer1_tl_0x47
 .rodata.layer1_tl_0x48
                0x0000000000012788        0x8 CMakeFiles/kiibohd.dir/Macro/PartialMap/macro.c.obj
                0x0000000000012788                layer1_tl_0x48
 .rodata.layer1_tl_0x49
                0x0000000000012790        0x8 CMakeFiles/kiibohd.dir/Macro/PartialMap/macro.c.obj
                0x0000000000012790                layer1_tl_0x49
 .rodata.layer2_tl_0x00
                0x0000000000012798        0x8 CMakeFiles/kiibohd.dir/Macro/PartialMap/macro.c.obj
                0x0000000000012798                layer2_tl_0x00
 .rodata.layer2_tl_0x01
                0x00000000000127a0        0x4 CMakeFiles/kiibohd.dir/Macro/PartialMap/macro.c.obj
                0x00000000000127a0                layer2_tl_0x01
 .rodata.layer2_tl_0x02
                0x00000000000127a4        0x4 CMakeFiles/kiibohd.dir/Macro/PartialMap/macro.c.obj
                0x00000000000127a4                layer2_tl_0x02
 .rodata.layer2_tl_0x03
                0x00000000000127a8        0x8 CMakeFiles/kiibohd.dir/Macro/PartialMap/macro.c.obj
                0x00000000000127a8                layer2_tl_0x03
 .rodata.layer2_tl_0x04
                0x00000000000127b0        0x4 CMakeFiles/kiibohd.dir/Macro/PartialMap/macro.c.obj
                0x00000000000127b0                layer2_tl_0x04
 .rodata.layer2_tl_0x05
                0x00000000000127b4        0x4 CMakeFiles/kiibohd.dir/Macro/PartialMap/macro.c.obj
                0x00000000000127b4                layer2_tl_0x05
 .rodata.layer2_tl_0x06
                0x00000000000127b8        0x4 CMakeFiles/kiibohd.dir/Macro/PartialMap/macro.c.obj
                0x00000000000127b8                layer2_tl_0x06
 .rodata.layer2_tl_0x07
                0x00000000000127bc        0x4 CMakeFiles/kiibohd.dir/Macro/PartialMap/macro.c.obj
                0x00000000000127bc                layer2_tl_0x07
 .rodata.layer2_tl_0x08
                0x00000000000127c0        0x4 CMakeFiles/kiibohd.dir/Macro/PartialMap/macro.c.obj
                0x00000000000127c0                layer2_tl_0x08
 .rodata.layer2_tl_0x09
                0x00000000000127c4        0x4 CMakeFiles/kiibohd.dir/Macro/PartialMap/macro.c.obj
                0x00000000000127c4                layer2_tl_0x09
 .rodata.layer2_tl_0x0A
                0x00000000000127c8        0x4 CMakeFiles/kiibohd.dir/Macro/PartialMap/macro.c.obj
                0x00000000000127c8                layer2_tl_0x0A
 .rodata.layer2_tl_0x0B
                0x00000000000127cc        0x4 CMakeFiles/kiibohd.dir/Macro/PartialMap/macro.c.obj
                0x00000000000127cc                layer2_tl_0x0B
 .rodata.layer2_tl_0x0C
                0x00000000000127d0        0x4 CMakeFiles/kiibohd.dir/Macro/PartialMap/macro.c.obj
                0x00000000000127d0                layer2_tl_0x0C
 .rodata.layer2_tl_0x0D
                0x00000000000127d4        0x4 CMakeFiles/kiibohd.dir/Macro/PartialMap/macro.c.obj
                0x00000000000127d4                layer2_tl_0x0D
 .rodata.layer2_tl_0x0E
                0x00000000000127d8        0x4 CMakeFiles/kiibohd.dir/Macro/PartialMap/macro.c.obj
                0x00000000000127d8                layer2_tl_0x0E
 .rodata.layer2_tl_0x0F
                0x00000000000127dc        0x4 CMakeFiles/kiibohd.dir/Macro/PartialMap/macro.c.obj
                0x00000000000127dc                layer2_tl_0x0F
 .rodata.layer2_tl_0x10
                0x00000000000127e0        0x4 CMakeFiles/kiibohd.dir/Macro/PartialMap/macro.c.obj
                0x00000000000127e0                layer2_tl_0x10
 .rodata.layer2_tl_0x11
                0x00000000000127e4        0x4 CMakeFiles/kiibohd.dir/Macro/PartialMap/macro.c.obj
                0x00000000000127e4                layer2_tl_0x11
 .rodata.layer2_tl_0x12
                0x00000000000127e8        0x4 CMakeFiles/kiibohd.dir/Macro/PartialMap/macro.c.obj
                0x00000000000127e8                layer2_tl_0x12
 .rodata.layer2_tl_0x13
                0x00000000000127ec        0x4 CMakeFiles/kiibohd.dir/Macro/PartialMap/macro.c.obj
                0x00000000000127ec                layer2_tl_0x13
 .rodata.layer2_tl_0x14
                0x00000000000127f0        0x4 CMakeFiles/kiibohd.dir/Macro/PartialMap/macro.c.obj
                0x00000000000127f0                layer2_tl_0x14
 .rodata.layer2_tl_0x15
                0x00000000000127f4        0x8 CMakeFiles/kiibohd.dir/Macro/PartialMap/macro.c.obj
                0x00000000000127f4                layer2_tl_0x15
 .rodata.layer2_tl_0x16
                0x00000000000127fc        0x4 CMakeFiles/kiibohd.dir/Macro/PartialMap/macro.c.obj
                0x00000000000127fc                layer2_tl_0x16
 .rodata.layer2_tl_0x17
                0x0000000000012800        0x4 CMakeFiles/kiibohd.dir/Macro/PartialMap/macro.c.obj
                0x0000000000012800                layer2_tl_0x17
 .rodata.layer2_tl_0x18
                0x0000000000012804        0x4 CMakeFiles/kiibohd.dir/Macro/PartialMap/macro.c.obj
                0x0000000000012804                layer2_tl_0x18
 .rodata.layer2_tl_0x19
                0x0000000000012808        0x4 CMakeFiles/kiibohd.dir/Macro/PartialMap/macro.c.obj
                0x0000000000012808                layer2_tl_0x19
 .rodata.layer2_tl_0x1A
                0x000000000001280c        0x4 CMakeFiles/kiibohd.dir/Macro/PartialMap/macro.c.obj
                0x000000000001280c                layer2_tl_0x1A
 .rodata.layer2_tl_0x1B
                0x0000000000012810        0x4 CMakeFiles/kiibohd.dir/Macro/PartialMap/macro.c.obj
                0x0000000000012810                layer2_tl_0x1B
 .rodata.layer2_tl_0x1C
                0x0000000000012814        0x4 CMakeFiles/kiibohd.dir/Macro/PartialMap/macro.c.obj
                0x0000000000012814                layer2_tl_0x1C
 .rodata.layer2_tl_0x1D
                0x0000000000012818        0x4 CMakeFiles/kiibohd.dir/Macro/PartialMap/macro.c.obj
                0x0000000000012818                layer2_tl_0x1D
 .rodata.layer2_tl_0x1E
                0x000000000001281c        0x4 CMakeFiles/kiibohd.dir/Macro/PartialMap/macro.c.obj
                0x000000000001281c                layer2_tl_0x1E
 .rodata.layer2_tl_0x1F
                0x0000000000012820        0x4 CMakeFiles/kiibohd.dir/Macro/PartialMap/macro.c.obj
                0x0000000000012820                layer2_tl_0x1F
 .rodata.layer2_tl_0x20
                0x0000000000012824        0x8 CMakeFiles/kiibohd.dir/Macro/PartialMap/macro.c.obj
                0x0000000000012824                layer2_tl_0x20
 .rodata.layer2_tl_0x21
                0x000000000001282c        0x8 CMakeFiles/kiibohd.dir/Macro/PartialMap/macro.c.obj
                0x000000000001282c                layer2_tl_0x21
 .rodata.layer2_tl_0x22
                0x0000000000012834        0x8 CMakeFiles/kiibohd.dir/Macro/PartialMap/macro.c.obj
                0x0000000000012834                layer2_tl_0x22
 .rodata.layer2_tl_0x23
                0x000000000001283c        0x4 CMakeFiles/kiibohd.dir/Macro/PartialMap/macro.c.obj
                0x000000000001283c                layer2_tl_0x23
 .rodata.layer2_tl_0x24
                0x0000000000012840        0x4 CMakeFiles/kiibohd.dir/Macro/PartialMap/macro.c.obj
                0x0000000000012840                layer2_tl_0x24
 .rodata.layer2_tl_0x25
                0x0000000000012844        0x4 CMakeFiles/kiibohd.dir/Macro/PartialMap/macro.c.obj
                0x0000000000012844                layer2_tl_0x25
 .rodata.layer2_tl_0x26
                0x0000000000012848        0x4 CMakeFiles/kiibohd.dir/Macro/PartialMap/macro.c.obj
                0x0000000000012848                layer2_tl_0x26
 .rodata.layer2_tl_0x27
                0x000000000001284c        0x8 CMakeFiles/kiibohd.dir/Macro/PartialMap/macro.c.obj
                0x000000000001284c                layer2_tl_0x27
 .rodata.layer2_tl_0x28
                0x0000000000012854        0x4 CMakeFiles/kiibohd.dir/Macro/PartialMap/macro.c.obj
                0x0000000000012854                layer2_tl_0x28
 .rodata.layer2_tl_0x29
                0x0000000000012858        0x8 CMakeFiles/kiibohd.dir/Macro/PartialMap/macro.c.obj
                0x0000000000012858                layer2_tl_0x29
 .rodata.layer2_tl_0x2A
                0x0000000000012860        0x8 CMakeFiles/kiibohd.dir/Macro/PartialMap/macro.c.obj
                0x0000000000012860                layer2_tl_0x2A
 .rodata.layer2_tl_0x2B
                0x0000000000012868        0x8 CMakeFiles/kiibohd.dir/Macro/PartialMap/macro.c.obj
                0x0000000000012868                layer2_tl_0x2B
 .rodata.layer2_tl_0x2C
                0x0000000000012870        0x8 CMakeFiles/kiibohd.dir/Macro/PartialMap/macro.c.obj
                0x0000000000012870                layer2_tl_0x2C
 .rodata.layer2_tl_0x2D
                0x0000000000012878        0x4 CMakeFiles/kiibohd.dir/Macro/PartialMap/macro.c.obj
                0x0000000000012878                layer2_tl_0x2D
 .rodata.layer2_tl_0x2E
                0x000000000001287c        0x4 CMakeFiles/kiibohd.dir/Macro/PartialMap/macro.c.obj
                0x000000000001287c                layer2_tl_0x2E
 .rodata.layer2_tl_0x2F
                0x0000000000012880        0x4 CMakeFiles/kiibohd.dir/Macro/PartialMap/macro.c.obj
                0x0000000000012880                layer2_tl_0x2F
 .rodata.layer2_tl_0x30
                0x0000000000012884        0x4 CMakeFiles/kiibohd.dir/Macro/PartialMap/macro.c.obj
                0x0000000000012884                layer2_tl_0x30
 .rodata.layer2_tl_0x31
                0x0000000000012888        0x4 CMakeFiles/kiibohd.dir/Macro/PartialMap/macro.c.obj
                0x0000000000012888                layer2_tl_0x31
 .rodata.layer2_tl_0x32
                0x000000000001288c        0x8 CMakeFiles/kiibohd.dir/Macro/PartialMap/macro.c.obj
                0x000000000001288c                layer2_tl_0x32
 .rodata.layer2_tl_0x33
                0x0000000000012894        0x8 CMakeFiles/kiibohd.dir/Macro/PartialMap/macro.c.obj
                0x0000000000012894                layer2_tl_0x33
 .rodata.layer2_tl_0x34
                0x000000000001289c        0x8 CMakeFiles/kiibohd.dir/Macro/PartialMap/macro.c.obj
                0x000000000001289c                layer2_tl_0x34
 .rodata.layer2_tl_0x35
                0x00000000000128a4        0x8 CMakeFiles/kiibohd.dir/Macro/PartialMap/macro.c.obj
                0x00000000000128a4                layer2_tl_0x35
 .rodata.layer2_tl_0x36
                0x00000000000128ac        0x4 CMakeFiles/kiibohd.dir/Macro/PartialMap/macro.c.obj
                0x00000000000128ac                layer2_tl_0x36
 .rodata.layer2_tl_0x37
                0x00000000000128b0        0x4 CMakeFiles/kiibohd.dir/Macro/PartialMap/macro.c.obj
                0x00000000000128b0                layer2_tl_0x37
 .rodata.layer2_tl_0x38
                0x00000000000128b4        0x4 CMakeFiles/kiibohd.dir/Macro/PartialMap/macro.c.obj
                0x00000000000128b4                layer2_tl_0x38
 .rodata.layer2_tl_0x39
                0x00000000000128b8        0x4 CMakeFiles/kiibohd.dir/Macro/PartialMap/macro.c.obj
                0x00000000000128b8                layer2_tl_0x39
 .rodata.layer2_tl_0x3A
                0x00000000000128bc        0x4 CMakeFiles/kiibohd.dir/Macro/PartialMap/macro.c.obj
                0x00000000000128bc                layer2_tl_0x3A
 .rodata.layer2_tl_0x3B
                0x00000000000128c0        0x8 CMakeFiles/kiibohd.dir/Macro/PartialMap/macro.c.obj
                0x00000000000128c0                layer2_tl_0x3B
 .rodata.layer2_tl_0x3C
                0x00000000000128c8        0x8 CMakeFiles/kiibohd.dir/Macro/PartialMap/macro.c.obj
                0x00000000000128c8                layer2_tl_0x3C
 .rodata.layer2_tl_0x3D
                0x00000000000128d0        0x8 CMakeFiles/kiibohd.dir/Macro/PartialMap/macro.c.obj
                0x00000000000128d0                layer2_tl_0x3D
 .rodata.layer2_tl_0x3E
                0x00000000000128d8        0x8 CMakeFiles/kiibohd.dir/Macro/PartialMap/macro.c.obj
                0x00000000000128d8                layer2_tl_0x3E
 .rodata.layer2_tl_0x3F
                0x00000000000128e0        0x4 CMakeFiles/kiibohd.dir/Macro/PartialMap/macro.c.obj
                0x00000000000128e0                layer2_tl_0x3F
 .rodata.layer2_tl_0x40
                0x00000000000128e4        0x4 CMakeFiles/kiibohd.dir/Macro/PartialMap/macro.c.obj
                0x00000000000128e4                layer2_tl_0x40
 .rodata.layer2_tl_0x41
                0x00000000000128e8        0x4 CMakeFiles/kiibohd.dir/Macro/PartialMap/macro.c.obj
                0x00000000000128e8                layer2_tl_0x41
 .rodata.layer2_tl_0x42
                0x00000000000128ec        0x8 CMakeFiles/kiibohd.dir/Macro/PartialMap/macro.c.obj
                0x00000000000128ec                layer2_tl_0x42
 .rodata.layer2_tl_0x43
                0x00000000000128f4        0x4 CMakeFiles/kiibohd.dir/Macro/PartialMap/macro.c.obj
                0x00000000000128f4                layer2_tl_0x43
 .rodata.layer2_tl_0x44
                0x00000000000128f8        0x8 CMakeFiles/kiibohd.dir/Macro/PartialMap/macro.c.obj
                0x00000000000128f8                layer2_tl_0x44
 .rodata.layer2_tl_0x45
                0x0000000000012900        0x8 CMakeFiles/kiibohd.dir/Macro/PartialMap/macro.c.obj
                0x0000000000012900                layer2_tl_0x45
 .rodata.layer2_tl_0x46
                0x0000000000012908        0x8 CMakeFiles/kiibohd.dir/Macro/PartialMap/macro.c.obj
                0x0000000000012908                layer2_tl_0x46
 .rodata.layer2_tl_0x47
                0x0000000000012910        0x8 CMakeFiles/kiibohd.dir/Macro/PartialMap/macro.c.obj
                0x0000000000012910                layer2_tl_0x47
 .rodata.layer2_tl_0x48
                0x0000000000012918        0x4 CMakeFiles/kiibohd.dir/Macro/PartialMap/macro.c.obj
                0x0000000000012918                layer2_tl_0x48
 .rodata.layer2_tl_0x49
                0x000000000001291c        0x4 CMakeFiles/kiibohd.dir/Macro/PartialMap/macro.c.obj
                0x000000000001291c                layer2_tl_0x49
 .rodata.layer2_tl_0x4A
                0x0000000000012920        0x4 CMakeFiles/kiibohd.dir/Macro/PartialMap/macro.c.obj
                0x0000000000012920                layer2_tl_0x4A
 .rodata.layer2_tl_0x4B
                0x0000000000012924        0x4 CMakeFiles/kiibohd.dir/Macro/PartialMap/macro.c.obj
                0x0000000000012924                layer2_tl_0x4B
 .rodata.layer2_tl_0x4C
                0x0000000000012928        0x8 CMakeFiles/kiibohd.dir/Macro/PartialMap/macro.c.obj
                0x0000000000012928                layer2_tl_0x4C
 .rodata.layer2_tl_0x4D
                0x0000000000012930        0x4 CMakeFiles/kiibohd.dir/Macro/PartialMap/macro.c.obj
                0x0000000000012930                layer2_tl_0x4D
 .rodata.layer2_tl_0x4E
                0x0000000000012934        0x4 CMakeFiles/kiibohd.dir/Macro/PartialMap/macro.c.obj
                0x0000000000012934                layer2_tl_0x4E
 .rodata.layer2_tl_0x4F
                0x0000000000012938        0x8 CMakeFiles/kiibohd.dir/Macro/PartialMap/macro.c.obj
                0x0000000000012938                layer2_tl_0x4F
 .rodata.layer2_tl_0x50
                0x0000000000012940        0x8 CMakeFiles/kiibohd.dir/Macro/PartialMap/macro.c.obj
                0x0000000000012940                layer2_tl_0x50
 .rodata.layerDebugCLIDict_DescEntry
                0x0000000000012948       0x35 CMakeFiles/kiibohd.dir/Macro/PartialMap/macro.c.obj
                0x0000000000012948                layerDebugCLIDict_DescEntry
 .rodata.layerListCLIDict_DescEntry
                0x000000000001297d       0x17 CMakeFiles/kiibohd.dir/Macro/PartialMap/macro.c.obj
                0x000000000001297d                layerListCLIDict_DescEntry
 .rodata.layerStateCLIDict_DescEntry
                0x0000000000012994       0x87 CMakeFiles/kiibohd.dir/Macro/PartialMap/macro.c.obj
                0x0000000000012994                layerStateCLIDict_DescEntry
 *fill*         0x0000000000012a1b        0x1 
 .rodata.macroCLIDict
                0x0000000000012a1c       0xcc CMakeFiles/kiibohd.dir/Macro/PartialMap/macro.c.obj
                0x0000000000012a1c                macroCLIDict
 .rodata.macroCLIDictName
                0x0000000000012ae8       0x16 CMakeFiles/kiibohd.dir/Macro/PartialMap/macro.c.obj
                0x0000000000012ae8                macroCLIDictName
 .rodata.macroDebugCLIDict_DescEntry
                0x0000000000012afe       0x51 CMakeFiles/kiibohd.dir/Macro/PartialMap/macro.c.obj
                0x0000000000012afe                macroDebugCLIDict_DescEntry
 .rodata.macroDebugShowResult.str1.1
                0x0000000000012b4f       0x29 CMakeFiles/kiibohd.dir/Macro/PartialMap/macro.c.obj
                                         0x2d (size before relaxing)
 .rodata.macroDebugShowTrigger.str1.1
                0x0000000000012b78       0x7e CMakeFiles/kiibohd.dir/Macro/PartialMap/macro.c.obj
                                         0x8e (size before relaxing)
 .rodata.macroListCLIDict_DescEntry
                0x0000000000012bf6       0x2c CMakeFiles/kiibohd.dir/Macro/PartialMap/macro.c.obj
                0x0000000000012bf6                macroListCLIDict_DescEntry
 .rodata.macroProcCLIDict_DescEntry
                0x0000000000012c22       0x1f CMakeFiles/kiibohd.dir/Macro/PartialMap/macro.c.obj
                0x0000000000012c22                macroProcCLIDict_DescEntry
 .rodata.macroShowCLIDict_DescEntry
                0x0000000000012c41       0x84 CMakeFiles/kiibohd.dir/Macro/PartialMap/macro.c.obj
                0x0000000000012c41                macroShowCLIDict_DescEntry
 .rodata.macroStepCLIDict_DescEntry
                0x0000000000012cc5       0x2c CMakeFiles/kiibohd.dir/Macro/PartialMap/macro.c.obj
                0x0000000000012cc5                macroStepCLIDict_DescEntry
 .rodata.posListCLIDict_DescEntry
                0x0000000000012cf1       0x29 CMakeFiles/kiibohd.dir/Macro/PartialMap/macro.c.obj
                0x0000000000012cf1                posListCLIDict_DescEntry
 .rodata.rm0_guide
                0x0000000000012d1a        0x5 CMakeFiles/kiibohd.dir/Macro/PartialMap/macro.c.obj
                0x0000000000012d1a                rm0_guide
 .rodata.rm100_guide
                0x0000000000012d1f        0x5 CMakeFiles/kiibohd.dir/Macro/PartialMap/macro.c.obj
                0x0000000000012d1f                rm100_guide
 .rodata.rm101_guide
                0x0000000000012d24        0x6 CMakeFiles/kiibohd.dir/Macro/PartialMap/macro.c.obj
                0x0000000000012d24                rm101_guide
 .rodata.rm102_guide
                0x0000000000012d2a        0x5 CMakeFiles/kiibohd.dir/Macro/PartialMap/macro.c.obj
                0x0000000000012d2a                rm102_guide
 .rodata.rm103_guide
                0x0000000000012d2f        0x6 CMakeFiles/kiibohd.dir/Macro/PartialMap/macro.c.obj
                0x0000000000012d2f                rm103_guide
 .rodata.rm104_guide
                0x0000000000012d35        0x5 CMakeFiles/kiibohd.dir/Macro/PartialMap/macro.c.obj
                0x0000000000012d35                rm104_guide
 .rodata.rm105_guide
                0x0000000000012d3a        0x5 CMakeFiles/kiibohd.dir/Macro/PartialMap/macro.c.obj
                0x0000000000012d3a                rm105_guide
 .rodata.rm106_guide
                0x0000000000012d3f        0x5 CMakeFiles/kiibohd.dir/Macro/PartialMap/macro.c.obj
                0x0000000000012d3f                rm106_guide
 .rodata.rm10_guide
                0x0000000000012d44        0x4 CMakeFiles/kiibohd.dir/Macro/PartialMap/macro.c.obj
                0x0000000000012d44                rm10_guide
 .rodata.rm11_guide
                0x0000000000012d48        0x4 CMakeFiles/kiibohd.dir/Macro/PartialMap/macro.c.obj
                0x0000000000012d48                rm11_guide
 .rodata.rm12_guide
                0x0000000000012d4c        0x4 CMakeFiles/kiibohd.dir/Macro/PartialMap/macro.c.obj
                0x0000000000012d4c                rm12_guide
 .rodata.rm13_guide
                0x0000000000012d50        0x4 CMakeFiles/kiibohd.dir/Macro/PartialMap/macro.c.obj
                0x0000000000012d50                rm13_guide
 .rodata.rm14_guide
                0x0000000000012d54        0x4 CMakeFiles/kiibohd.dir/Macro/PartialMap/macro.c.obj
                0x0000000000012d54                rm14_guide
 .rodata.rm15_guide
                0x0000000000012d58        0x4 CMakeFiles/kiibohd.dir/Macro/PartialMap/macro.c.obj
                0x0000000000012d58                rm15_guide
 .rodata.rm16_guide
                0x0000000000012d5c        0x4 CMakeFiles/kiibohd.dir/Macro/PartialMap/macro.c.obj
                0x0000000000012d5c                rm16_guide
 .rodata.rm17_guide
                0x0000000000012d60        0x4 CMakeFiles/kiibohd.dir/Macro/PartialMap/macro.c.obj
                0x0000000000012d60                rm17_guide
 .rodata.rm18_guide
                0x0000000000012d64        0x4 CMakeFiles/kiibohd.dir/Macro/PartialMap/macro.c.obj
                0x0000000000012d64                rm18_guide
 .rodata.rm19_guide
                0x0000000000012d68        0x4 CMakeFiles/kiibohd.dir/Macro/PartialMap/macro.c.obj
                0x0000000000012d68                rm19_guide
 .rodata.rm1_guide
                0x0000000000012d6c        0x5 CMakeFiles/kiibohd.dir/Macro/PartialMap/macro.c.obj
                0x0000000000012d6c                rm1_guide
 .rodata.rm20_guide
                0x0000000000012d71        0x4 CMakeFiles/kiibohd.dir/Macro/PartialMap/macro.c.obj
                0x0000000000012d71                rm20_guide
 .rodata.rm21_guide
                0x0000000000012d75        0x4 CMakeFiles/kiibohd.dir/Macro/PartialMap/macro.c.obj
                0x0000000000012d75                rm21_guide
 .rodata.rm22_guide
                0x0000000000012d79        0x4 CMakeFiles/kiibohd.dir/Macro/PartialMap/macro.c.obj
                0x0000000000012d79                rm22_guide
 .rodata.rm23_guide
                0x0000000000012d7d        0x4 CMakeFiles/kiibohd.dir/Macro/PartialMap/macro.c.obj
                0x0000000000012d7d                rm23_guide
 .rodata.rm24_guide
                0x0000000000012d81        0x4 CMakeFiles/kiibohd.dir/Macro/PartialMap/macro.c.obj
                0x0000000000012d81                rm24_guide
 .rodata.rm25_guide
                0x0000000000012d85        0x4 CMakeFiles/kiibohd.dir/Macro/PartialMap/macro.c.obj
                0x0000000000012d85                rm25_guide
 .rodata.rm26_guide
                0x0000000000012d89        0x4 CMakeFiles/kiibohd.dir/Macro/PartialMap/macro.c.obj
                0x0000000000012d89                rm26_guide
 .rodata.rm27_guide
                0x0000000000012d8d        0x4 CMakeFiles/kiibohd.dir/Macro/PartialMap/macro.c.obj
                0x0000000000012d8d                rm27_guide
 .rodata.rm28_guide
                0x0000000000012d91        0x4 CMakeFiles/kiibohd.dir/Macro/PartialMap/macro.c.obj
                0x0000000000012d91                rm28_guide
 .rodata.rm29_guide
                0x0000000000012d95        0x4 CMakeFiles/kiibohd.dir/Macro/PartialMap/macro.c.obj
                0x0000000000012d95                rm29_guide
 .rodata.rm2_guide
                0x0000000000012d99        0x5 CMakeFiles/kiibohd.dir/Macro/PartialMap/macro.c.obj
                0x0000000000012d99                rm2_guide
 .rodata.rm30_guide
                0x0000000000012d9e        0x4 CMakeFiles/kiibohd.dir/Macro/PartialMap/macro.c.obj
                0x0000000000012d9e                rm30_guide
 .rodata.rm31_guide
                0x0000000000012da2        0x4 CMakeFiles/kiibohd.dir/Macro/PartialMap/macro.c.obj
                0x0000000000012da2                rm31_guide
 .rodata.rm32_guide
                0x0000000000012da6        0x4 CMakeFiles/kiibohd.dir/Macro/PartialMap/macro.c.obj
                0x0000000000012da6                rm32_guide
 .rodata.rm33_guide
                0x0000000000012daa        0x4 CMakeFiles/kiibohd.dir/Macro/PartialMap/macro.c.obj
                0x0000000000012daa                rm33_guide
 .rodata.rm34_guide
                0x0000000000012dae        0x4 CMakeFiles/kiibohd.dir/Macro/PartialMap/macro.c.obj
                0x0000000000012dae                rm34_guide
 .rodata.rm35_guide
                0x0000000000012db2        0x4 CMakeFiles/kiibohd.dir/Macro/PartialMap/macro.c.obj
                0x0000000000012db2                rm35_guide
 .rodata.rm36_guide
                0x0000000000012db6        0x4 CMakeFiles/kiibohd.dir/Macro/PartialMap/macro.c.obj
                0x0000000000012db6                rm36_guide
 .rodata.rm37_guide
                0x0000000000012dba        0x4 CMakeFiles/kiibohd.dir/Macro/PartialMap/macro.c.obj
                0x0000000000012dba                rm37_guide
 .rodata.rm38_guide
                0x0000000000012dbe        0x4 CMakeFiles/kiibohd.dir/Macro/PartialMap/macro.c.obj
                0x0000000000012dbe                rm38_guide
 .rodata.rm39_guide
                0x0000000000012dc2        0x4 CMakeFiles/kiibohd.dir/Macro/PartialMap/macro.c.obj
                0x0000000000012dc2                rm39_guide
 .rodata.rm3_guide
                0x0000000000012dc6        0x5 CMakeFiles/kiibohd.dir/Macro/PartialMap/macro.c.obj
                0x0000000000012dc6                rm3_guide
 .rodata.rm40_guide
                0x0000000000012dcb        0x4 CMakeFiles/kiibohd.dir/Macro/PartialMap/macro.c.obj
                0x0000000000012dcb                rm40_guide
 .rodata.rm41_guide
                0x0000000000012dcf        0x4 CMakeFiles/kiibohd.dir/Macro/PartialMap/macro.c.obj
                0x0000000000012dcf                rm41_guide
 .rodata.rm42_guide
                0x0000000000012dd3        0x4 CMakeFiles/kiibohd.dir/Macro/PartialMap/macro.c.obj
                0x0000000000012dd3                rm42_guide
 .rodata.rm43_guide
                0x0000000000012dd7        0x4 CMakeFiles/kiibohd.dir/Macro/PartialMap/macro.c.obj
                0x0000000000012dd7                rm43_guide
 .rodata.rm44_guide
                0x0000000000012ddb        0x4 CMakeFiles/kiibohd.dir/Macro/PartialMap/macro.c.obj
                0x0000000000012ddb                rm44_guide
 .rodata.rm45_guide
                0x0000000000012ddf        0x4 CMakeFiles/kiibohd.dir/Macro/PartialMap/macro.c.obj
                0x0000000000012ddf                rm45_guide
 .rodata.rm46_guide
                0x0000000000012de3        0x4 CMakeFiles/kiibohd.dir/Macro/PartialMap/macro.c.obj
                0x0000000000012de3                rm46_guide
 .rodata.rm47_guide
                0x0000000000012de7        0x4 CMakeFiles/kiibohd.dir/Macro/PartialMap/macro.c.obj
                0x0000000000012de7                rm47_guide
 .rodata.rm48_guide
                0x0000000000012deb        0x4 CMakeFiles/kiibohd.dir/Macro/PartialMap/macro.c.obj
                0x0000000000012deb                rm48_guide
 .rodata.rm49_guide
                0x0000000000012def        0x4 CMakeFiles/kiibohd.dir/Macro/PartialMap/macro.c.obj
                0x0000000000012def                rm49_guide
 .rodata.rm4_guide
                0x0000000000012df3        0x5 CMakeFiles/kiibohd.dir/Macro/PartialMap/macro.c.obj
                0x0000000000012df3                rm4_guide
 .rodata.rm50_guide
                0x0000000000012df8        0x4 CMakeFiles/kiibohd.dir/Macro/PartialMap/macro.c.obj
                0x0000000000012df8                rm50_guide
 .rodata.rm51_guide
                0x0000000000012dfc        0x4 CMakeFiles/kiibohd.dir/Macro/PartialMap/macro.c.obj
                0x0000000000012dfc                rm51_guide
 .rodata.rm52_guide
                0x0000000000012e00        0x4 CMakeFiles/kiibohd.dir/Macro/PartialMap/macro.c.obj
                0x0000000000012e00                rm52_guide
 .rodata.rm53_guide
                0x0000000000012e04        0x4 CMakeFiles/kiibohd.dir/Macro/PartialMap/macro.c.obj
                0x0000000000012e04                rm53_guide
 .rodata.rm54_guide
                0x0000000000012e08        0x4 CMakeFiles/kiibohd.dir/Macro/PartialMap/macro.c.obj
                0x0000000000012e08                rm54_guide
 .rodata.rm55_guide
                0x0000000000012e0c        0x4 CMakeFiles/kiibohd.dir/Macro/PartialMap/macro.c.obj
                0x0000000000012e0c                rm55_guide
 .rodata.rm56_guide
                0x0000000000012e10        0x4 CMakeFiles/kiibohd.dir/Macro/PartialMap/macro.c.obj
                0x0000000000012e10                rm56_guide
 .rodata.rm57_guide
                0x0000000000012e14        0x4 CMakeFiles/kiibohd.dir/Macro/PartialMap/macro.c.obj
                0x0000000000012e14                rm57_guide
 .rodata.rm58_guide
                0x0000000000012e18        0x4 CMakeFiles/kiibohd.dir/Macro/PartialMap/macro.c.obj
                0x0000000000012e18                rm58_guide
 .rodata.rm59_guide
                0x0000000000012e1c        0x4 CMakeFiles/kiibohd.dir/Macro/PartialMap/macro.c.obj
                0x0000000000012e1c                rm59_guide
 .rodata.rm5_guide
                0x0000000000012e20        0x4 CMakeFiles/kiibohd.dir/Macro/PartialMap/macro.c.obj
                0x0000000000012e20                rm5_guide
 .rodata.rm60_guide
                0x0000000000012e24        0x4 CMakeFiles/kiibohd.dir/Macro/PartialMap/macro.c.obj
                0x0000000000012e24                rm60_guide
 .rodata.rm61_guide
                0x0000000000012e28        0x4 CMakeFiles/kiibohd.dir/Macro/PartialMap/macro.c.obj
                0x0000000000012e28                rm61_guide
 .rodata.rm62_guide
                0x0000000000012e2c        0x4 CMakeFiles/kiibohd.dir/Macro/PartialMap/macro.c.obj
                0x0000000000012e2c                rm62_guide
 .rodata.rm63_guide
                0x0000000000012e30        0x4 CMakeFiles/kiibohd.dir/Macro/PartialMap/macro.c.obj
                0x0000000000012e30                rm63_guide
 .rodata.rm64_guide
                0x0000000000012e34        0x4 CMakeFiles/kiibohd.dir/Macro/PartialMap/macro.c.obj
                0x0000000000012e34                rm64_guide
 .rodata.rm65_guide
                0x0000000000012e38        0x4 CMakeFiles/kiibohd.dir/Macro/PartialMap/macro.c.obj
                0x0000000000012e38                rm65_guide
 .rodata.rm66_guide
                0x0000000000012e3c        0x4 CMakeFiles/kiibohd.dir/Macro/PartialMap/macro.c.obj
                0x0000000000012e3c                rm66_guide
 .rodata.rm67_guide
                0x0000000000012e40        0x4 CMakeFiles/kiibohd.dir/Macro/PartialMap/macro.c.obj
                0x0000000000012e40                rm67_guide
 .rodata.rm68_guide
                0x0000000000012e44        0x4 CMakeFiles/kiibohd.dir/Macro/PartialMap/macro.c.obj
                0x0000000000012e44                rm68_guide
 .rodata.rm69_guide
                0x0000000000012e48        0x4 CMakeFiles/kiibohd.dir/Macro/PartialMap/macro.c.obj
                0x0000000000012e48                rm69_guide
 .rodata.rm6_guide
                0x0000000000012e4c        0x4 CMakeFiles/kiibohd.dir/Macro/PartialMap/macro.c.obj
                0x0000000000012e4c                rm6_guide
 .rodata.rm70_guide
                0x0000000000012e50        0x4 CMakeFiles/kiibohd.dir/Macro/PartialMap/macro.c.obj
                0x0000000000012e50                rm70_guide
 .rodata.rm71_guide
                0x0000000000012e54        0x4 CMakeFiles/kiibohd.dir/Macro/PartialMap/macro.c.obj
                0x0000000000012e54                rm71_guide
 .rodata.rm72_guide
                0x0000000000012e58        0x4 CMakeFiles/kiibohd.dir/Macro/PartialMap/macro.c.obj
                0x0000000000012e58                rm72_guide
 .rodata.rm73_guide
                0x0000000000012e5c        0x4 CMakeFiles/kiibohd.dir/Macro/PartialMap/macro.c.obj
                0x0000000000012e5c                rm73_guide
 .rodata.rm74_guide
                0x0000000000012e60        0x4 CMakeFiles/kiibohd.dir/Macro/PartialMap/macro.c.obj
                0x0000000000012e60                rm74_guide
 .rodata.rm75_guide
                0x0000000000012e64        0x4 CMakeFiles/kiibohd.dir/Macro/PartialMap/macro.c.obj
                0x0000000000012e64                rm75_guide
 .rodata.rm76_guide
                0x0000000000012e68        0x4 CMakeFiles/kiibohd.dir/Macro/PartialMap/macro.c.obj
                0x0000000000012e68                rm76_guide
 .rodata.rm77_guide
                0x0000000000012e6c        0x4 CMakeFiles/kiibohd.dir/Macro/PartialMap/macro.c.obj
                0x0000000000012e6c                rm77_guide
 .rodata.rm78_guide
                0x0000000000012e70        0x4 CMakeFiles/kiibohd.dir/Macro/PartialMap/macro.c.obj
                0x0000000000012e70                rm78_guide
 .rodata.rm79_guide
                0x0000000000012e74        0x4 CMakeFiles/kiibohd.dir/Macro/PartialMap/macro.c.obj
                0x0000000000012e74                rm79_guide
 .rodata.rm7_guide
                0x0000000000012e78        0x4 CMakeFiles/kiibohd.dir/Macro/PartialMap/macro.c.obj
                0x0000000000012e78                rm7_guide
 .rodata.rm80_guide
                0x0000000000012e7c        0x4 CMakeFiles/kiibohd.dir/Macro/PartialMap/macro.c.obj
                0x0000000000012e7c                rm80_guide
 .rodata.rm81_guide
                0x0000000000012e80        0x4 CMakeFiles/kiibohd.dir/Macro/PartialMap/macro.c.obj
                0x0000000000012e80                rm81_guide
 .rodata.rm82_guide
                0x0000000000012e84        0x4 CMakeFiles/kiibohd.dir/Macro/PartialMap/macro.c.obj
                0x0000000000012e84                rm82_guide
 .rodata.rm83_guide
                0x0000000000012e88        0x4 CMakeFiles/kiibohd.dir/Macro/PartialMap/macro.c.obj
                0x0000000000012e88                rm83_guide
 .rodata.rm84_guide
                0x0000000000012e8c        0x4 CMakeFiles/kiibohd.dir/Macro/PartialMap/macro.c.obj
                0x0000000000012e8c                rm84_guide
 .rodata.rm85_guide
                0x0000000000012e90        0x4 CMakeFiles/kiibohd.dir/Macro/PartialMap/macro.c.obj
                0x0000000000012e90                rm85_guide
 .rodata.rm86_guide
                0x0000000000012e94        0x4 CMakeFiles/kiibohd.dir/Macro/PartialMap/macro.c.obj
                0x0000000000012e94                rm86_guide
 .rodata.rm87_guide
                0x0000000000012e98        0x4 CMakeFiles/kiibohd.dir/Macro/PartialMap/macro.c.obj
                0x0000000000012e98                rm87_guide
 .rodata.rm88_guide
                0x0000000000012e9c        0xc CMakeFiles/kiibohd.dir/Macro/PartialMap/macro.c.obj
                0x0000000000012e9c                rm88_guide
 .rodata.rm89_guide
                0x0000000000012ea8        0x4 CMakeFiles/kiibohd.dir/Macro/PartialMap/macro.c.obj
                0x0000000000012ea8                rm89_guide
 .rodata.rm8_guide
                0x0000000000012eac        0x4 CMakeFiles/kiibohd.dir/Macro/PartialMap/macro.c.obj
                0x0000000000012eac                rm8_guide
 .rodata.rm90_guide
                0x0000000000012eb0        0x4 CMakeFiles/kiibohd.dir/Macro/PartialMap/macro.c.obj
                0x0000000000012eb0                rm90_guide
 .rodata.rm91_guide
                0x0000000000012eb4        0x4 CMakeFiles/kiibohd.dir/Macro/PartialMap/macro.c.obj
                0x0000000000012eb4                rm91_guide
 .rodata.rm92_guide
                0x0000000000012eb8        0x4 CMakeFiles/kiibohd.dir/Macro/PartialMap/macro.c.obj
                0x0000000000012eb8                rm92_guide
 .rodata.rm93_guide
                0x0000000000012ebc        0x4 CMakeFiles/kiibohd.dir/Macro/PartialMap/macro.c.obj
                0x0000000000012ebc                rm93_guide
 .rodata.rm94_guide
                0x0000000000012ec0        0x4 CMakeFiles/kiibohd.dir/Macro/PartialMap/macro.c.obj
                0x0000000000012ec0                rm94_guide
 .rodata.rm95_guide
                0x0000000000012ec4        0x4 CMakeFiles/kiibohd.dir/Macro/PartialMap/macro.c.obj
                0x0000000000012ec4                rm95_guide
 .rodata.rm96_guide
                0x0000000000012ec8        0x3 CMakeFiles/kiibohd.dir/Macro/PartialMap/macro.c.obj
                0x0000000000012ec8                rm96_guide
 .rodata.rm97_guide
                0x0000000000012ecb        0x5 CMakeFiles/kiibohd.dir/Macro/PartialMap/macro.c.obj
                0x0000000000012ecb                rm97_guide
 .rodata.rm98_guide
                0x0000000000012ed0        0x6 CMakeFiles/kiibohd.dir/Macro/PartialMap/macro.c.obj
                0x0000000000012ed0                rm98_guide
 .rodata.rm99_guide
                0x0000000000012ed6        0x5 CMakeFiles/kiibohd.dir/Macro/PartialMap/macro.c.obj
                0x0000000000012ed6                rm99_guide
 .rodata.rm9_guide
                0x0000000000012edb        0x4 CMakeFiles/kiibohd.dir/Macro/PartialMap/macro.c.obj
                0x0000000000012edb                rm9_guide
 .rodata.str1.1
                0x0000000000012edf     0x146f CMakeFiles/kiibohd.dir/Macro/PartialMap/macro.c.obj
 .rodata.tm0_guide
                0x000000000001434e        0x5 CMakeFiles/kiibohd.dir/Macro/PartialMap/macro.c.obj
                0x000000000001434e                tm0_guide
 .rodata.tm10_guide
                0x0000000000014353        0x5 CMakeFiles/kiibohd.dir/Macro/PartialMap/macro.c.obj
                0x0000000000014353                tm10_guide
 .rodata.tm11_guide
                0x0000000000014358        0x5 CMakeFiles/kiibohd.dir/Macro/PartialMap/macro.c.obj
                0x0000000000014358                tm11_guide
 .rodata.tm12_guide
                0x000000000001435d        0x5 CMakeFiles/kiibohd.dir/Macro/PartialMap/macro.c.obj
                0x000000000001435d                tm12_guide
 .rodata.tm13_guide
                0x0000000000014362        0x5 CMakeFiles/kiibohd.dir/Macro/PartialMap/macro.c.obj
                0x0000000000014362                tm13_guide
 .rodata.tm14_guide
                0x0000000000014367        0x5 CMakeFiles/kiibohd.dir/Macro/PartialMap/macro.c.obj
                0x0000000000014367                tm14_guide
 .rodata.tm15_guide
                0x000000000001436c        0x5 CMakeFiles/kiibohd.dir/Macro/PartialMap/macro.c.obj
                0x000000000001436c                tm15_guide
 .rodata.tm16_guide
                0x0000000000014371        0x5 CMakeFiles/kiibohd.dir/Macro/PartialMap/macro.c.obj
                0x0000000000014371                tm16_guide
 .rodata.tm17_guide
                0x0000000000014376        0x5 CMakeFiles/kiibohd.dir/Macro/PartialMap/macro.c.obj
                0x0000000000014376                tm17_guide
 .rodata.tm18_guide
                0x000000000001437b        0x5 CMakeFiles/kiibohd.dir/Macro/PartialMap/macro.c.obj
                0x000000000001437b                tm18_guide
 .rodata.tm19_guide
                0x0000000000014380        0x5 CMakeFiles/kiibohd.dir/Macro/PartialMap/macro.c.obj
                0x0000000000014380                tm19_guide
 .rodata.tm1_guide
                0x0000000000014385        0x5 CMakeFiles/kiibohd.dir/Macro/PartialMap/macro.c.obj
                0x0000000000014385                tm1_guide
 .rodata.tm20_guide
                0x000000000001438a        0x5 CMakeFiles/kiibohd.dir/Macro/PartialMap/macro.c.obj
                0x000000000001438a                tm20_guide
 .rodata.tm21_guide
                0x000000000001438f        0x5 CMakeFiles/kiibohd.dir/Macro/PartialMap/macro.c.obj
                0x000000000001438f                tm21_guide
 .rodata.tm22_guide
                0x0000000000014394        0x5 CMakeFiles/kiibohd.dir/Macro/PartialMap/macro.c.obj
                0x0000000000014394                tm22_guide
 .rodata.tm23_guide
                0x0000000000014399        0x5 CMakeFiles/kiibohd.dir/Macro/PartialMap/macro.c.obj
                0x0000000000014399                tm23_guide
 .rodata.tm24_guide
                0x000000000001439e        0x5 CMakeFiles/kiibohd.dir/Macro/PartialMap/macro.c.obj
                0x000000000001439e                tm24_guide
 .rodata.tm25_guide
                0x00000000000143a3        0x5 CMakeFiles/kiibohd.dir/Macro/PartialMap/macro.c.obj
                0x00000000000143a3                tm25_guide
 .rodata.tm26_guide
                0x00000000000143a8        0x5 CMakeFiles/kiibohd.dir/Macro/PartialMap/macro.c.obj
                0x00000000000143a8                tm26_guide
 .rodata.tm27_guide
                0x00000000000143ad        0x5 CMakeFiles/kiibohd.dir/Macro/PartialMap/macro.c.obj
                0x00000000000143ad                tm27_guide
 .rodata.tm28_guide
                0x00000000000143b2        0x5 CMakeFiles/kiibohd.dir/Macro/PartialMap/macro.c.obj
                0x00000000000143b2                tm28_guide
 .rodata.tm29_guide
                0x00000000000143b7        0x5 CMakeFiles/kiibohd.dir/Macro/PartialMap/macro.c.obj
                0x00000000000143b7                tm29_guide
 .rodata.tm2_guide
                0x00000000000143bc        0x5 CMakeFiles/kiibohd.dir/Macro/PartialMap/macro.c.obj
                0x00000000000143bc                tm2_guide
 .rodata.tm30_guide
                0x00000000000143c1        0x5 CMakeFiles/kiibohd.dir/Macro/PartialMap/macro.c.obj
                0x00000000000143c1                tm30_guide
 .rodata.tm31_guide
                0x00000000000143c6        0x5 CMakeFiles/kiibohd.dir/Macro/PartialMap/macro.c.obj
                0x00000000000143c6                tm31_guide
 .rodata.tm32_guide
                0x00000000000143cb        0x5 CMakeFiles/kiibohd.dir/Macro/PartialMap/macro.c.obj
                0x00000000000143cb                tm32_guide
 .rodata.tm33_guide
                0x00000000000143d0        0x5 CMakeFiles/kiibohd.dir/Macro/PartialMap/macro.c.obj
                0x00000000000143d0                tm33_guide
 .rodata.tm34_guide
                0x00000000000143d5        0x5 CMakeFiles/kiibohd.dir/Macro/PartialMap/macro.c.obj
                0x00000000000143d5                tm34_guide
 .rodata.tm35_guide
                0x00000000000143da        0x5 CMakeFiles/kiibohd.dir/Macro/PartialMap/macro.c.obj
                0x00000000000143da                tm35_guide
 .rodata.tm36_guide
                0x00000000000143df        0x5 CMakeFiles/kiibohd.dir/Macro/PartialMap/macro.c.obj
                0x00000000000143df                tm36_guide
 .rodata.tm37_guide
                0x00000000000143e4        0x5 CMakeFiles/kiibohd.dir/Macro/PartialMap/macro.c.obj
                0x00000000000143e4                tm37_guide
 .rodata.tm38_guide
                0x00000000000143e9        0x5 CMakeFiles/kiibohd.dir/Macro/PartialMap/macro.c.obj
                0x00000000000143e9                tm38_guide
 .rodata.tm39_guide
                0x00000000000143ee        0x5 CMakeFiles/kiibohd.dir/Macro/PartialMap/macro.c.obj
                0x00000000000143ee                tm39_guide
 .rodata.tm3_guide
                0x00000000000143f3        0x5 CMakeFiles/kiibohd.dir/Macro/PartialMap/macro.c.obj
                0x00000000000143f3                tm3_guide
 .rodata.tm40_guide
                0x00000000000143f8        0x5 CMakeFiles/kiibohd.dir/Macro/PartialMap/macro.c.obj
                0x00000000000143f8                tm40_guide
 .rodata.tm41_guide
                0x00000000000143fd        0x5 CMakeFiles/kiibohd.dir/Macro/PartialMap/macro.c.obj
                0x00000000000143fd                tm41_guide
 .rodata.tm42_guide
                0x0000000000014402        0x5 CMakeFiles/kiibohd.dir/Macro/PartialMap/macro.c.obj
                0x0000000000014402                tm42_guide
 .rodata.tm43_guide
                0x0000000000014407        0x5 CMakeFiles/kiibohd.dir/Macro/PartialMap/macro.c.obj
                0x0000000000014407                tm43_guide
 .rodata.tm44_guide
                0x000000000001440c        0x5 CMakeFiles/kiibohd.dir/Macro/PartialMap/macro.c.obj
                0x000000000001440c                tm44_guide
 .rodata.tm45_guide
                0x0000000000014411        0x5 CMakeFiles/kiibohd.dir/Macro/PartialMap/macro.c.obj
                0x0000000000014411                tm45_guide
 .rodata.tm46_guide
                0x0000000000014416        0x5 CMakeFiles/kiibohd.dir/Macro/PartialMap/macro.c.obj
                0x0000000000014416                tm46_guide
 .rodata.tm47_guide
                0x000000000001441b        0x5 CMakeFiles/kiibohd.dir/Macro/PartialMap/macro.c.obj
                0x000000000001441b                tm47_guide
 .rodata.tm48_guide
                0x0000000000014420        0x5 CMakeFiles/kiibohd.dir/Macro/PartialMap/macro.c.obj
                0x0000000000014420                tm48_guide
 .rodata.tm49_guide
                0x0000000000014425        0x5 CMakeFiles/kiibohd.dir/Macro/PartialMap/macro.c.obj
                0x0000000000014425                tm49_guide
 .rodata.tm4_guide
                0x000000000001442a        0x5 CMakeFiles/kiibohd.dir/Macro/PartialMap/macro.c.obj
                0x000000000001442a                tm4_guide
 .rodata.tm50_guide
                0x000000000001442f        0x5 CMakeFiles/kiibohd.dir/Macro/PartialMap/macro.c.obj
                0x000000000001442f                tm50_guide
 .rodata.tm51_guide
                0x0000000000014434        0x5 CMakeFiles/kiibohd.dir/Macro/PartialMap/macro.c.obj
                0x0000000000014434                tm51_guide
 .rodata.tm52_guide
                0x0000000000014439        0x5 CMakeFiles/kiibohd.dir/Macro/PartialMap/macro.c.obj
                0x0000000000014439                tm52_guide
 .rodata.tm53_guide
                0x000000000001443e        0x5 CMakeFiles/kiibohd.dir/Macro/PartialMap/macro.c.obj
                0x000000000001443e                tm53_guide
 .rodata.tm54_guide
                0x0000000000014443        0x5 CMakeFiles/kiibohd.dir/Macro/PartialMap/macro.c.obj
                0x0000000000014443                tm54_guide
 .rodata.tm55_guide
                0x0000000000014448        0x5 CMakeFiles/kiibohd.dir/Macro/PartialMap/macro.c.obj
                0x0000000000014448                tm55_guide
 .rodata.tm56_guide
                0x000000000001444d        0x5 CMakeFiles/kiibohd.dir/Macro/PartialMap/macro.c.obj
                0x000000000001444d                tm56_guide
 .rodata.tm57_guide
                0x0000000000014452        0x5 CMakeFiles/kiibohd.dir/Macro/PartialMap/macro.c.obj
                0x0000000000014452                tm57_guide
 .rodata.tm58_guide
                0x0000000000014457        0x5 CMakeFiles/kiibohd.dir/Macro/PartialMap/macro.c.obj
                0x0000000000014457                tm58_guide
 .rodata.tm59_guide
                0x000000000001445c        0x5 CMakeFiles/kiibohd.dir/Macro/PartialMap/macro.c.obj
                0x000000000001445c                tm59_guide
 .rodata.tm5_guide
                0x0000000000014461        0x5 CMakeFiles/kiibohd.dir/Macro/PartialMap/macro.c.obj
                0x0000000000014461                tm5_guide
 .rodata.tm60_guide
                0x0000000000014466        0x5 CMakeFiles/kiibohd.dir/Macro/PartialMap/macro.c.obj
                0x0000000000014466                tm60_guide
 .rodata.tm61_guide
                0x000000000001446b        0x5 CMakeFiles/kiibohd.dir/Macro/PartialMap/macro.c.obj
                0x000000000001446b                tm61_guide
 .rodata.tm62_guide
                0x0000000000014470        0x5 CMakeFiles/kiibohd.dir/Macro/PartialMap/macro.c.obj
                0x0000000000014470                tm62_guide
 .rodata.tm63_guide
                0x0000000000014475        0x5 CMakeFiles/kiibohd.dir/Macro/PartialMap/macro.c.obj
                0x0000000000014475                tm63_guide
 .rodata.tm64_guide
                0x000000000001447a        0x5 CMakeFiles/kiibohd.dir/Macro/PartialMap/macro.c.obj
                0x000000000001447a                tm64_guide
 .rodata.tm65_guide
                0x000000000001447f        0x5 CMakeFiles/kiibohd.dir/Macro/PartialMap/macro.c.obj
                0x000000000001447f                tm65_guide
 .rodata.tm66_guide
                0x0000000000014484        0x5 CMakeFiles/kiibohd.dir/Macro/PartialMap/macro.c.obj
                0x0000000000014484                tm66_guide
 .rodata.tm67_guide
                0x0000000000014489        0x5 CMakeFiles/kiibohd.dir/Macro/PartialMap/macro.c.obj
                0x0000000000014489                tm67_guide
 .rodata.tm68_guide
                0x000000000001448e        0x5 CMakeFiles/kiibohd.dir/Macro/PartialMap/macro.c.obj
                0x000000000001448e                tm68_guide
 .rodata.tm69_guide
                0x0000000000014493        0x5 CMakeFiles/kiibohd.dir/Macro/PartialMap/macro.c.obj
                0x0000000000014493                tm69_guide
 .rodata.tm6_guide
                0x0000000000014498        0x5 CMakeFiles/kiibohd.dir/Macro/PartialMap/macro.c.obj
                0x0000000000014498                tm6_guide
 .rodata.tm70_guide
                0x000000000001449d        0x5 CMakeFiles/kiibohd.dir/Macro/PartialMap/macro.c.obj
                0x000000000001449d                tm70_guide
 .rodata.tm71_guide
                0x00000000000144a2        0x5 CMakeFiles/kiibohd.dir/Macro/PartialMap/macro.c.obj
                0x00000000000144a2                tm71_guide
 .rodata.tm72_guide
                0x00000000000144a7        0x5 CMakeFiles/kiibohd.dir/Macro/PartialMap/macro.c.obj
                0x00000000000144a7                tm72_guide
 .rodata.tm73_guide
                0x00000000000144ac        0x5 CMakeFiles/kiibohd.dir/Macro/PartialMap/macro.c.obj
                0x00000000000144ac                tm73_guide
 .rodata.tm74_guide
                0x00000000000144b1        0x5 CMakeFiles/kiibohd.dir/Macro/PartialMap/macro.c.obj
                0x00000000000144b1                tm74_guide
 .rodata.tm75_guide
                0x00000000000144b6        0x5 CMakeFiles/kiibohd.dir/Macro/PartialMap/macro.c.obj
                0x00000000000144b6                tm75_guide
 .rodata.tm7_guide
                0x00000000000144bb        0x5 CMakeFiles/kiibohd.dir/Macro/PartialMap/macro.c.obj
                0x00000000000144bb                tm7_guide
 .rodata.tm8_guide
                0x00000000000144c0        0x5 CMakeFiles/kiibohd.dir/Macro/PartialMap/macro.c.obj
                0x00000000000144c0                tm8_guide
 .rodata.tm9_guide
                0x00000000000144c5        0x5 CMakeFiles/kiibohd.dir/Macro/PartialMap/macro.c.obj
                0x00000000000144c5                tm9_guide
 .rodata.voteDebugCLIDict_DescEntry
                0x00000000000144ca       0x25 CMakeFiles/kiibohd.dir/Macro/PartialMap/macro.c.obj
                0x00000000000144ca                voteDebugCLIDict_DescEntry
 .rodata.Result_appendResultMacroToPendingList.str1.1
                0x00000000000144ef       0x8e CMakeFiles/kiibohd.dir/Macro/PartialMap/result.c.obj
 .rodata.Result_evalResultMacroCombo.str1.1
                0x000000000001457d       0x50 CMakeFiles/kiibohd.dir/Macro/PartialMap/result.c.obj
                                         0x53 (size before relaxing)
 .rodata.Result_process_delayed.str1.1
                0x00000000000145cd       0x1d CMakeFiles/kiibohd.dir/Macro/PartialMap/result.c.obj
 .rodata.CSWTCH.32
                0x00000000000145ea        0x3 CMakeFiles/kiibohd.dir/Macro/PartialMap/trigger.c.obj
 .rodata.Trigger_evalLongTriggerMacroVote.str1.1
                0x00000000000145ed       0x4e CMakeFiles/kiibohd.dir/Macro/PartialMap/trigger.c.obj
 .rodata.Trigger_evalShortTriggerMacroVote.str1.1
                0x000000000001463b       0xb7 CMakeFiles/kiibohd.dir/Macro/PartialMap/trigger.c.obj
 .rodata.Trigger_evalTriggerMacro.str1.1
                0x00000000000146f2       0x15 CMakeFiles/kiibohd.dir/Macro/PartialMap/trigger.c.obj
 .rodata.Trigger_process.str1.1
                0x0000000000014707       0x23 CMakeFiles/kiibohd.dir/Macro/PartialMap/trigger.c.obj
                                         0x28 (size before relaxing)
 .rodata.Trigger_showTriggerMacroVote.str1.1
                0x000000000001472a       0x1b CMakeFiles/kiibohd.dir/Macro/PartialMap/trigger.c.obj
                                         0x1f (size before relaxing)
 .rodata.LED_bufferMap.str1.1
                0x0000000000014745       0x2d CMakeFiles/kiibohd.dir/Macro/PixelMap/pixel.c.obj
 .rodata.Pixel_AnimationControl_capability.str1.1
                0x0000000000014772       0x28 CMakeFiles/kiibohd.dir/Macro/PixelMap/pixel.c.obj
 .rodata.Pixel_AnimationIndex_capability.str1.1
                0x000000000001479a       0x64 CMakeFiles/kiibohd.dir/Macro/PixelMap/pixel.c.obj
 .rodata.Pixel_Animation_capability.str1.1
                0x00000000000147fe       0x4d CMakeFiles/kiibohd.dir/Macro/PixelMap/pixel.c.obj
 .rodata.Pixel_FadeSet_capability.str1.1
                0x000000000001484b       0x30 CMakeFiles/kiibohd.dir/Macro/PixelMap/pixel.c.obj
 .rodata.Pixel_Pixel_capability.str1.1
                0x000000000001487b       0x29 CMakeFiles/kiibohd.dir/Macro/PixelMap/pixel.c.obj
 .rodata.Pixel_SecondaryProcessing.str1.1
                0x00000000000148a4       0x30 CMakeFiles/kiibohd.dir/Macro/PixelMap/pixel.c.obj
 .rodata.Pixel_addAnimation.str1.1
                0x00000000000148d4       0x76 CMakeFiles/kiibohd.dir/Macro/PixelMap/pixel.c.obj
 .rodata.Pixel_bufferMap.str1.1
                0x000000000001494a       0x27 CMakeFiles/kiibohd.dir/Macro/PixelMap/pixel.c.obj
 .rodata.Pixel_channelSet.str1.1
                0x0000000000014971       0x33 CMakeFiles/kiibohd.dir/Macro/PixelMap/pixel.c.obj
 .rodata.Pixel_channelToggle.str1.1
                0x00000000000149a4       0x30 CMakeFiles/kiibohd.dir/Macro/PixelMap/pixel.c.obj
 .rodata.Pixel_dispBuffer.str1.1
                0x00000000000149d4        0x7 CMakeFiles/kiibohd.dir/Macro/PixelMap/pixel.c.obj
                                         0x12 (size before relaxing)
 .rodata.Pixel_fillPixelLookup.str1.1
                0x00000000000149db       0xc6 CMakeFiles/kiibohd.dir/Macro/PixelMap/pixel.c.obj
 .rodata.Pixel_initializeStartAnimations.str1.1
                0x0000000000014aa1       0x40 CMakeFiles/kiibohd.dir/Macro/PixelMap/pixel.c.obj
 .rodata.Pixel_pixelEvaluation.str1.1
                0x0000000000014ae1      0x1a7 CMakeFiles/kiibohd.dir/Macro/PixelMap/pixel.c.obj
 .rodata.Pixel_pixelTweenNextPos.str1.1
                0x0000000000014c88       0x28 CMakeFiles/kiibohd.dir/Macro/PixelMap/pixel.c.obj
 .rodata.Pixel_setup.str1.1
                0x0000000000014cb0        0x9 CMakeFiles/kiibohd.dir/Macro/PixelMap/pixel.c.obj
 .rodata.Pixel_showPixelElement.str1.1
                0x0000000000014cb9        0xb CMakeFiles/kiibohd.dir/Macro/PixelMap/pixel.c.obj
 .rodata.aniAddCLIDict_DescEntry
                0x0000000000014cc4       0x28 CMakeFiles/kiibohd.dir/Macro/PixelMap/pixel.c.obj
                0x0000000000014cc4                aniAddCLIDict_DescEntry
 .rodata.aniDelCLIDict_DescEntry
                0x0000000000014cec       0x27 CMakeFiles/kiibohd.dir/Macro/PixelMap/pixel.c.obj
                0x0000000000014cec                aniDelCLIDict_DescEntry
 .rodata.aniStackCLIDict_DescEntry
                0x0000000000014d13       0x26 CMakeFiles/kiibohd.dir/Macro/PixelMap/pixel.c.obj
                0x0000000000014d13                aniStackCLIDict_DescEntry
 .rodata.chanTestCLIDict_DescEntry
                0x0000000000014d39       0x52 CMakeFiles/kiibohd.dir/Macro/PixelMap/pixel.c.obj
                0x0000000000014d39                chanTestCLIDict_DescEntry
 .rodata.cliFunc_aniAdd.str1.1
                0x0000000000014d8b        0x3 CMakeFiles/kiibohd.dir/Macro/PixelMap/pixel.c.obj
 .rodata.cliFunc_aniStack.str1.1
                0x0000000000014d8b       0x66 CMakeFiles/kiibohd.dir/Macro/PixelMap/pixel.c.obj
                                         0x68 (size before relaxing)
 .rodata.cliFunc_chanTest.str1.1
                0x0000000000014df1       0x8b CMakeFiles/kiibohd.dir/Macro/PixelMap/pixel.c.obj
 .rodata.cliFunc_pixelList.str1.1
                0x0000000000014e7c       0x69 CMakeFiles/kiibohd.dir/Macro/PixelMap/pixel.c.obj
                                         0x78 (size before relaxing)
 .rodata.cliFunc_pixelSCTest.str1.1
                0x0000000000014ee5       0xa1 CMakeFiles/kiibohd.dir/Macro/PixelMap/pixel.c.obj
                                         0xaa (size before relaxing)
 .rodata.cliFunc_pixelTest.str1.1
                0x0000000000014f86       0xcc CMakeFiles/kiibohd.dir/Macro/PixelMap/pixel.c.obj
                                         0xce (size before relaxing)
 .rodata.cliFunc_pixelXYTest.str1.1
                0x0000000000015052       0xd4 CMakeFiles/kiibohd.dir/Macro/PixelMap/pixel.c.obj
 *fill*         0x0000000000015126        0x2 
 .rodata.pixelCLIDict
                0x0000000000015128       0x78 CMakeFiles/kiibohd.dir/Macro/PixelMap/pixel.c.obj
                0x0000000000015128                pixelCLIDict
 .rodata.pixelCLIDictName
                0x00000000000151a0       0x16 CMakeFiles/kiibohd.dir/Macro/PixelMap/pixel.c.obj
                0x00000000000151a0                pixelCLIDictName
 .rodata.pixelListCLIDict_DescEntry
                0x00000000000151b6       0x23 CMakeFiles/kiibohd.dir/Macro/PixelMap/pixel.c.obj
                0x00000000000151b6                pixelListCLIDict_DescEntry
 .rodata.pixelSCTestCLIDict_DescEntry
                0x00000000000151d9       0x59 CMakeFiles/kiibohd.dir/Macro/PixelMap/pixel.c.obj
                0x00000000000151d9                pixelSCTestCLIDict_DescEntry
 .rodata.pixelTestCLIDict_DescEntry
                0x0000000000015232       0x5a CMakeFiles/kiibohd.dir/Macro/PixelMap/pixel.c.obj
                0x0000000000015232                pixelTestCLIDict_DescEntry
 .rodata.pixelXYTestCLIDict_DescEntry
                0x000000000001528c       0x53 CMakeFiles/kiibohd.dir/Macro/PixelMap/pixel.c.obj
                0x000000000001528c                pixelXYTestCLIDict_DescEntry
 .rodata.rectDispCLIDict_DescEntry
                0x00000000000152df       0x31 CMakeFiles/kiibohd.dir/Macro/PixelMap/pixel.c.obj
                0x00000000000152df                rectDispCLIDict_DescEntry
 .rodata.str1.1
                0x0000000000015310       0x55 CMakeFiles/kiibohd.dir/Macro/PixelMap/pixel.c.obj
 *fill*         0x0000000000015365        0x3 
 .rodata.Pixel_AnimationSettings
                0x0000000000015368       0x10 CMakeFiles/kiibohd.dir/generatedPixelmap.c.obj
                0x0000000000015368                Pixel_AnimationSettings
 .rodata.Pixel_DisplayMapping
                0x0000000000015378       0xee CMakeFiles/kiibohd.dir/generatedPixelmap.c.obj
                0x0000000000015378                Pixel_DisplayMapping
 .rodata.Pixel_LED_DefaultFadeGroup0
                0x0000000000015466       0x4c CMakeFiles/kiibohd.dir/generatedPixelmap.c.obj
                0x0000000000015466                Pixel_LED_DefaultFadeGroup0
 .rodata.Pixel_LED_DefaultFadeGroup1
                0x00000000000154b2        0x0 CMakeFiles/kiibohd.dir/generatedPixelmap.c.obj
                0x00000000000154b2                Pixel_LED_DefaultFadeGroup1
 .rodata.Pixel_LED_DefaultFadeGroup2
                0x00000000000154b2        0x0 CMakeFiles/kiibohd.dir/generatedPixelmap.c.obj
                0x00000000000154b2                Pixel_LED_DefaultFadeGroup2
 *fill*         0x00000000000154b2        0x2 
 .rodata.Pixel_LED_DefaultFadeGroups
                0x00000000000154b4       0x18 CMakeFiles/kiibohd.dir/generatedPixelmap.c.obj
                0x00000000000154b4                Pixel_LED_DefaultFadeGroups
 .rodata.Pixel_LED_FadePeriod_Defaults
                0x00000000000154cc       0x10 CMakeFiles/kiibohd.dir/generatedPixelmap.c.obj
                0x00000000000154cc                Pixel_LED_FadePeriod_Defaults
 .rodata.Pixel_LED_FadePeriods
                0x00000000000154dc       0x10 CMakeFiles/kiibohd.dir/generatedPixelmap.c.obj
                0x00000000000154dc                Pixel_LED_FadePeriods
 .rodata.Pixel_Mapping
                0x00000000000154ec      0x130 CMakeFiles/kiibohd.dir/generatedPixelmap.c.obj
                0x00000000000154ec                Pixel_Mapping
 .rodata.Pixel_ScanCodeToDisplay
                0x000000000001561c       0x5a CMakeFiles/kiibohd.dir/generatedPixelmap.c.obj
                0x000000000001561c                Pixel_ScanCodeToDisplay
 .rodata.Pixel_ScanCodeToPixel
                0x0000000000015676       0x5a CMakeFiles/kiibohd.dir/generatedPixelmap.c.obj
                0x0000000000015676                Pixel_ScanCodeToPixel
 .rodata.all_on_frame1
                0x00000000000156d0        0xf CMakeFiles/kiibohd.dir/generatedPixelmap.c.obj
                0x00000000000156d0                all_on_frame1
 .rodata.HIDIO_buffer_generate_packet.str1.1
                0x00000000000156df       0x65 CMakeFiles/kiibohd.dir/Output/HID-IO/hidio_com.c.obj
 .rodata.HIDIO_buffer_pop_bytes.str1.1
                0x0000000000015744       0x4c CMakeFiles/kiibohd.dir/Output/HID-IO/hidio_com.c.obj
                                         0x51 (size before relaxing)
 .rodata.HIDIO_call_id.str1.1
                0x0000000000015790        0x7 CMakeFiles/kiibohd.dir/Output/HID-IO/hidio_com.c.obj
 .rodata.HIDIO_process_incoming_packet.str1.1
                0x0000000000015797       0xc8 CMakeFiles/kiibohd.dir/Output/HID-IO/hidio_com.c.obj
 .rodata.HIDIO_register_id.str1.1
                0x000000000001585f       0x41 CMakeFiles/kiibohd.dir/Output/HID-IO/hidio_com.c.obj
 .rodata.HIDIO_setup.str1.1
                0x00000000000158a0        0x7 CMakeFiles/kiibohd.dir/Output/HID-IO/hidio_com.c.obj
 *fill*         0x00000000000158a7        0x1 
 .rodata.hidioCLIDict
                0x00000000000158a8        0xc CMakeFiles/kiibohd.dir/Output/HID-IO/hidio_com.c.obj
                0x00000000000158a8                hidioCLIDict
 .rodata.hidioCLIDictName
                0x00000000000158b4       0x17 CMakeFiles/kiibohd.dir/Output/HID-IO/hidio_com.c.obj
                0x00000000000158b4                hidioCLIDictName
 .rodata.Output_flashMode_capability.str1.1
                0x00000000000158cb       0x13 CMakeFiles/kiibohd.dir/Output/Interface/output_gen.c.obj
 .rodata.Output_update_external_current.str1.1
                0x00000000000158de       0x4e CMakeFiles/kiibohd.dir/Output/Interface/output_gen.c.obj
 .rodata.cliFunc_current.str1.1
                0x000000000001592c       0x2a CMakeFiles/kiibohd.dir/Output/Interface/output_gen.c.obj
                                         0x2d (size before relaxing)
 .rodata.currentCLIDict_DescEntry
                0x0000000000015956       0x26 CMakeFiles/kiibohd.dir/Output/Interface/output_gen.c.obj
                0x0000000000015956                currentCLIDict_DescEntry
 .rodata.outputCLIDict
                0x000000000001597c       0x24 CMakeFiles/kiibohd.dir/Output/Interface/output_gen.c.obj
                0x000000000001597c                outputCLIDict
 .rodata.outputCLIDictName
                0x00000000000159a0       0x17 CMakeFiles/kiibohd.dir/Output/Interface/output_gen.c.obj
                0x00000000000159a0                outputCLIDictName
 .rodata.outputDebugCLIDict_DescEntry
                0x00000000000159b7       0x1a CMakeFiles/kiibohd.dir/Output/Interface/output_gen.c.obj
                0x00000000000159b7                outputDebugCLIDict_DescEntry
 .rodata.str1.1
                0x00000000000159d1       0x14 CMakeFiles/kiibohd.dir/Output/Interface/output_gen.c.obj
 .rodata.CSWTCH.72
                0x00000000000159e5       0xdf CMakeFiles/kiibohd.dir/Output/USB/output_usb.c.obj
 .rodata.CSWTCH.73
                0x0000000000015ac4       0xdf CMakeFiles/kiibohd.dir/Output/USB/output_usb.c.obj
 .rodata.Output_consCtrlSend_capability.str1.1
                0x0000000000015ba3       0x1e CMakeFiles/kiibohd.dir/Output/USB/output_usb.c.obj
                                         0x23 (size before relaxing)
 .rodata.Output_kbdProtocolBoot_capability.str1.1
                0x0000000000015bc1       0x19 CMakeFiles/kiibohd.dir/Output/USB/output_usb.c.obj
 .rodata.Output_kbdProtocolNKRO_capability.str1.1
                0x0000000000015bda       0x19 CMakeFiles/kiibohd.dir/Output/USB/output_usb.c.obj
 .rodata.Output_noneSend_capability.str1.1
                0x0000000000015bf3       0x12 CMakeFiles/kiibohd.dir/Output/USB/output_usb.c.obj
 .rodata.Output_sysCtrlSend_capability.str1.1
                0x0000000000015c05       0x1c CMakeFiles/kiibohd.dir/Output/USB/output_usb.c.obj
 .rodata.Output_toggleKbdProtocol_capability.str1.1
                0x0000000000015c21       0x1b CMakeFiles/kiibohd.dir/Output/USB/output_usb.c.obj
 .rodata.Output_usbCodeSend_capability.str1.1
                0x0000000000015c3c       0xe0 CMakeFiles/kiibohd.dir/Output/USB/output_usb.c.obj
                                         0xfc (size before relaxing)
 .rodata.Output_usbMouseWheel_capability.str1.1
                0x0000000000015d1c       0x20 CMakeFiles/kiibohd.dir/Output/USB/output_usb.c.obj
 .rodata.Output_usbMouse_capability.str1.1
                0x0000000000015d3c       0x27 CMakeFiles/kiibohd.dir/Output/USB/output_usb.c.obj
 .rodata.USB_6KRODebug.str1.1
                0x0000000000015d63       0x11 CMakeFiles/kiibohd.dir/Output/USB/output_usb.c.obj
 .rodata.USB_ConsCtrlDebug.str1.1
                0x0000000000015d74       0x15 CMakeFiles/kiibohd.dir/Output/USB/output_usb.c.obj
 .rodata.USB_NKRODebug.str1.1
                0x0000000000015d89       0x11 CMakeFiles/kiibohd.dir/Output/USB/output_usb.c.obj
 .rodata.USB_SysCtrlDebug.str1.1
                0x0000000000015d9a       0x19 CMakeFiles/kiibohd.dir/Output/USB/output_usb.c.obj
 .rodata.USB_setup.str1.1
                0x0000000000015db3       0x1c CMakeFiles/kiibohd.dir/Output/USB/output_usb.c.obj
 .rodata.cliFunc_idle.str1.1
                0x0000000000015dcf       0x2b CMakeFiles/kiibohd.dir/Output/USB/output_usb.c.obj
 .rodata.cliFunc_kbdProtocol.str1.1
                0x0000000000015dfa       0x57 CMakeFiles/kiibohd.dir/Output/USB/output_usb.c.obj
 .rodata.cliFunc_readLEDs.str1.1
                0x0000000000015e51       0x1e CMakeFiles/kiibohd.dir/Output/USB/output_usb.c.obj
                                         0x21 (size before relaxing)
 .rodata.cliFunc_usbAddr.str1.1
                0x0000000000015e6f       0x20 CMakeFiles/kiibohd.dir/Output/USB/output_usb.c.obj
 .rodata.cliFunc_usbConf.str1.1
                0x0000000000015e8f       0x23 CMakeFiles/kiibohd.dir/Output/USB/output_usb.c.obj
 .rodata.cliFunc_usbInitTime.str1.1
                0x0000000000015eb2       0x22 CMakeFiles/kiibohd.dir/Output/USB/output_usb.c.obj
                                         0x29 (size before relaxing)
 .rodata.idleCLIDict_DescEntry
                0x0000000000015ed4       0x30 CMakeFiles/kiibohd.dir/Output/USB/output_usb.c.obj
                0x0000000000015ed4                idleCLIDict_DescEntry
 .rodata.kbdProtocolCLIDict_DescEntry
                0x0000000000015f04       0x34 CMakeFiles/kiibohd.dir/Output/USB/output_usb.c.obj
                0x0000000000015f04                kbdProtocolCLIDict_DescEntry
 .rodata.readLEDsCLIDict_DescEntry
                0x0000000000015f38       0x40 CMakeFiles/kiibohd.dir/Output/USB/output_usb.c.obj
                0x0000000000015f38                readLEDsCLIDict_DescEntry
 .rodata.str1.1
                0x0000000000015f78       0x36 CMakeFiles/kiibohd.dir/Output/USB/output_usb.c.obj
 .rodata.usbAddrCLIDict_DescEntry
                0x0000000000015fae       0x3d CMakeFiles/kiibohd.dir/Output/USB/output_usb.c.obj
                0x0000000000015fae                usbAddrCLIDict_DescEntry
 *fill*         0x0000000000015feb        0x1 
 .rodata.usbCLIDict
                0x0000000000015fec       0x54 CMakeFiles/kiibohd.dir/Output/USB/output_usb.c.obj
                0x0000000000015fec                usbCLIDict
 .rodata.usbCLIDictName
                0x0000000000016040       0x14 CMakeFiles/kiibohd.dir/Output/USB/output_usb.c.obj
                0x0000000000016040                usbCLIDictName
 .rodata.usbConfCLIDict_DescEntry
                0x0000000000016054       0x28 CMakeFiles/kiibohd.dir/Output/USB/output_usb.c.obj
                0x0000000000016054                usbConfCLIDict_DescEntry
 .rodata.usbInitTimeCLIDict_DescEntry
                0x000000000001607c       0x42 CMakeFiles/kiibohd.dir/Output/USB/output_usb.c.obj
                0x000000000001607c                usbInitTimeCLIDict_DescEntry
 *fill*         0x00000000000160be        0x2 
 .rodata.usb_descriptor_list
                0x00000000000160c0      0x144 CMakeFiles/kiibohd.dir/Output/USB/arm/usb_desc.c.obj
                0x00000000000160c0                usb_descriptor_list
 .rodata.usb_endpoint_config_table
                0x0000000000016204        0xa CMakeFiles/kiibohd.dir/Output/USB/arm/usb_desc.c.obj
                0x0000000000016204                usb_endpoint_config_table
 .rodata.keyboard_control.str1.1
                0x000000000001620e       0x3d CMakeFiles/kiibohd.dir/Output/USB/arm/usb_dev.c.obj
 .rodata.usb_device_check.str1.1
                0x000000000001624b       0x4c CMakeFiles/kiibohd.dir/Output/USB/arm/usb_dev.c.obj
 .rodata.usb_setup.str1.1
                0x0000000000016297      0x114 CMakeFiles/kiibohd.dir/Output/USB/arm/usb_dev.c.obj
                                        0x11b (size before relaxing)
 .rodata.usb_keyboard_send.str1.1
                0x00000000000163ab       0x8f CMakeFiles/kiibohd.dir/Output/USB/arm/usb_keyboard.c.obj
 .rodata.usb_mouse_send.str1.1
                0x000000000001643a       0x2f CMakeFiles/kiibohd.dir/Output/USB/arm/usb_mouse.c.obj
                                         0x5c (size before relaxing)
 .rodata.usb_rawio_rx.str1.1
                0x0000000000016469       0x3a CMakeFiles/kiibohd.dir/Output/USB/arm/usb_rawio.c.obj
 .rodata.usb_rawio_tx.str1.1
                0x00000000000164a3       0x3a CMakeFiles/kiibohd.dir/Output/USB/arm/usb_rawio.c.obj
 .rodata        0x00000000000164dd        0x4 CMakeFiles/kiibohd.dir/Debug/cli/cli.c.obj
 .rodata.CLI_commandLookup.str1.1
                0x00000000000164e1       0x40 CMakeFiles/kiibohd.dir/Debug/cli/cli.c.obj
                                         0x4a (size before relaxing)
 .rodata.CLI_process.str1.1
                0x0000000000016521       0x6a CMakeFiles/kiibohd.dir/Debug/cli/cli.c.obj
 .rodata.CLI_registerDictionary.str1.1
                0x000000000001658b       0x45 CMakeFiles/kiibohd.dir/Debug/cli/cli.c.obj
 .rodata.ChipVersion_cpuid_implementor.str1.1
                0x00000000000165d0        0x4 CMakeFiles/kiibohd.dir/Debug/cli/cli.c.obj
 .rodata.ChipVersion_cpuid_partno.str1.1
                0x00000000000165d4       0x2c CMakeFiles/kiibohd.dir/Debug/cli/cli.c.obj
 .rodata.ChipVersion_eepromsize
                0x0000000000016600       0x20 CMakeFiles/kiibohd.dir/Debug/cli/cli.c.obj
                0x0000000000016600                ChipVersion_eepromsize
 .rodata.ChipVersion_lookup.str1.1
                0x0000000000016620       0x82 CMakeFiles/kiibohd.dir/Debug/cli/cli.c.obj
 .rodata.ChipVersion_nvmsize
                0x00000000000166a2       0x1e CMakeFiles/kiibohd.dir/Debug/cli/cli.c.obj
                0x00000000000166a2                ChipVersion_nvmsize
 .rodata.ChipVersion_pflashsize
                0x00000000000166c0       0x20 CMakeFiles/kiibohd.dir/Debug/cli/cli.c.obj
                0x00000000000166c0                ChipVersion_pflashsize
 .rodata.ChipVersion_ramsize
                0x00000000000166e0       0x20 CMakeFiles/kiibohd.dir/Debug/cli/cli.c.obj
                0x00000000000166e0                ChipVersion_ramsize
 .rodata.basicCLIDict
                0x0000000000016700       0xa8 CMakeFiles/kiibohd.dir/Debug/cli/cli.c.obj
                0x0000000000016700                basicCLIDict
 .rodata.basicCLIDictName
                0x00000000000167a8       0x11 CMakeFiles/kiibohd.dir/Debug/cli/cli.c.obj
                0x00000000000167a8                basicCLIDictName
 .rodata.clearCLIDict_DescEntry
                0x00000000000167b9       0x12 CMakeFiles/kiibohd.dir/Debug/cli/cli.c.obj
                0x00000000000167b9                clearCLIDict_DescEntry
 .rodata.cliDebugCLIDict_DescEntry
                0x00000000000167cb       0x3a CMakeFiles/kiibohd.dir/Debug/cli/cli.c.obj
                0x00000000000167cb                cliDebugCLIDict_DescEntry
 .rodata.cliFunc_clear.str1.1
                0x0000000000016805        0x9 CMakeFiles/kiibohd.dir/Debug/cli/cli.c.obj
 .rodata.cliFunc_cliDebug.str1.1
                0x000000000001680e       0x5d CMakeFiles/kiibohd.dir/Debug/cli/cli.c.obj
 .rodata.cliFunc_colorTest.str1.1
                0x000000000001686b       0x1f CMakeFiles/kiibohd.dir/Debug/cli/cli.c.obj
                                         0x22 (size before relaxing)
 .rodata.cliFunc_help.str1.1
                0x000000000001688a       0x18 CMakeFiles/kiibohd.dir/Debug/cli/cli.c.obj
                                         0x1f (size before relaxing)
 .rodata.cliFunc_latency.str1.1
                0x00000000000168a2       0x38 CMakeFiles/kiibohd.dir/Debug/cli/cli.c.obj
 .rodata.cliFunc_periodic.str1.1
                0x00000000000168da       0x28 CMakeFiles/kiibohd.dir/Debug/cli/cli.c.obj
 .rodata.cliFunc_rand.str1.1
                0x0000000000016902       0x46 CMakeFiles/kiibohd.dir/Debug/cli/cli.c.obj
 .rodata.cliFunc_reload.str1.1
                0x0000000000016948       0x96 CMakeFiles/kiibohd.dir/Debug/cli/cli.c.obj
 .rodata.cliFunc_reset.str1.1
                0x0000000000016948        0x3 CMakeFiles/kiibohd.dir/Debug/cli/cli.c.obj
 .rodata.cliFunc_tick.str1.1
                0x000000000001694b       0x61 CMakeFiles/kiibohd.dir/Debug/cli/cli.c.obj
                                         0x63 (size before relaxing)
 .rodata.cliFunc_version.str1.1
                0x00000000000169ac      0x58f CMakeFiles/kiibohd.dir/Debug/cli/cli.c.obj
                                        0x593 (size before relaxing)
 .rodata.colorTestCLIDict_DescEntry
                0x0000000000016f3b       0x61 CMakeFiles/kiibohd.dir/Debug/cli/cli.c.obj
                0x0000000000016f3b                colorTestCLIDict_DescEntry
 .rodata.helpCLIDict_DescEntry
                0x0000000000016f9c       0x18 CMakeFiles/kiibohd.dir/Debug/cli/cli.c.obj
                0x0000000000016f9c                helpCLIDict_DescEntry
 .rodata.latencyCLIDict_DescEntry
                0x0000000000016fb4       0x50 CMakeFiles/kiibohd.dir/Debug/cli/cli.c.obj
                0x0000000000016fb4                latencyCLIDict_DescEntry
 .rodata.ledCLIDict_DescEntry
                0x0000000000017004       0x96 CMakeFiles/kiibohd.dir/Debug/cli/cli.c.obj
                0x0000000000017004                ledCLIDict_DescEntry
 .rodata.periodicCLIDict_DescEntry
                0x000000000001709a       0x37 CMakeFiles/kiibohd.dir/Debug/cli/cli.c.obj
                0x000000000001709a                periodicCLIDict_DescEntry
 .rodata.printLatency.str1.1
                0x00000000000170d1      0x58f CMakeFiles/kiibohd.dir/Debug/cli/cli.c.obj
                                          0x2 (size before relaxing)
 .rodata.prompt.str1.1
                0x00000000000170d1       0x14 CMakeFiles/kiibohd.dir/Debug/cli/cli.c.obj
 .rodata.randCLIDict_DescEntry
                0x00000000000170e5       0x34 CMakeFiles/kiibohd.dir/Debug/cli/cli.c.obj
                0x00000000000170e5                randCLIDict_DescEntry
 .rodata.reloadCLIDict_DescEntry
                0x0000000000017119       0x2b CMakeFiles/kiibohd.dir/Debug/cli/cli.c.obj
                0x0000000000017119                reloadCLIDict_DescEntry
 .rodata.resetCLIDict_DescEntry
                0x0000000000017144       0x2e CMakeFiles/kiibohd.dir/Debug/cli/cli.c.obj
                0x0000000000017144                resetCLIDict_DescEntry
 .rodata.restartCLIDict_DescEntry
                0x0000000000017172       0x47 CMakeFiles/kiibohd.dir/Debug/cli/cli.c.obj
                0x0000000000017172                restartCLIDict_DescEntry
 .rodata.str1.1
                0x00000000000171b9       0xc9 CMakeFiles/kiibohd.dir/Debug/cli/cli.c.obj
                                         0xd1 (size before relaxing)
 .rodata.tickCLIDict_DescEntry
                0x0000000000017282       0x4a CMakeFiles/kiibohd.dir/Debug/cli/cli.c.obj
                0x0000000000017282                tickCLIDict_DescEntry
 .rodata.versionCLIDict_DescEntry
                0x00000000000172cc       0x29 CMakeFiles/kiibohd.dir/Debug/cli/cli.c.obj
                0x00000000000172cc                versionCLIDict_DescEntry
 .rodata.Latency_add_resource.str1.1
                0x00000000000172f5       0x3e CMakeFiles/kiibohd.dir/Debug/latency/latency.c.obj
 .rodata.led_pin
                0x0000000000017333        0x2 CMakeFiles/kiibohd.dir/Debug/led/led.c.obj
                0x0000000000017660                . = ALIGN (0x4)
 *fill*         0x0000000000017335        0x3 
 *(.init)

.glue_7         0x0000000000017338        0x0
 .glue_7        0x0000000000017338        0x0 linker stubs

.glue_7t        0x0000000000017338        0x0
 .glue_7t       0x0000000000017338        0x0 linker stubs

.vfp11_veneer   0x0000000000017338        0x0
 .vfp11_veneer  0x0000000000017338        0x0 linker stubs

.v4_bx          0x0000000000017338        0x0
 .v4_bx         0x0000000000017338        0x0 linker stubs

.iplt           0x0000000000017338        0x0
 .iplt          0x0000000000017338        0x0 CMakeFiles/kiibohd.dir/main.c.obj

.rel.dyn        0x0000000000017338        0x0
 .rel.iplt      0x0000000000017338        0x0 CMakeFiles/kiibohd.dir/main.c.obj

.ARM.exidx      0x0000000000017338        0x0
                0x0000000000017338                __exidx_start = .
 *(.ARM.exidx* .gnu.linkonce.armexidx.*)
                0x0000000000017338                __exidx_end = .
                0x0000000000017338                _etext = .

.usbdescriptortable
                0x000000001fff8000      0x160
                0x000000001fff8000                . = ALIGN (0x200)
 *(.usbdescriptortable*)
 .usbdescriptortable
                0x000000001fff8000      0x160 CMakeFiles/kiibohd.dir/Output/USB/arm/usb_dev.c.obj

.dmabuffers     0x000000001fff8160        0x0
                0x000000001fff8160                . = ALIGN (0x4)
 *(.dmabuffers*)

.usbbuffers     0x000000001fff8160      0x870
                0x000000001fff8160                . = ALIGN (0x4)
 *(.usbbuffers*)
 .usbbuffers    0x000000001fff8160      0x870 CMakeFiles/kiibohd.dir/Output/USB/arm/usb_mem.c.obj
                0x000000001fff8160                usb_buffer_memory

.data           0x000000001fff89d0      0x8c0 load address 0x0000000000017338
                0x000000001fff89d0                . = ALIGN (0x4)
                0x000000001fff89d0                _sdata = .
 *(.data*)
 .data.__stack_chk_guard
                0x000000001fff89d0        0x4 CMakeFiles/kiibohd.dir/Lib/kinetis.c.obj
                0x000000001fff89d0                __stack_chk_guard
 .data.Time_ticksPer_ns_str
                0x000000001fff89d4        0x4 CMakeFiles/kiibohd.dir/Lib/time.c.obj
                0x000000001fff89d4                Time_ticksPer_ns_str
 .data.i2c_offset
                0x000000001fff89d8        0x8 CMakeFiles/kiibohd.dir/Scan/Devices/ISSILed/i2c.c.obj
                0x000000001fff89d8                i2c_offset
 .data.Connect_baud
                0x000000001fff89e0        0x2 CMakeFiles/kiibohd.dir/Scan/Devices/UARTConnect/connect_scan.c.obj
                0x000000001fff89e0                Connect_baud
 .data.Connect_id
                0x000000001fff89e2        0x1 CMakeFiles/kiibohd.dir/Scan/Devices/UARTConnect/connect_scan.c.obj
                0x000000001fff89e2                Connect_id
 *fill*         0x000000001fff89e3        0x1 
 .data.Connect_receiveFunctions
                0x000000001fff89e4       0x28 CMakeFiles/kiibohd.dir/Scan/Devices/UARTConnect/connect_scan.c.obj
                0x000000001fff89e4                Connect_receiveFunctions
 .data.default_scanMap
                0x000000001fff8a0c      0x16c CMakeFiles/kiibohd.dir/Macro/PartialMap/macro.c.obj
                0x000000001fff8a0c                default_scanMap
 .data.layer1_scanMap
                0x000000001fff8b78      0x128 CMakeFiles/kiibohd.dir/Macro/PartialMap/macro.c.obj
                0x000000001fff8b78                layer1_scanMap
 .data.layer2_scanMap
                0x000000001fff8ca0      0x144 CMakeFiles/kiibohd.dir/Macro/PartialMap/macro.c.obj
                0x000000001fff8ca0                layer2_scanMap
 .data.LED_Buffers
                0x000000001fff8de4        0x8 CMakeFiles/kiibohd.dir/generatedPixelmap.c.obj
                0x000000001fff8de4                LED_Buffers
 .data.Pixel_Animations
                0x000000001fff8dec        0x4 CMakeFiles/kiibohd.dir/generatedPixelmap.c.obj
                0x000000001fff8dec                Pixel_Animations
 .data.Pixel_Buffers
                0x000000001fff8df0        0x8 CMakeFiles/kiibohd.dir/generatedPixelmap.c.obj
                0x000000001fff8df0                Pixel_Buffers
 .data.all_on_frames
                0x000000001fff8df8        0x8 CMakeFiles/kiibohd.dir/generatedPixelmap.c.obj
                0x000000001fff8df8                all_on_frames
 .data.USBKeys_Protocol
                0x000000001fff8e00        0x1 CMakeFiles/kiibohd.dir/Output/USB/output_usb.c.obj
                0x000000001fff8e00                USBKeys_Protocol
 .data.USBKeys_Protocol_New
                0x000000001fff8e01        0x1 CMakeFiles/kiibohd.dir/Output/USB/output_usb.c.obj
                0x000000001fff8e01                USBKeys_Protocol_New
 .data.config_descriptor
                0x000000001fff8e02       0xcf CMakeFiles/kiibohd.dir/Output/USB/arm/usb_desc.c.obj
 .data.device_descriptor
                0x000000001fff8ed1       0x12 CMakeFiles/kiibohd.dir/Output/USB/arm/usb_desc.c.obj
 .data.keyboard_report_desc
                0x000000001fff8ee3       0x43 CMakeFiles/kiibohd.dir/Output/USB/arm/usb_desc.c.obj
 .data.mouse_report_desc
                0x000000001fff8f26       0x6d CMakeFiles/kiibohd.dir/Output/USB/arm/usb_desc.c.obj
 .data.nkro_keyboard_report_desc
                0x000000001fff8f93       0x61 CMakeFiles/kiibohd.dir/Output/USB/arm/usb_desc.c.obj
 .data.rawio_report_desc
                0x000000001fff8ff4       0x1c CMakeFiles/kiibohd.dir/Output/USB/arm/usb_desc.c.obj
 .data.string0  0x000000001fff9010        0x4 CMakeFiles/kiibohd.dir/Output/USB/arm/usb_desc.c.obj
                0x000000001fff9010                string0
 .data.sys_ctrl_report_desc
                0x000000001fff9014       0x35 CMakeFiles/kiibohd.dir/Output/USB/arm/usb_desc.c.obj
 *fill*         0x000000001fff9049        0x3 
 .data.usb_bMaxPower
                0x000000001fff904c        0x4 CMakeFiles/kiibohd.dir/Output/USB/arm/usb_desc.c.obj
                0x000000001fff904c                usb_bMaxPower
 .data.usb_string_cdc_data_name
                0x000000001fff9050       0x38 CMakeFiles/kiibohd.dir/Output/USB/arm/usb_desc.c.obj
                0x000000001fff9050                usb_string_cdc_data_name
 .data.usb_string_cdc_status_name
                0x000000001fff9088       0x3c CMakeFiles/kiibohd.dir/Output/USB/arm/usb_desc.c.obj
                0x000000001fff9088                usb_string_cdc_status_name
 .data.usb_string_flashingstation_name
                0x000000001fff90c4        0xc CMakeFiles/kiibohd.dir/Output/USB/arm/usb_desc.c.obj
                0x000000001fff90c4                usb_string_flashingstation_name
 .data.usb_string_keyboard_name
                0x000000001fff90d0       0x1e CMakeFiles/kiibohd.dir/Output/USB/arm/usb_desc.c.obj
                0x000000001fff90d0                usb_string_keyboard_name
 .data.usb_string_manufacturer_name_default
                0x000000001fff90ee       0x18 CMakeFiles/kiibohd.dir/Output/USB/arm/usb_desc.c.obj
                0x000000001fff90ee                usb_string_manufacturer_name_default
                0x000000001fff90ee                usb_string_manufacturer_name
 .data.usb_string_mouse_name
                0x000000001fff9106        0xe CMakeFiles/kiibohd.dir/Output/USB/arm/usb_desc.c.obj
                0x000000001fff9106                usb_string_mouse_name
 .data.usb_string_nkro_keyboard_name
                0x000000001fff9114       0x1e CMakeFiles/kiibohd.dir/Output/USB/arm/usb_desc.c.obj
                0x000000001fff9114                usb_string_nkro_keyboard_name
 .data.usb_string_product_name_default
                0x000000001fff9132       0x54 CMakeFiles/kiibohd.dir/Output/USB/arm/usb_desc.c.obj
                0x000000001fff9132                usb_string_product_name
                0x000000001fff9132                usb_string_product_name_default
 .data.usb_string_rawio_name
                0x000000001fff9186       0x2a CMakeFiles/kiibohd.dir/Output/USB/arm/usb_desc.c.obj
                0x000000001fff9186                usb_string_rawio_name
 .data.usb_string_serial_number_default
                0x000000001fff91b0       0x5c CMakeFiles/kiibohd.dir/Output/USB/arm/usb_desc.c.obj
                0x000000001fff91b0                usb_string_serial_number_default
                0x000000001fff91b0                usb_string_serial_number
 .data.usb_string_sys_ctrl_name
                0x000000001fff920c       0x18 CMakeFiles/kiibohd.dir/Output/USB/arm/usb_desc.c.obj
                0x000000001fff920c                usb_string_sys_ctrl_name
 .data.usb_buffer_available
                0x000000001fff9224        0x4 CMakeFiles/kiibohd.dir/Output/USB/arm/usb_mem.c.obj
 .data.usb_cdc_line_coding
                0x000000001fff9228        0x8 CMakeFiles/kiibohd.dir/Output/USB/arm/usb_serial.c.obj
                0x000000001fff9228                usb_cdc_line_coding
 .data.ChipVersion_familyid
                0x000000001fff9230       0x20 CMakeFiles/kiibohd.dir/Debug/cli/cli.c.obj
                0x000000001fff9230                ChipVersion_familyid
 .data.ChipVersion_pincount
                0x000000001fff9250       0x40 CMakeFiles/kiibohd.dir/Debug/cli/cli.c.obj
                0x000000001fff9250                ChipVersion_pincount
                0x000000001fff9290                . = ALIGN (0x4)
                0x000000001fff9290                _edata = .

.igot.plt       0x000000001fff9290        0x0 load address 0x0000000000017bf8
 .igot.plt      0x000000001fff9290        0x0 CMakeFiles/kiibohd.dir/main.c.obj

.noinit
 *(.noinit*)

.bss            0x000000001fff9290     0x2078 load address 0x0000000000017bf8
                0x000000001fff9290                . = ALIGN (0x4)
                0x000000001fff9290                _sbss = .
 *(.bss*)
 .bss.stage_tracker
                0x000000001fff9290        0x1 CMakeFiles/kiibohd.dir/main.c.obj
 *fill*         0x000000001fff9291        0x3 
 .bss.systick_millis_count
                0x000000001fff9294        0x4 CMakeFiles/kiibohd.dir/Lib/delay.c.obj
                0x000000001fff9294                systick_millis_count
 .bss.periodic_func
                0x000000001fff9298        0x4 CMakeFiles/kiibohd.dir/Lib/periodic.c.obj
 .bss.LED_currentEvent
                0x000000001fff929c        0x4 CMakeFiles/kiibohd.dir/Scan/Devices/ISSILed/led_scan.c.obj
                0x000000001fff929c                LED_currentEvent
 .bss.ledLatencyResource
                0x000000001fff92a0        0x1 CMakeFiles/kiibohd.dir/Scan/Devices/ISSILed/led_scan.c.obj
 *fill*         0x000000001fff92a1        0x3 
 .bss.Matrix_scanArray
                0x000000001fff92a4      0x168 CMakeFiles/kiibohd.dir/Scan/Devices/MatrixARMPeriodic/matrix_scan.c.obj
 .bss.activity_tick_duration
                0x000000001fff940c        0x8 CMakeFiles/kiibohd.dir/Scan/Devices/MatrixARMPeriodic/matrix_scan.c.obj
 .bss.activity_tickstore
                0x000000001fff9414       0x1c CMakeFiles/kiibohd.dir/Scan/Devices/MatrixARMPeriodic/matrix_scan.c.obj
 .bss.debounceExpiryTime
                0x000000001fff9430        0x1 CMakeFiles/kiibohd.dir/Scan/Devices/MatrixARMPeriodic/matrix_scan.c.obj
 *fill*         0x000000001fff9431        0x3 
 .bss.inactivity_tickstore
                0x000000001fff9434       0x1c CMakeFiles/kiibohd.dir/Scan/Devices/MatrixARMPeriodic/matrix_scan.c.obj
 .bss.matrixCurrentStrobe
                0x000000001fff9450        0x1 CMakeFiles/kiibohd.dir/Scan/Devices/MatrixARMPeriodic/matrix_scan.c.obj
 .bss.matrixDebugMode
                0x000000001fff9451        0x1 CMakeFiles/kiibohd.dir/Scan/Devices/MatrixARMPeriodic/matrix_scan.c.obj
 .bss.matrixDebugStateCounter
                0x000000001fff9452        0x2 CMakeFiles/kiibohd.dir/Scan/Devices/MatrixARMPeriodic/matrix_scan.c.obj
 .bss.matrixLatencyResource
                0x000000001fff9454        0x1 CMakeFiles/kiibohd.dir/Scan/Devices/MatrixARMPeriodic/matrix_scan.c.obj
 *fill*         0x000000001fff9455        0x1 
 .bss.matrixStateActiveCount
                0x000000001fff9456        0x2 CMakeFiles/kiibohd.dir/Scan/Devices/MatrixARMPeriodic/matrix_scan.c.obj
 .bss.matrixStatePressCount
                0x000000001fff9458        0x2 CMakeFiles/kiibohd.dir/Scan/Devices/MatrixARMPeriodic/matrix_scan.c.obj
 .bss.matrixStateReleaseCount
                0x000000001fff945a        0x2 CMakeFiles/kiibohd.dir/Scan/Devices/MatrixARMPeriodic/matrix_scan.c.obj
 .bss.strobeDelayTime
                0x000000001fff945c        0x1 CMakeFiles/kiibohd.dir/Scan/Devices/MatrixARMPeriodic/matrix_scan.c.obj
 *fill*         0x000000001fff945d        0x1 
 .bss.LCD_layerStack_prevSize
                0x000000001fff945e        0x2 CMakeFiles/kiibohd.dir/Scan/Devices/STLcd/lcd_scan.c.obj
                0x000000001fff945e                LCD_layerStack_prevSize
 .bss.LCD_layerStack_prevTop
                0x000000001fff9460        0x2 CMakeFiles/kiibohd.dir/Scan/Devices/STLcd/lcd_scan.c.obj
                0x000000001fff9460                LCD_layerStack_prevTop
 .bss.hold_color.4846
                0x000000001fff9462        0x6 CMakeFiles/kiibohd.dir/Scan/Devices/STLcd/lcd_scan.c.obj
 .bss.stlcdLatencyResource
                0x000000001fff9468        0x1 CMakeFiles/kiibohd.dir/Scan/Devices/STLcd/lcd_scan.c.obj
 .bss.was_capslock.4847
                0x000000001fff9469        0x1 CMakeFiles/kiibohd.dir/Scan/Devices/STLcd/lcd_scan.c.obj
 .bss.Connect_LastCurrentValue
                0x000000001fff946a        0x2 CMakeFiles/kiibohd.dir/Scan/Devices/UARTConnect/connect_scan.c.obj
 .bss.Connect_baudFine
                0x000000001fff946c        0x2 CMakeFiles/kiibohd.dir/Scan/Devices/UARTConnect/connect_scan.c.obj
                0x000000001fff946c                Connect_baudFine
 *fill*         0x000000001fff946e        0x2 
 .bss.Connect_cableChecksMaster
                0x000000001fff9470        0x4 CMakeFiles/kiibohd.dir/Scan/Devices/UARTConnect/connect_scan.c.obj
                0x000000001fff9470                Connect_cableChecksMaster
 .bss.Connect_cableChecksSlave
                0x000000001fff9474        0x4 CMakeFiles/kiibohd.dir/Scan/Devices/UARTConnect/connect_scan.c.obj
                0x000000001fff9474                Connect_cableChecksSlave
 .bss.Connect_cableFaultsMaster
                0x000000001fff9478        0x4 CMakeFiles/kiibohd.dir/Scan/Devices/UARTConnect/connect_scan.c.obj
                0x000000001fff9478                Connect_cableFaultsMaster
 .bss.Connect_cableFaultsSlave
                0x000000001fff947c        0x4 CMakeFiles/kiibohd.dir/Scan/Devices/UARTConnect/connect_scan.c.obj
                0x000000001fff947c                Connect_cableFaultsSlave
 .bss.Connect_cableOkMaster
                0x000000001fff9480        0x1 CMakeFiles/kiibohd.dir/Scan/Devices/UARTConnect/connect_scan.c.obj
                0x000000001fff9480                Connect_cableOkMaster
 .bss.Connect_cableOkSlave
                0x000000001fff9481        0x1 CMakeFiles/kiibohd.dir/Scan/Devices/UARTConnect/connect_scan.c.obj
                0x000000001fff9481                Connect_cableOkSlave
 .bss.Connect_debug
                0x000000001fff9482        0x1 CMakeFiles/kiibohd.dir/Scan/Devices/UARTConnect/connect_scan.c.obj
                0x000000001fff9482                Connect_debug
 *fill*         0x000000001fff9483        0x1 
 .bss.Connect_lastCheck
                0x000000001fff9484        0x4 CMakeFiles/kiibohd.dir/Scan/Devices/UARTConnect/connect_scan.c.obj
                0x000000001fff9484                Connect_lastCheck
 .bss.Connect_master
                0x000000001fff9488        0x1 CMakeFiles/kiibohd.dir/Scan/Devices/UARTConnect/connect_scan.c.obj
                0x000000001fff9488                Connect_master
 .bss.Connect_maxId
                0x000000001fff9489        0x1 CMakeFiles/kiibohd.dir/Scan/Devices/UARTConnect/connect_scan.c.obj
                0x000000001fff9489                Connect_maxId
 .bss.Connect_override
                0x000000001fff948a        0x1 CMakeFiles/kiibohd.dir/Scan/Devices/UARTConnect/connect_scan.c.obj
                0x000000001fff948a                Connect_override
 *fill*         0x000000001fff948b        0x1 
 .bss.Connect_receive_CurrentEvent_current
                0x000000001fff948c        0x2 CMakeFiles/kiibohd.dir/Scan/Devices/UARTConnect/connect_scan.c.obj
 .bss.Connect_receive_ScanCodeBuffer
                0x000000001fff948e        0x3 CMakeFiles/kiibohd.dir/Scan/Devices/UARTConnect/connect_scan.c.obj
 .bss.Connect_receive_ScanCodeBufferPos
                0x000000001fff9491        0x1 CMakeFiles/kiibohd.dir/Scan/Devices/UARTConnect/connect_scan.c.obj
 .bss.Connect_receive_ScanCodeDeviceId
                0x000000001fff9492        0x1 CMakeFiles/kiibohd.dir/Scan/Devices/UARTConnect/connect_scan.c.obj
 .bss.connectLatencyResource
                0x000000001fff9493        0x1 CMakeFiles/kiibohd.dir/Scan/Devices/UARTConnect/connect_scan.c.obj
 .bss.uarts_configured
                0x000000001fff9494        0x1 CMakeFiles/kiibohd.dir/Scan/Devices/UARTConnect/connect_scan.c.obj
                0x000000001fff9494                uarts_configured
 *fill*         0x000000001fff9495        0x1 
 .bss.macroLayerIndexStack
                0x000000001fff9496        0x6 CMakeFiles/kiibohd.dir/Macro/PartialMap/layer.c.obj
                0x000000001fff9496                macroLayerIndexStack
 .bss.macroLayerIndexStackSize
                0x000000001fff949c        0x2 CMakeFiles/kiibohd.dir/Macro/PartialMap/layer.c.obj
                0x000000001fff949c                macroLayerIndexStackSize
 .bss.Macro_rotation_store
                0x000000001fff949e      0x100 CMakeFiles/kiibohd.dir/Macro/PartialMap/macro.c.obj
 .bss.macroInterconnectCacheSize
                0x000000001fff959e        0x1 CMakeFiles/kiibohd.dir/Macro/PartialMap/macro.c.obj
                0x000000001fff959e                macroInterconnectCacheSize
 .bss.macroLatencyResource
                0x000000001fff959f        0x1 CMakeFiles/kiibohd.dir/Macro/PartialMap/macro.c.obj
 .bss.macroTriggerMacroPendingList
                0x000000001fff95a0       0xe8 CMakeFiles/kiibohd.dir/Macro/PartialMap/trigger.c.obj
                0x000000001fff95a0                macroTriggerMacroPendingList
 .bss.macroTriggerMacroPendingListSize
                0x000000001fff9688        0x2 CMakeFiles/kiibohd.dir/Macro/PartialMap/trigger.c.obj
                0x000000001fff9688                macroTriggerMacroPendingListSize
 .bss.Pixel_pixel_fade_profile
                0x000000001fff968a       0x26 CMakeFiles/kiibohd.dir/Macro/PixelMap/pixel.c.obj
 .bss.Pixel_pixel_fade_profile_entries
                0x000000001fff96b0       0x30 CMakeFiles/kiibohd.dir/Macro/PixelMap/pixel.c.obj
 .bss.Pixel_testPos
                0x000000001fff96e0        0x2 CMakeFiles/kiibohd.dir/Macro/PixelMap/pixel.c.obj
                0x000000001fff96e0                Pixel_testPos
 .bss.pixelLatencyResource
                0x000000001fff96e2        0x1 CMakeFiles/kiibohd.dir/Macro/PixelMap/pixel.c.obj
 .bss.hidioLatencyResource
                0x000000001fff96e3        0x1 CMakeFiles/kiibohd.dir/Output/HID-IO/hidio_com.c.obj
 .bss.USBKeys_Idle_Config
                0x000000001fff96e4        0x1 CMakeFiles/kiibohd.dir/Output/USB/output_usb.c.obj
                0x000000001fff96e4                USBKeys_Idle_Config
 .bss.outputPeriodicLatencyResource
                0x000000001fff96e5        0x1 CMakeFiles/kiibohd.dir/Output/USB/output_usb.c.obj
 .bss.outputPollLatencyResource
                0x000000001fff96e6        0x1 CMakeFiles/kiibohd.dir/Output/USB/output_usb.c.obj
 .bss.device_qualifier_descriptor
                0x000000001fff96e7        0x1 CMakeFiles/kiibohd.dir/Output/USB/arm/usb_desc.c.obj
 .bss.usb_debug_descriptor
                0x000000001fff96e8        0x1 CMakeFiles/kiibohd.dir/Output/USB/arm/usb_desc.c.obj
 *fill*         0x000000001fff96e9        0x3 
 .bss.ep0_rx0_buf
                0x000000001fff96ec       0x40 CMakeFiles/kiibohd.dir/Output/USB/arm/usb_dev.c.obj
 .bss.ep0_rx1_buf
                0x000000001fff972c       0x40 CMakeFiles/kiibohd.dir/Output/USB/arm/usb_dev.c.obj
 .bss.ep0_tx_bdt_bank
                0x000000001fff976c        0x1 CMakeFiles/kiibohd.dir/Output/USB/arm/usb_dev.c.obj
 .bss.ep0_tx_data_toggle
                0x000000001fff976d        0x1 CMakeFiles/kiibohd.dir/Output/USB/arm/usb_dev.c.obj
 .bss.ep0_tx_len
                0x000000001fff976e        0x2 CMakeFiles/kiibohd.dir/Output/USB/arm/usb_dev.c.obj
 .bss.ep0_tx_ptr
                0x000000001fff9770        0x4 CMakeFiles/kiibohd.dir/Output/USB/arm/usb_dev.c.obj
 .bss.power_neg_delay
                0x000000001fff9774        0x1 CMakeFiles/kiibohd.dir/Output/USB/arm/usb_dev.c.obj
 *fill*         0x000000001fff9775        0x3 
 .bss.power_neg_time
                0x000000001fff9778        0x4 CMakeFiles/kiibohd.dir/Output/USB/arm/usb_dev.c.obj
 .bss.reply_buffer
                0x000000001fff977c        0x8 CMakeFiles/kiibohd.dir/Output/USB/arm/usb_dev.c.obj
 .bss.rx_first  0x000000001fff9784       0x28 CMakeFiles/kiibohd.dir/Output/USB/arm/usb_dev.c.obj
 .bss.rx_last   0x000000001fff97ac       0x28 CMakeFiles/kiibohd.dir/Output/USB/arm/usb_dev.c.obj
 .bss.setup     0x000000001fff97d4        0x8 CMakeFiles/kiibohd.dir/Output/USB/arm/usb_dev.c.obj
 .bss.tx_first  0x000000001fff97dc       0x28 CMakeFiles/kiibohd.dir/Output/USB/arm/usb_dev.c.obj
 .bss.tx_last   0x000000001fff9804       0x28 CMakeFiles/kiibohd.dir/Output/USB/arm/usb_dev.c.obj
 .bss.tx_state  0x000000001fff982c        0xa CMakeFiles/kiibohd.dir/Output/USB/arm/usb_dev.c.obj
 .bss.usb_configuration
                0x000000001fff9836        0x1 CMakeFiles/kiibohd.dir/Output/USB/arm/usb_dev.c.obj
                0x000000001fff9836                usb_configuration
 .bss.usb_dev_sleep
                0x000000001fff9837        0x1 CMakeFiles/kiibohd.dir/Output/USB/arm/usb_dev.c.obj
 .bss.usb_reboot_timer
                0x000000001fff9838        0x1 CMakeFiles/kiibohd.dir/Output/USB/arm/usb_dev.c.obj
                0x000000001fff9838                usb_reboot_timer
 .bss.usb_remote_wakeup
                0x000000001fff9839        0x1 CMakeFiles/kiibohd.dir/Output/USB/arm/usb_dev.c.obj
 .bss.usb_rx_memory_needed
                0x000000001fff983a        0x1 CMakeFiles/kiibohd.dir/Output/USB/arm/usb_dev.c.obj
                0x000000001fff983a                usb_rx_memory_needed
 .bss.transmit_previous_timeout
                0x000000001fff983b        0x1 CMakeFiles/kiibohd.dir/Output/USB/arm/usb_keyboard.c.obj
 .bss.transmit_previous_timeout
                0x000000001fff983c        0x1 CMakeFiles/kiibohd.dir/Output/USB/arm/usb_mouse.c.obj
 *fill*         0x000000001fff983d        0x3 
 .bss.rx_packet
                0x000000001fff9840        0x4 CMakeFiles/kiibohd.dir/Output/USB/arm/usb_serial.c.obj
 .bss.transmit_previous_timeout
                0x000000001fff9844        0x1 CMakeFiles/kiibohd.dir/Output/USB/arm/usb_serial.c.obj
 .bss.tx_noautoflush
                0x000000001fff9845        0x1 CMakeFiles/kiibohd.dir/Output/USB/arm/usb_serial.c.obj
 *fill*         0x000000001fff9846        0x2 
 .bss.tx_packet
                0x000000001fff9848        0x4 CMakeFiles/kiibohd.dir/Output/USB/arm/usb_serial.c.obj
 .bss.usb_cdc_line_rtsdtr
                0x000000001fff984c        0x1 CMakeFiles/kiibohd.dir/Output/USB/arm/usb_serial.c.obj
                0x000000001fff984c                usb_cdc_line_rtsdtr
 .bss.usb_cdc_transmit_flush_timer
                0x000000001fff984d        0x1 CMakeFiles/kiibohd.dir/Output/USB/arm/usb_serial.c.obj
                0x000000001fff984d                usb_cdc_transmit_flush_timer
 *fill*         0x000000001fff984e        0x2 
 .bss.latency_measurements
                0x000000001fff9850      0x168 CMakeFiles/kiibohd.dir/Debug/latency/latency.c.obj
 .bss.latency_resources
                0x000000001fff99b8        0x1 CMakeFiles/kiibohd.dir/Debug/latency/latency.c.obj
 *(COMMON)
 *fill*         0x000000001fff99b9        0x3 
 COMMON         0x000000001fff99bc      0x4a9 CMakeFiles/kiibohd.dir/main.c.obj
                0x000000001fff99bc                CLIHexDebugMode
                0x000000001fff99bd                CLIHistoryCurrent
                0x000000001fff99be                CLILEDState
                0x000000001fff99bf                CLIDictionariesUsed
                0x000000001fff99c0                CLIHistoryBuffer
                0x000000001fff9da8                CLILineBuffer
                0x000000001fff9e0d                CLIHistoryHead
                0x000000001fff9e10                CLIDict
                0x000000001fff9e38                CLIHistoryTail
                0x000000001fff9e3c                CLIDictNames
                0x000000001fff9e64                CLILineBufferCurrent
 *fill*         0x000000001fff9e65        0x3 
 COMMON         0x000000001fff9e68       0x45 CMakeFiles/kiibohd.dir/Lib/entropy.c.obj
                0x000000001fff9e68                gWDT_entropy_pool
                0x000000001fff9e88                gWDT_buffer_position
                0x000000001fff9e89                gWDT_buffer
                0x000000001fff9ea9                gWDT_pool_count
                0x000000001fff9eaa                gWDT_pool_start
                0x000000001fff9eab                gWDT_pool_end
                0x000000001fff9eac                gWDT_loop_counter
 *fill*         0x000000001fff9ead        0x3 
 COMMON         0x000000001fff9eb0       0x20 CMakeFiles/kiibohd.dir/Scan/Devices/ISSILed/i2c.c.obj
                0x000000001fff9eb0                i2c_channels
 COMMON         0x000000001fff9ed0      0x139 CMakeFiles/kiibohd.dir/Scan/Devices/ISSILed/led_scan.c.obj
                0x000000001fff9ed0                LED_framerate
                0x000000001fff9ed4                LED_chipSend
                0x000000001fff9ed5                LED_pause
                0x000000001fff9ed6                LED_enable_current
                0x000000001fff9ed7                LED_displayFPS
                0x000000001fff9ed8                LED_pageBuffer_brightness
                0x000000001fff9ffc                LED_brightness
                0x000000001fffa000                LED_timePrev
                0x000000001fffa008                LED_enable
 *fill*         0x000000001fffa009        0x1 
 COMMON         0x000000001fffa00a      0x236 CMakeFiles/kiibohd.dir/Scan/Devices/UARTConnect/connect_scan.c.obj
                0x000000001fffa00a                uart_tx_buf
                0x000000001fffa110                Connect_receive_RemoteCapabilityBuffer
                0x000000001fffa116                uart_tx_status
                0x000000001fffa11a                Connect_receive_RemoteCapabilityArgs
                0x000000001fffa134                uart_rx_status
                0x000000001fffa13c                uart_rx_buf
 COMMON         0x000000001fffa240       0xba CMakeFiles/kiibohd.dir/Macro/PartialMap/layer.c.obj
                0x000000001fffa240                Layer_rotationLayer
                0x000000001fffa242                layerDebugMode
                0x000000001fffa244                macroTriggerEventLayerCache
 COMMON         0x000000001fffa2fa      0x4e6 CMakeFiles/kiibohd.dir/Macro/PartialMap/macro.c.obj
                0x000000001fffa2fa                triggerPendingDebugMode
                0x000000001fffa2fb                macroPauseMode
                0x000000001fffa2fc                macroTriggerEventBufferSize
                0x000000001fffa2fe                voteDebugMode
                0x000000001fffa2ff                LayerState
                0x000000001fffa302                macroTriggerEventBuffer
                0x000000001fffa414                macroStepCounter
                0x000000001fffa416                macroDebugMode
                0x000000001fffa417                macroInterconnectCache
                0x000000001fffa528                TriggerMacroRecordList
 COMMON         0x000000001fffa7e0      0x2dc CMakeFiles/kiibohd.dir/Macro/PartialMap/result.c.obj
                0x000000001fffa7e0                macroResultDelayedCapabilities
                0x000000001fffa85c                capDebugMode
                0x000000001fffa860                macroResultMacroPendingList
 COMMON         0x000000001fffaabc      0x199 CMakeFiles/kiibohd.dir/Macro/PixelMap/pixel.c.obj
                0x000000001fffaabc                Pixel_AnimationStack
                0x000000001fffab10                Pixel_animationControl
                0x000000001fffab11                Pixel_FrameState
                0x000000001fffab14                Pixel_AnimationElement_Stor
                0x000000001fffac54                Pixel_testMode
 *fill*         0x000000001fffac55        0x1 
 COMMON         0x000000001fffac56      0x244 CMakeFiles/kiibohd.dir/generatedPixelmap.c.obj
                0x000000001fffac56                KLL_pageBuffer
                0x000000001fffad76                LED_pageBuffer
 *fill*         0x000000001fffae9a        0x2 
 COMMON         0x000000001fffae9c      0x3e6 CMakeFiles/kiibohd.dir/Output/HID-IO/hidio_com.c.obj
                0x000000001fffae9c                HIDIO_ack_buf_data
                0x000000001fffaeec                HIDIO_Id_List_Size
                0x000000001fffaef0                HIDIO_Packet_Size
                0x000000001fffaef2                HIDIO_assembly_buf_data
                0x000000001fffafc4                HIDIO_ack_buf
                0x000000001fffafc8                HIDIO_ack_send_data
                0x000000001fffb098                HIDIO_ack_send_buf
                0x000000001fffb0a8                HIDIO_Id_List
                0x000000001fffb198                HIDIO_assembly_buf
                0x000000001fffb1a8                HIDIO_tx_buf
                0x000000001fffb1b8                HIDIO_tx_buf_data
 COMMON         0x000000001fffb282        0x8 CMakeFiles/kiibohd.dir/Output/Interface/output_gen.c.obj
                0x000000001fffb282                Output_DebugMode
                0x000000001fffb284                Output_ExtCurrent_Available
                0x000000001fffb286                Output_Available
                0x000000001fffb288                Output_USBCurrent_Available
 *fill*         0x000000001fffb28a        0x2 
 COMMON         0x000000001fffb28c       0x68 CMakeFiles/kiibohd.dir/Output/USB/output_usb.c.obj
                0x000000001fffb28c                USBKeys_Idle_Count
                0x000000001fffb28d                USBMouse_Changed
                0x000000001fffb290                USBInit_TimeEnd
                0x000000001fffb294                USBMouse_Buttons
                0x000000001fffb296                USBMouse_VertWheel
                0x000000001fffb298                USBMouse_Relative_y
                0x000000001fffb29a                USBInit_Ticks
                0x000000001fffb29c                USBKeys_idle
                0x000000001fffb2be                USBDev_Address
                0x000000001fffb2bf                USBKeys_Sent
                0x000000001fffb2c0                USBKeys_LEDs_prev
                0x000000001fffb2c2                USBKeys_primary
                0x000000001fffb2e4                USBMouse_Relative_x
                0x000000001fffb2e6                USBMouse_HoriWheel
                0x000000001fffb2e7                USBKeys_LEDs
                0x000000001fffb2e8                USBKeys_Idle_Expiry
                0x000000001fffb2ec                USBKeys_Protocol_Change
                0x000000001fffb2f0                USBInit_TimeStart
 COMMON         0x000000001fffb2f4       0x14 CMakeFiles/kiibohd.dir/Output/USB/arm/usb_dev.c.obj
                0x000000001fffb2f4                usb_rx_byte_count_data
                0x000000001fffb308                . = ALIGN (0x4)
                0x000000001fffb308                _ebss = .
                0x000000001fffb308                __bss_end = .
                0x0000000020008000                _estack = (ORIGIN (RAM) + LENGTH (RAM))
OUTPUT(kiibohd.elf elf32-littlearm)

.debug_info     0x0000000000000000    0x27e1d
 .debug_info    0x0000000000000000      0x64e CMakeFiles/kiibohd.dir/main.c.obj
 .debug_info    0x000000000000064e      0xa7e CMakeFiles/kiibohd.dir/Lib/kinetis.c.obj
 .debug_info    0x00000000000010cc      0x2ce CMakeFiles/kiibohd.dir/Lib/delay.c.obj
 .debug_info    0x000000000000139a      0x50b CMakeFiles/kiibohd.dir/Lib/entropy.c.obj
 .debug_info    0x00000000000018a5      0x362 CMakeFiles/kiibohd.dir/Lib/gpio.c.obj
 .debug_info    0x0000000000001c07      0x372 CMakeFiles/kiibohd.dir/Lib/periodic.c.obj
 .debug_info    0x0000000000001f79      0xe60 CMakeFiles/kiibohd.dir/Lib/time.c.obj
 .debug_info    0x0000000000002dd9      0xb50 CMakeFiles/kiibohd.dir/Scan/Devices/ISSILed/i2c.c.obj
 .debug_info    0x0000000000003929     0x2340 CMakeFiles/kiibohd.dir/Scan/Devices/ISSILed/led_scan.c.obj
 .debug_info    0x0000000000005c69     0x163e CMakeFiles/kiibohd.dir/Scan/Devices/MatrixARMPeriodic/matrix_scan.c.obj
 .debug_info    0x00000000000072a7     0x1923 CMakeFiles/kiibohd.dir/Scan/Devices/STLcd/lcd_scan.c.obj
 .debug_info    0x0000000000008bca     0x2e22 CMakeFiles/kiibohd.dir/Scan/Devices/UARTConnect/connect_scan.c.obj
 .debug_info    0x000000000000b9ec      0xc01 CMakeFiles/kiibohd.dir/Scan/Infinity_Ergodox/scan_loop.c.obj
 .debug_info    0x000000000000c5ed      0x535 CMakeFiles/kiibohd.dir/Macro/PartialMap/kll.c.obj
 .debug_info    0x000000000000cb22     0x1569 CMakeFiles/kiibohd.dir/Macro/PartialMap/layer.c.obj
 .debug_info    0x000000000000e08b     0x57a2 CMakeFiles/kiibohd.dir/Macro/PartialMap/macro.c.obj
 .debug_info    0x000000000001382d      0xdc6 CMakeFiles/kiibohd.dir/Macro/PartialMap/result.c.obj
 .debug_info    0x00000000000145f3     0x12b1 CMakeFiles/kiibohd.dir/Macro/PartialMap/trigger.c.obj
 .debug_info    0x00000000000158a4     0x3bdb CMakeFiles/kiibohd.dir/Macro/PixelMap/pixel.c.obj
 .debug_info    0x000000000001947f      0xa88 CMakeFiles/kiibohd.dir/generatedPixelmap.c.obj
 .debug_info    0x0000000000019f07     0x2203 CMakeFiles/kiibohd.dir/Output/HID-IO/hidio_com.c.obj
 .debug_info    0x000000000001c10a      0x9e0 CMakeFiles/kiibohd.dir/Output/Interface/output_gen.c.obj
 .debug_info    0x000000000001caea      0x637 CMakeFiles/kiibohd.dir/Output/USB/output_com.c.obj
 .debug_info    0x000000000001d121     0x1d20 CMakeFiles/kiibohd.dir/Output/USB/output_usb.c.obj
 .debug_info    0x000000000001ee41      0x653 CMakeFiles/kiibohd.dir/Output/USB/arm/usb_desc.c.obj
 .debug_info    0x000000000001f494     0x1406 CMakeFiles/kiibohd.dir/Output/USB/arm/usb_dev.c.obj
 .debug_info    0x000000000002089a     0x1036 CMakeFiles/kiibohd.dir/Output/USB/arm/usb_keyboard.c.obj
 .debug_info    0x00000000000218d0      0x340 CMakeFiles/kiibohd.dir/Output/USB/arm/usb_mem.c.obj
 .debug_info    0x0000000000021c10      0xdf9 CMakeFiles/kiibohd.dir/Output/USB/arm/usb_mouse.c.obj
 .debug_info    0x0000000000022a09      0xf7c CMakeFiles/kiibohd.dir/Output/USB/arm/usb_rawio.c.obj
 .debug_info    0x0000000000023985      0xfb9 CMakeFiles/kiibohd.dir/Output/USB/arm/usb_serial.c.obj
 .debug_info    0x000000000002493e     0x1fc1 CMakeFiles/kiibohd.dir/Debug/cli/cli.c.obj
 .debug_info    0x00000000000268ff      0x6e0 CMakeFiles/kiibohd.dir/Debug/latency/latency.c.obj
 .debug_info    0x0000000000026fdf      0x36e CMakeFiles/kiibohd.dir/Debug/led/led.c.obj
 .debug_info    0x000000000002734d      0xad0 CMakeFiles/kiibohd.dir/Debug/print/print.c.obj

.debug_abbrev   0x0000000000000000     0x596e
 .debug_abbrev  0x0000000000000000      0x16e CMakeFiles/kiibohd.dir/main.c.obj
 .debug_abbrev  0x000000000000016e      0x226 CMakeFiles/kiibohd.dir/Lib/kinetis.c.obj
 .debug_abbrev  0x0000000000000394      0x168 CMakeFiles/kiibohd.dir/Lib/delay.c.obj
 .debug_abbrev  0x00000000000004fc      0x1ea CMakeFiles/kiibohd.dir/Lib/entropy.c.obj
 .debug_abbrev  0x00000000000006e6      0x10f CMakeFiles/kiibohd.dir/Lib/gpio.c.obj
 .debug_abbrev  0x00000000000007f5      0x133 CMakeFiles/kiibohd.dir/Lib/periodic.c.obj
 .debug_abbrev  0x0000000000000928      0x312 CMakeFiles/kiibohd.dir/Lib/time.c.obj
 .debug_abbrev  0x0000000000000c3a      0x2ff CMakeFiles/kiibohd.dir/Scan/Devices/ISSILed/i2c.c.obj
 .debug_abbrev  0x0000000000000f39      0x3c6 CMakeFiles/kiibohd.dir/Scan/Devices/ISSILed/led_scan.c.obj
 .debug_abbrev  0x00000000000012ff      0x27c CMakeFiles/kiibohd.dir/Scan/Devices/MatrixARMPeriodic/matrix_scan.c.obj
 .debug_abbrev  0x000000000000157b      0x3f2 CMakeFiles/kiibohd.dir/Scan/Devices/STLcd/lcd_scan.c.obj
 .debug_abbrev  0x000000000000196d      0x3f4 CMakeFiles/kiibohd.dir/Scan/Devices/UARTConnect/connect_scan.c.obj
 .debug_abbrev  0x0000000000001d61      0x266 CMakeFiles/kiibohd.dir/Scan/Infinity_Ergodox/scan_loop.c.obj
 .debug_abbrev  0x0000000000001fc7      0x120 CMakeFiles/kiibohd.dir/Macro/PartialMap/kll.c.obj
 .debug_abbrev  0x00000000000020e7      0x37d CMakeFiles/kiibohd.dir/Macro/PartialMap/layer.c.obj
 .debug_abbrev  0x0000000000002464      0x448 CMakeFiles/kiibohd.dir/Macro/PartialMap/macro.c.obj
 .debug_abbrev  0x00000000000028ac      0x2d9 CMakeFiles/kiibohd.dir/Macro/PartialMap/result.c.obj
 .debug_abbrev  0x0000000000002b85      0x34e CMakeFiles/kiibohd.dir/Macro/PartialMap/trigger.c.obj
 .debug_abbrev  0x0000000000002ed3      0x407 CMakeFiles/kiibohd.dir/Macro/PixelMap/pixel.c.obj
 .debug_abbrev  0x00000000000032da      0x18a CMakeFiles/kiibohd.dir/generatedPixelmap.c.obj
 .debug_abbrev  0x0000000000003464      0x3fa CMakeFiles/kiibohd.dir/Output/HID-IO/hidio_com.c.obj
 .debug_abbrev  0x000000000000385e      0x25b CMakeFiles/kiibohd.dir/Output/Interface/output_gen.c.obj
 .debug_abbrev  0x0000000000003ab9      0x162 CMakeFiles/kiibohd.dir/Output/USB/output_com.c.obj
 .debug_abbrev  0x0000000000003c1b      0x349 CMakeFiles/kiibohd.dir/Output/USB/output_usb.c.obj
 .debug_abbrev  0x0000000000003f64      0x142 CMakeFiles/kiibohd.dir/Output/USB/arm/usb_desc.c.obj
 .debug_abbrev  0x00000000000040a6      0x3ea CMakeFiles/kiibohd.dir/Output/USB/arm/usb_dev.c.obj
 .debug_abbrev  0x0000000000004490      0x287 CMakeFiles/kiibohd.dir/Output/USB/arm/usb_keyboard.c.obj
 .debug_abbrev  0x0000000000004717      0x185 CMakeFiles/kiibohd.dir/Output/USB/arm/usb_mem.c.obj
 .debug_abbrev  0x000000000000489c      0x242 CMakeFiles/kiibohd.dir/Output/USB/arm/usb_mouse.c.obj
 .debug_abbrev  0x0000000000004ade      0x2b8 CMakeFiles/kiibohd.dir/Output/USB/arm/usb_rawio.c.obj
 .debug_abbrev  0x0000000000004d96      0x324 CMakeFiles/kiibohd.dir/Output/USB/arm/usb_serial.c.obj
 .debug_abbrev  0x00000000000050ba      0x377 CMakeFiles/kiibohd.dir/Debug/cli/cli.c.obj
 .debug_abbrev  0x0000000000005431      0x1b6 CMakeFiles/kiibohd.dir/Debug/latency/latency.c.obj
 .debug_abbrev  0x00000000000055e7      0x168 CMakeFiles/kiibohd.dir/Debug/led/led.c.obj
 .debug_abbrev  0x000000000000574f      0x21f CMakeFiles/kiibohd.dir/Debug/print/print.c.obj

.debug_aranges  0x0000000000000000     0x11a8
 .debug_aranges
                0x0000000000000000       0x28 CMakeFiles/kiibohd.dir/main.c.obj
 .debug_aranges
                0x0000000000000028       0x98 CMakeFiles/kiibohd.dir/Lib/kinetis.c.obj
 .debug_aranges
                0x00000000000000c0       0x50 CMakeFiles/kiibohd.dir/Lib/delay.c.obj
 .debug_aranges
                0x0000000000000110       0x40 CMakeFiles/kiibohd.dir/Lib/entropy.c.obj
 .debug_aranges
                0x0000000000000150       0x20 CMakeFiles/kiibohd.dir/Lib/gpio.c.obj
 .debug_aranges
                0x0000000000000170       0x48 CMakeFiles/kiibohd.dir/Lib/periodic.c.obj
 .debug_aranges
                0x00000000000001b8      0x110 CMakeFiles/kiibohd.dir/Lib/time.c.obj
 .debug_aranges
                0x00000000000002c8       0x68 CMakeFiles/kiibohd.dir/Scan/Devices/ISSILed/i2c.c.obj
 .debug_aranges
                0x0000000000000330       0xc0 CMakeFiles/kiibohd.dir/Scan/Devices/ISSILed/led_scan.c.obj
 .debug_aranges
                0x00000000000003f0       0x70 CMakeFiles/kiibohd.dir/Scan/Devices/MatrixARMPeriodic/matrix_scan.c.obj
 .debug_aranges
                0x0000000000000460       0xb0 CMakeFiles/kiibohd.dir/Scan/Devices/STLcd/lcd_scan.c.obj
 .debug_aranges
                0x0000000000000510      0x118 CMakeFiles/kiibohd.dir/Scan/Devices/UARTConnect/connect_scan.c.obj
 .debug_aranges
                0x0000000000000628       0x40 CMakeFiles/kiibohd.dir/Scan/Infinity_Ergodox/scan_loop.c.obj
 .debug_aranges
                0x0000000000000668       0x28 CMakeFiles/kiibohd.dir/Macro/PartialMap/kll.c.obj
 .debug_aranges
                0x0000000000000690       0x68 CMakeFiles/kiibohd.dir/Macro/PartialMap/layer.c.obj
 .debug_aranges
                0x00000000000006f8      0x150 CMakeFiles/kiibohd.dir/Macro/PartialMap/macro.c.obj
 .debug_aranges
                0x0000000000000848       0x48 CMakeFiles/kiibohd.dir/Macro/PartialMap/result.c.obj
 .debug_aranges
                0x0000000000000890       0x88 CMakeFiles/kiibohd.dir/Macro/PartialMap/trigger.c.obj
 .debug_aranges
                0x0000000000000918      0x198 CMakeFiles/kiibohd.dir/Macro/PixelMap/pixel.c.obj
 .debug_aranges
                0x0000000000000ab0       0x18 CMakeFiles/kiibohd.dir/generatedPixelmap.c.obj
 .debug_aranges
                0x0000000000000ac8      0x100 CMakeFiles/kiibohd.dir/Output/HID-IO/hidio_com.c.obj
 .debug_aranges
                0x0000000000000bc8       0x58 CMakeFiles/kiibohd.dir/Output/Interface/output_gen.c.obj
 .debug_aranges
                0x0000000000000c20       0x78 CMakeFiles/kiibohd.dir/Output/USB/output_com.c.obj
 .debug_aranges
                0x0000000000000c98      0x128 CMakeFiles/kiibohd.dir/Output/USB/output_usb.c.obj
 .debug_aranges
                0x0000000000000dc0       0x20 CMakeFiles/kiibohd.dir/Output/USB/arm/usb_desc.c.obj
 .debug_aranges
                0x0000000000000de0       0xa8 CMakeFiles/kiibohd.dir/Output/USB/arm/usb_dev.c.obj
 .debug_aranges
                0x0000000000000e88       0x30 CMakeFiles/kiibohd.dir/Output/USB/arm/usb_keyboard.c.obj
 .debug_aranges
                0x0000000000000eb8       0x28 CMakeFiles/kiibohd.dir/Output/USB/arm/usb_mem.c.obj
 .debug_aranges
                0x0000000000000ee0       0x20 CMakeFiles/kiibohd.dir/Output/USB/arm/usb_mouse.c.obj
 .debug_aranges
                0x0000000000000f00       0x30 CMakeFiles/kiibohd.dir/Output/USB/arm/usb_rawio.c.obj
 .debug_aranges
                0x0000000000000f30       0x60 CMakeFiles/kiibohd.dir/Output/USB/arm/usb_serial.c.obj
 .debug_aranges
                0x0000000000000f90       0xf0 CMakeFiles/kiibohd.dir/Debug/cli/cli.c.obj
 .debug_aranges
                0x0000000000001080       0x50 CMakeFiles/kiibohd.dir/Debug/latency/latency.c.obj
 .debug_aranges
                0x00000000000010d0       0x30 CMakeFiles/kiibohd.dir/Debug/led/led.c.obj
 .debug_aranges
                0x0000000000001100       0xa8 CMakeFiles/kiibohd.dir/Debug/print/print.c.obj

.debug_ranges   0x0000000000000000     0x27c0
 .debug_ranges  0x0000000000000000       0x18 CMakeFiles/kiibohd.dir/main.c.obj
 .debug_ranges  0x0000000000000018       0x88 CMakeFiles/kiibohd.dir/Lib/kinetis.c.obj
 .debug_ranges  0x00000000000000a0       0x70 CMakeFiles/kiibohd.dir/Lib/delay.c.obj
 .debug_ranges  0x0000000000000110       0x58 CMakeFiles/kiibohd.dir/Lib/entropy.c.obj
 .debug_ranges  0x0000000000000168       0x10 CMakeFiles/kiibohd.dir/Lib/gpio.c.obj
 .debug_ranges  0x0000000000000178       0x38 CMakeFiles/kiibohd.dir/Lib/periodic.c.obj
 .debug_ranges  0x00000000000001b0      0x130 CMakeFiles/kiibohd.dir/Lib/time.c.obj
 .debug_ranges  0x00000000000002e0       0x70 CMakeFiles/kiibohd.dir/Scan/Devices/ISSILed/i2c.c.obj
 .debug_ranges  0x0000000000000350      0x168 CMakeFiles/kiibohd.dir/Scan/Devices/ISSILed/led_scan.c.obj
 .debug_ranges  0x00000000000004b8      0x108 CMakeFiles/kiibohd.dir/Scan/Devices/MatrixARMPeriodic/matrix_scan.c.obj
 .debug_ranges  0x00000000000005c0      0x1a8 CMakeFiles/kiibohd.dir/Scan/Devices/STLcd/lcd_scan.c.obj
 .debug_ranges  0x0000000000000768      0x2f8 CMakeFiles/kiibohd.dir/Scan/Devices/UARTConnect/connect_scan.c.obj
 .debug_ranges  0x0000000000000a60       0x30 CMakeFiles/kiibohd.dir/Scan/Infinity_Ergodox/scan_loop.c.obj
 .debug_ranges  0x0000000000000a90       0x18 CMakeFiles/kiibohd.dir/Macro/PartialMap/kll.c.obj
 .debug_ranges  0x0000000000000aa8      0x208 CMakeFiles/kiibohd.dir/Macro/PartialMap/layer.c.obj
 .debug_ranges  0x0000000000000cb0      0x3e8 CMakeFiles/kiibohd.dir/Macro/PartialMap/macro.c.obj
 .debug_ranges  0x0000000000001098      0x120 CMakeFiles/kiibohd.dir/Macro/PartialMap/result.c.obj
 .debug_ranges  0x00000000000011b8      0x240 CMakeFiles/kiibohd.dir/Macro/PartialMap/trigger.c.obj
 .debug_ranges  0x00000000000013f8      0x730 CMakeFiles/kiibohd.dir/Macro/PixelMap/pixel.c.obj
 .debug_ranges  0x0000000000001b28      0x308 CMakeFiles/kiibohd.dir/Output/HID-IO/hidio_com.c.obj
 .debug_ranges  0x0000000000001e30       0x60 CMakeFiles/kiibohd.dir/Output/Interface/output_gen.c.obj
 .debug_ranges  0x0000000000001e90       0x68 CMakeFiles/kiibohd.dir/Output/USB/output_com.c.obj
 .debug_ranges  0x0000000000001ef8      0x240 CMakeFiles/kiibohd.dir/Output/USB/output_usb.c.obj
 .debug_ranges  0x0000000000002138       0x10 CMakeFiles/kiibohd.dir/Output/USB/arm/usb_desc.c.obj
 .debug_ranges  0x0000000000002148      0x200 CMakeFiles/kiibohd.dir/Output/USB/arm/usb_dev.c.obj
 .debug_ranges  0x0000000000002348       0x20 CMakeFiles/kiibohd.dir/Output/USB/arm/usb_keyboard.c.obj
 .debug_ranges  0x0000000000002368       0x18 CMakeFiles/kiibohd.dir/Output/USB/arm/usb_mem.c.obj
 .debug_ranges  0x0000000000002380       0x10 CMakeFiles/kiibohd.dir/Output/USB/arm/usb_mouse.c.obj
 .debug_ranges  0x0000000000002390       0x20 CMakeFiles/kiibohd.dir/Output/USB/arm/usb_rawio.c.obj
 .debug_ranges  0x00000000000023b0       0x70 CMakeFiles/kiibohd.dir/Output/USB/arm/usb_serial.c.obj
 .debug_ranges  0x0000000000002420      0x268 CMakeFiles/kiibohd.dir/Debug/cli/cli.c.obj
 .debug_ranges  0x0000000000002688       0x40 CMakeFiles/kiibohd.dir/Debug/latency/latency.c.obj
 .debug_ranges  0x00000000000026c8       0x20 CMakeFiles/kiibohd.dir/Debug/led/led.c.obj
 .debug_ranges  0x00000000000026e8       0xd8 CMakeFiles/kiibohd.dir/Debug/print/print.c.obj

.debug_macro    0x0000000000000000    0x12990
 .debug_macro   0x0000000000000000       0xdd CMakeFiles/kiibohd.dir/main.c.obj
 .debug_macro   0x00000000000000dd      0xa60 CMakeFiles/kiibohd.dir/main.c.obj
 .debug_macro   0x0000000000000b3d       0x28 CMakeFiles/kiibohd.dir/main.c.obj
 .debug_macro   0x0000000000000b65       0x1c CMakeFiles/kiibohd.dir/main.c.obj
 .debug_macro   0x0000000000000b81       0x22 CMakeFiles/kiibohd.dir/main.c.obj
 .debug_macro   0x0000000000000ba3       0x8e CMakeFiles/kiibohd.dir/main.c.obj
 .debug_macro   0x0000000000000c31       0x51 CMakeFiles/kiibohd.dir/main.c.obj
 .debug_macro   0x0000000000000c82       0xef CMakeFiles/kiibohd.dir/main.c.obj
 .debug_macro   0x0000000000000d71       0x6a CMakeFiles/kiibohd.dir/main.c.obj
 .debug_macro   0x0000000000000ddb      0x1df CMakeFiles/kiibohd.dir/main.c.obj
 .debug_macro   0x0000000000000fba     0x5add CMakeFiles/kiibohd.dir/main.c.obj
 .debug_macro   0x0000000000006a97       0x10 CMakeFiles/kiibohd.dir/main.c.obj
 .debug_macro   0x0000000000006aa7      0x2ea CMakeFiles/kiibohd.dir/main.c.obj
 .debug_macro   0x0000000000006d91       0xbe CMakeFiles/kiibohd.dir/main.c.obj
 .debug_macro   0x0000000000006e4f       0x10 CMakeFiles/kiibohd.dir/main.c.obj
 .debug_macro   0x0000000000006e5f       0x3a CMakeFiles/kiibohd.dir/main.c.obj
 .debug_macro   0x0000000000006e99       0x9a CMakeFiles/kiibohd.dir/main.c.obj
 .debug_macro   0x0000000000006f33       0x7c CMakeFiles/kiibohd.dir/main.c.obj
 .debug_macro   0x0000000000006faf       0xa1 CMakeFiles/kiibohd.dir/Lib/kinetis.c.obj
 .debug_macro   0x0000000000007050     0x5af5 CMakeFiles/kiibohd.dir/Lib/kinetis.c.obj
 .debug_macro   0x000000000000cb45       0x7e CMakeFiles/kiibohd.dir/Lib/delay.c.obj
 .debug_macro   0x000000000000cbc3       0x10 CMakeFiles/kiibohd.dir/Lib/delay.c.obj
 .debug_macro   0x000000000000cbd3       0xa0 CMakeFiles/kiibohd.dir/Lib/entropy.c.obj
 .debug_macro   0x000000000000cc73       0x28 CMakeFiles/kiibohd.dir/Lib/entropy.c.obj
 .debug_macro   0x000000000000cc9b       0x84 CMakeFiles/kiibohd.dir/Lib/gpio.c.obj
 .debug_macro   0x000000000000cd1f       0x83 CMakeFiles/kiibohd.dir/Lib/periodic.c.obj
 .debug_macro   0x000000000000cda2       0xc1 CMakeFiles/kiibohd.dir/Lib/time.c.obj
 .debug_macro   0x000000000000ce63      0x174 CMakeFiles/kiibohd.dir/Lib/time.c.obj
 .debug_macro   0x000000000000cfd7       0x16 CMakeFiles/kiibohd.dir/Lib/time.c.obj
 .debug_macro   0x000000000000cfed       0xd3 CMakeFiles/kiibohd.dir/Scan/Devices/ISSILed/i2c.c.obj
 .debug_macro   0x000000000000d0c0      0x2f1 CMakeFiles/kiibohd.dir/Scan/Devices/ISSILed/i2c.c.obj
 .debug_macro   0x000000000000d3b1       0xbe CMakeFiles/kiibohd.dir/Scan/Devices/ISSILed/i2c.c.obj
 .debug_macro   0x000000000000d46f       0x2e CMakeFiles/kiibohd.dir/Scan/Devices/ISSILed/i2c.c.obj
 .debug_macro   0x000000000000d49d      0x181 CMakeFiles/kiibohd.dir/Scan/Devices/ISSILed/led_scan.c.obj
 .debug_macro   0x000000000000d61e     0x133d CMakeFiles/kiibohd.dir/Scan/Devices/ISSILed/led_scan.c.obj
 .debug_macro   0x000000000000e95b       0x73 CMakeFiles/kiibohd.dir/Scan/Devices/ISSILed/led_scan.c.obj
 .debug_macro   0x000000000000e9ce       0x35 CMakeFiles/kiibohd.dir/Scan/Devices/ISSILed/led_scan.c.obj
 .debug_macro   0x000000000000ea03       0x28 CMakeFiles/kiibohd.dir/Scan/Devices/ISSILed/led_scan.c.obj
 .debug_macro   0x000000000000ea2b      0x11a CMakeFiles/kiibohd.dir/Scan/Devices/MatrixARMPeriodic/matrix_scan.c.obj
 .debug_macro   0x000000000000eb45       0x10 CMakeFiles/kiibohd.dir/Scan/Devices/MatrixARMPeriodic/matrix_scan.c.obj
 .debug_macro   0x000000000000eb55      0x110 CMakeFiles/kiibohd.dir/Scan/Devices/STLcd/lcd_scan.c.obj
 .debug_macro   0x000000000000ec65      0x132 CMakeFiles/kiibohd.dir/Scan/Devices/UARTConnect/connect_scan.c.obj
 .debug_macro   0x000000000000ed97      0x10a CMakeFiles/kiibohd.dir/Scan/Infinity_Ergodox/scan_loop.c.obj
 .debug_macro   0x000000000000eea1     0x1334 CMakeFiles/kiibohd.dir/Scan/Infinity_Ergodox/scan_loop.c.obj
 .debug_macro   0x00000000000101d5       0xb2 CMakeFiles/kiibohd.dir/Macro/PartialMap/kll.c.obj
 .debug_macro   0x0000000000010287       0xf4 CMakeFiles/kiibohd.dir/Macro/PartialMap/layer.c.obj
 .debug_macro   0x000000000001037b      0x11b CMakeFiles/kiibohd.dir/Macro/PartialMap/macro.c.obj
 .debug_macro   0x0000000000010496       0xe2 CMakeFiles/kiibohd.dir/Macro/PartialMap/result.c.obj
 .debug_macro   0x0000000000010578       0xe2 CMakeFiles/kiibohd.dir/Macro/PartialMap/trigger.c.obj
 .debug_macro   0x000000000001065a       0xff CMakeFiles/kiibohd.dir/Macro/PixelMap/pixel.c.obj
 .debug_macro   0x0000000000010759       0xbb CMakeFiles/kiibohd.dir/generatedPixelmap.c.obj
 .debug_macro   0x0000000000010814      0x10d CMakeFiles/kiibohd.dir/Output/HID-IO/hidio_com.c.obj
 .debug_macro   0x0000000000010921       0xe3 CMakeFiles/kiibohd.dir/Output/Interface/output_gen.c.obj
 .debug_macro   0x0000000000010a04       0xcd CMakeFiles/kiibohd.dir/Output/USB/output_com.c.obj
 .debug_macro   0x0000000000010ad1      0x18b CMakeFiles/kiibohd.dir/Output/USB/output_usb.c.obj
 .debug_macro   0x0000000000010c5c       0x22 CMakeFiles/kiibohd.dir/Output/USB/output_usb.c.obj
 .debug_macro   0x0000000000010c7e      0x219 CMakeFiles/kiibohd.dir/Output/USB/output_usb.c.obj
 .debug_macro   0x0000000000010e97       0x5e CMakeFiles/kiibohd.dir/Output/USB/output_usb.c.obj
 .debug_macro   0x0000000000010ef5       0x18 CMakeFiles/kiibohd.dir/Output/USB/output_usb.c.obj
 .debug_macro   0x0000000000010f0d       0x35 CMakeFiles/kiibohd.dir/Output/USB/output_usb.c.obj
 .debug_macro   0x0000000000010f42       0x3a CMakeFiles/kiibohd.dir/Output/USB/output_usb.c.obj
 .debug_macro   0x0000000000010f7c       0x35 CMakeFiles/kiibohd.dir/Output/USB/output_usb.c.obj
 .debug_macro   0x0000000000010fb1      0x4cc CMakeFiles/kiibohd.dir/Output/USB/output_usb.c.obj
 .debug_macro   0x000000000001147d       0x22 CMakeFiles/kiibohd.dir/Output/USB/output_usb.c.obj
 .debug_macro   0x000000000001149f      0x117 CMakeFiles/kiibohd.dir/Output/USB/arm/usb_desc.c.obj
 .debug_macro   0x00000000000115b6      0x215 CMakeFiles/kiibohd.dir/Output/USB/arm/usb_dev.c.obj
 .debug_macro   0x00000000000117cb      0x1b9 CMakeFiles/kiibohd.dir/Output/USB/arm/usb_keyboard.c.obj
 .debug_macro   0x0000000000011984       0x58 CMakeFiles/kiibohd.dir/Output/USB/arm/usb_keyboard.c.obj
 .debug_macro   0x00000000000119dc       0x94 CMakeFiles/kiibohd.dir/Output/USB/arm/usb_keyboard.c.obj
 .debug_macro   0x0000000000011a70       0x34 CMakeFiles/kiibohd.dir/Output/USB/arm/usb_keyboard.c.obj
 .debug_macro   0x0000000000011aa4       0x57 CMakeFiles/kiibohd.dir/Output/USB/arm/usb_keyboard.c.obj
 .debug_macro   0x0000000000011afb       0x58 CMakeFiles/kiibohd.dir/Output/USB/arm/usb_keyboard.c.obj
 .debug_macro   0x0000000000011b53       0x1f CMakeFiles/kiibohd.dir/Output/USB/arm/usb_keyboard.c.obj
 .debug_macro   0x0000000000011b72       0x43 CMakeFiles/kiibohd.dir/Output/USB/arm/usb_keyboard.c.obj
 .debug_macro   0x0000000000011bb5       0x20 CMakeFiles/kiibohd.dir/Output/USB/arm/usb_keyboard.c.obj
 .debug_macro   0x0000000000011bd5      0x18e CMakeFiles/kiibohd.dir/Output/USB/arm/usb_keyboard.c.obj
 .debug_macro   0x0000000000011d63      0x330 CMakeFiles/kiibohd.dir/Output/USB/arm/usb_keyboard.c.obj
 .debug_macro   0x0000000000012093       0x10 CMakeFiles/kiibohd.dir/Output/USB/arm/usb_keyboard.c.obj
 .debug_macro   0x00000000000120a3       0x10 CMakeFiles/kiibohd.dir/Output/USB/arm/usb_keyboard.c.obj
 .debug_macro   0x00000000000120b3       0xb4 CMakeFiles/kiibohd.dir/Output/USB/arm/usb_mem.c.obj
 .debug_macro   0x0000000000012167      0x1b9 CMakeFiles/kiibohd.dir/Output/USB/arm/usb_mouse.c.obj
 .debug_macro   0x0000000000012320      0x19c CMakeFiles/kiibohd.dir/Output/USB/arm/usb_rawio.c.obj
 .debug_macro   0x00000000000124bc      0x1a5 CMakeFiles/kiibohd.dir/Output/USB/arm/usb_serial.c.obj
 .debug_macro   0x0000000000012661       0xcc CMakeFiles/kiibohd.dir/Debug/cli/cli.c.obj
 .debug_macro   0x000000000001272d       0xcc CMakeFiles/kiibohd.dir/Debug/latency/latency.c.obj
 .debug_macro   0x00000000000127f9       0xa2 CMakeFiles/kiibohd.dir/Debug/led/led.c.obj
 .debug_macro   0x000000000001289b       0x9d CMakeFiles/kiibohd.dir/Debug/print/print.c.obj
 .debug_macro   0x0000000000012938       0x58 CMakeFiles/kiibohd.dir/Debug/print/print.c.obj

.debug_line     0x0000000000000000    0x103ba
 .debug_line    0x0000000000000000      0x684 CMakeFiles/kiibohd.dir/main.c.obj
 .debug_line    0x0000000000000684      0x63c CMakeFiles/kiibohd.dir/Lib/kinetis.c.obj
 .debug_line    0x0000000000000cc0      0x320 CMakeFiles/kiibohd.dir/Lib/delay.c.obj
 .debug_line    0x0000000000000fe0      0x323 CMakeFiles/kiibohd.dir/Lib/entropy.c.obj
 .debug_line    0x0000000000001303      0x2a6 CMakeFiles/kiibohd.dir/Lib/gpio.c.obj
 .debug_line    0x00000000000015a9      0x2d4 CMakeFiles/kiibohd.dir/Lib/periodic.c.obj
 .debug_line    0x000000000000187d      0x70c CMakeFiles/kiibohd.dir/Lib/time.c.obj
 .debug_line    0x0000000000001f89      0x616 CMakeFiles/kiibohd.dir/Scan/Devices/ISSILed/i2c.c.obj
 .debug_line    0x000000000000259f      0xaaa CMakeFiles/kiibohd.dir/Scan/Devices/ISSILed/led_scan.c.obj
 .debug_line    0x0000000000003049      0x942 CMakeFiles/kiibohd.dir/Scan/Devices/MatrixARMPeriodic/matrix_scan.c.obj
 .debug_line    0x000000000000398b      0x9fe CMakeFiles/kiibohd.dir/Scan/Devices/STLcd/lcd_scan.c.obj
 .debug_line    0x0000000000004389      0xeb0 CMakeFiles/kiibohd.dir/Scan/Devices/UARTConnect/connect_scan.c.obj
 .debug_line    0x0000000000005239      0x805 CMakeFiles/kiibohd.dir/Scan/Infinity_Ergodox/scan_loop.c.obj
 .debug_line    0x0000000000005a3e      0x51d CMakeFiles/kiibohd.dir/Macro/PartialMap/kll.c.obj
 .debug_line    0x0000000000005f5b      0x841 CMakeFiles/kiibohd.dir/Macro/PartialMap/layer.c.obj
 .debug_line    0x000000000000679c      0xe39 CMakeFiles/kiibohd.dir/Macro/PartialMap/macro.c.obj
 .debug_line    0x00000000000075d5      0x6f5 CMakeFiles/kiibohd.dir/Macro/PartialMap/result.c.obj
 .debug_line    0x0000000000007cca      0x8dc CMakeFiles/kiibohd.dir/Macro/PartialMap/trigger.c.obj
 .debug_line    0x00000000000085a6     0x1356 CMakeFiles/kiibohd.dir/Macro/PixelMap/pixel.c.obj
 .debug_line    0x00000000000098fc      0x519 CMakeFiles/kiibohd.dir/generatedPixelmap.c.obj
 .debug_line    0x0000000000009e15      0xb47 CMakeFiles/kiibohd.dir/Output/HID-IO/hidio_com.c.obj
 .debug_line    0x000000000000a95c      0x61f CMakeFiles/kiibohd.dir/Output/Interface/output_gen.c.obj
 .debug_line    0x000000000000af7b      0x5ce CMakeFiles/kiibohd.dir/Output/USB/output_com.c.obj
 .debug_line    0x000000000000b549      0xc74 CMakeFiles/kiibohd.dir/Output/USB/output_usb.c.obj
 .debug_line    0x000000000000c1bd      0x3c1 CMakeFiles/kiibohd.dir/Output/USB/arm/usb_desc.c.obj
 .debug_line    0x000000000000c57e      0xa25 CMakeFiles/kiibohd.dir/Output/USB/arm/usb_dev.c.obj
 .debug_line    0x000000000000cfa3      0x638 CMakeFiles/kiibohd.dir/Output/USB/arm/usb_keyboard.c.obj
 .debug_line    0x000000000000d5db      0x348 CMakeFiles/kiibohd.dir/Output/USB/arm/usb_mem.c.obj
 .debug_line    0x000000000000d923      0x5aa CMakeFiles/kiibohd.dir/Output/USB/arm/usb_mouse.c.obj
 .debug_line    0x000000000000decd      0x5d2 CMakeFiles/kiibohd.dir/Output/USB/arm/usb_rawio.c.obj
 .debug_line    0x000000000000e49f      0x59f CMakeFiles/kiibohd.dir/Output/USB/arm/usb_serial.c.obj
 .debug_line    0x000000000000ea3e      0x98c CMakeFiles/kiibohd.dir/Debug/cli/cli.c.obj
 .debug_line    0x000000000000f3ca      0x602 CMakeFiles/kiibohd.dir/Debug/latency/latency.c.obj
 .debug_line    0x000000000000f9cc      0x37f CMakeFiles/kiibohd.dir/Debug/led/led.c.obj
 .debug_line    0x000000000000fd4b      0x66f CMakeFiles/kiibohd.dir/Debug/print/print.c.obj

.debug_str      0x0000000000000000    0x3c131
 .debug_str     0x0000000000000000    0x28c27 CMakeFiles/kiibohd.dir/main.c.obj
                                      0x28dc6 (size before relaxing)
 .debug_str     0x0000000000028c27      0x21d CMakeFiles/kiibohd.dir/Lib/kinetis.c.obj
                                      0x2892b (size before relaxing)
 .debug_str     0x0000000000028e44       0xcf CMakeFiles/kiibohd.dir/Lib/delay.c.obj
                                      0x242a8 (size before relaxing)
 .debug_str     0x0000000000028f13      0x6c3 CMakeFiles/kiibohd.dir/Lib/entropy.c.obj
                                      0x248f1 (size before relaxing)
 .debug_str     0x00000000000295d6      0x386 CMakeFiles/kiibohd.dir/Lib/gpio.c.obj
                                      0x24555 (size before relaxing)
 .debug_str     0x000000000002995c       0xa5 CMakeFiles/kiibohd.dir/Lib/periodic.c.obj
                                      0x24856 (size before relaxing)
 .debug_str     0x0000000000029a01      0x506 CMakeFiles/kiibohd.dir/Lib/time.c.obj
                                      0x28d6f (size before relaxing)
 .debug_str     0x0000000000029f07      0x505 CMakeFiles/kiibohd.dir/Scan/Devices/ISSILed/i2c.c.obj
                                      0x28f16 (size before relaxing)
 .debug_str     0x000000000002a40c     0x5a9a CMakeFiles/kiibohd.dir/Scan/Devices/ISSILed/led_scan.c.obj
                                      0x2eb5f (size before relaxing)
 .debug_str     0x000000000002fea6      0x6c6 CMakeFiles/kiibohd.dir/Scan/Devices/MatrixARMPeriodic/matrix_scan.c.obj
                                      0x2ddbc (size before relaxing)
 .debug_str     0x000000000003056c      0x40a CMakeFiles/kiibohd.dir/Scan/Devices/STLcd/lcd_scan.c.obj
                                      0x2dd46 (size before relaxing)
 .debug_str     0x0000000000030976      0xf15 CMakeFiles/kiibohd.dir/Scan/Devices/UARTConnect/connect_scan.c.obj
                                      0x2e9d2 (size before relaxing)
 .debug_str     0x000000000003188b       0xc7 CMakeFiles/kiibohd.dir/Scan/Infinity_Ergodox/scan_loop.c.obj
                                      0x2d9c3 (size before relaxing)
 .debug_str     0x0000000000031952      0x1a5 CMakeFiles/kiibohd.dir/Macro/PartialMap/kll.c.obj
                                       0xce2e (size before relaxing)
 .debug_str     0x0000000000031af7      0x258 CMakeFiles/kiibohd.dir/Macro/PartialMap/layer.c.obj
                                      0x2d9ee (size before relaxing)
 .debug_str     0x0000000000031d4f     0x1fa8 CMakeFiles/kiibohd.dir/Macro/PartialMap/macro.c.obj
                                      0x30057 (size before relaxing)
 .debug_str     0x0000000000033cf7      0x1dd CMakeFiles/kiibohd.dir/Macro/PartialMap/result.c.obj
                                      0x2d6ec (size before relaxing)
 .debug_str     0x0000000000033ed4      0x3b5 CMakeFiles/kiibohd.dir/Macro/PartialMap/trigger.c.obj
                                      0x2d9b0 (size before relaxing)
 .debug_str     0x0000000000034289      0xc87 CMakeFiles/kiibohd.dir/Macro/PixelMap/pixel.c.obj
                                      0x2e9c5 (size before relaxing)
 .debug_str     0x0000000000034f10      0x105 CMakeFiles/kiibohd.dir/generatedPixelmap.c.obj
                                       0xd341 (size before relaxing)
 .debug_str     0x0000000000035015      0x713 CMakeFiles/kiibohd.dir/Output/HID-IO/hidio_com.c.obj
                                      0x2daae (size before relaxing)
 .debug_str     0x0000000000035728      0x178 CMakeFiles/kiibohd.dir/Output/Interface/output_gen.c.obj
                                      0x2d35f (size before relaxing)
 .debug_str     0x00000000000358a0      0x153 CMakeFiles/kiibohd.dir/Output/USB/output_com.c.obj
                                      0x2d01d (size before relaxing)
 .debug_str     0x00000000000359f3     0x2798 CMakeFiles/kiibohd.dir/Output/USB/output_usb.c.obj
                                      0x30146 (size before relaxing)
 .debug_str     0x000000000003818b      0x675 CMakeFiles/kiibohd.dir/Output/USB/arm/usb_desc.c.obj
                                       0x9279 (size before relaxing)
 .debug_str     0x0000000000038800      0x5d6 CMakeFiles/kiibohd.dir/Output/USB/arm/usb_dev.c.obj
                                      0x2b6ce (size before relaxing)
 .debug_str     0x0000000000038dd6     0x28bd CMakeFiles/kiibohd.dir/Output/USB/arm/usb_keyboard.c.obj
                                      0x2d5dc (size before relaxing)
 .debug_str     0x000000000003b693       0x86 CMakeFiles/kiibohd.dir/Output/USB/arm/usb_mem.c.obj
                                      0x25103 (size before relaxing)
 .debug_str     0x000000000003b719       0x8a CMakeFiles/kiibohd.dir/Output/USB/arm/usb_mouse.c.obj
                                      0x2d536 (size before relaxing)
 .debug_str     0x000000000003b7a3       0x89 CMakeFiles/kiibohd.dir/Output/USB/arm/usb_rawio.c.obj
                                      0x2c375 (size before relaxing)
 .debug_str     0x000000000003b82c       0xfa CMakeFiles/kiibohd.dir/Output/USB/arm/usb_serial.c.obj
                                      0x2c918 (size before relaxing)
 .debug_str     0x000000000003b926      0x4fa CMakeFiles/kiibohd.dir/Debug/cli/cli.c.obj
                                      0x2915e (size before relaxing)
 .debug_str     0x000000000003be20       0xd8 CMakeFiles/kiibohd.dir/Debug/latency/latency.c.obj
                                      0x2d09d (size before relaxing)
 .debug_str     0x000000000003bef8       0x67 CMakeFiles/kiibohd.dir/Debug/led/led.c.obj
                                      0x27dc5 (size before relaxing)
 .debug_str     0x000000000003bf5f      0x1d2 CMakeFiles/kiibohd.dir/Debug/print/print.c.obj
                                       0x847a (size before relaxing)

.comment        0x0000000000000000       0x7f
 .comment       0x0000000000000000       0x7f CMakeFiles/kiibohd.dir/main.c.obj
                                         0x80 (size before relaxing)
 .comment       0x000000000000007f       0x80 CMakeFiles/kiibohd.dir/Lib/kinetis.c.obj
 .comment       0x000000000000007f       0x80 CMakeFiles/kiibohd.dir/Lib/delay.c.obj
 .comment       0x000000000000007f       0x80 CMakeFiles/kiibohd.dir/Lib/entropy.c.obj
 .comment       0x000000000000007f       0x80 CMakeFiles/kiibohd.dir/Lib/gpio.c.obj
 .comment       0x000000000000007f       0x80 CMakeFiles/kiibohd.dir/Lib/periodic.c.obj
 .comment       0x000000000000007f       0x80 CMakeFiles/kiibohd.dir/Lib/time.c.obj
 .comment       0x000000000000007f       0x80 CMakeFiles/kiibohd.dir/Scan/Devices/ISSILed/i2c.c.obj
 .comment       0x000000000000007f       0x80 CMakeFiles/kiibohd.dir/Scan/Devices/ISSILed/led_scan.c.obj
 .comment       0x000000000000007f       0x80 CMakeFiles/kiibohd.dir/Scan/Devices/MatrixARMPeriodic/matrix_scan.c.obj
 .comment       0x000000000000007f       0x80 CMakeFiles/kiibohd.dir/Scan/Devices/STLcd/lcd_scan.c.obj
 .comment       0x000000000000007f       0x80 CMakeFiles/kiibohd.dir/Scan/Devices/UARTConnect/connect_scan.c.obj
 .comment       0x000000000000007f       0x80 CMakeFiles/kiibohd.dir/Scan/Infinity_Ergodox/scan_loop.c.obj
 .comment       0x000000000000007f       0x80 CMakeFiles/kiibohd.dir/Macro/PartialMap/kll.c.obj
 .comment       0x000000000000007f       0x80 CMakeFiles/kiibohd.dir/Macro/PartialMap/layer.c.obj
 .comment       0x000000000000007f       0x80 CMakeFiles/kiibohd.dir/Macro/PartialMap/macro.c.obj
 .comment       0x000000000000007f       0x80 CMakeFiles/kiibohd.dir/Macro/PartialMap/result.c.obj
 .comment       0x000000000000007f       0x80 CMakeFiles/kiibohd.dir/Macro/PartialMap/trigger.c.obj
 .comment       0x000000000000007f       0x80 CMakeFiles/kiibohd.dir/Macro/PixelMap/pixel.c.obj
 .comment       0x000000000000007f       0x80 CMakeFiles/kiibohd.dir/generatedPixelmap.c.obj
 .comment       0x000000000000007f       0x80 CMakeFiles/kiibohd.dir/Output/HID-IO/hidio_com.c.obj
 .comment       0x000000000000007f       0x80 CMakeFiles/kiibohd.dir/Output/Interface/output_gen.c.obj
 .comment       0x000000000000007f       0x80 CMakeFiles/kiibohd.dir/Output/USB/output_com.c.obj
 .comment       0x000000000000007f       0x80 CMakeFiles/kiibohd.dir/Output/USB/output_usb.c.obj
 .comment       0x000000000000007f       0x80 CMakeFiles/kiibohd.dir/Output/USB/arm/usb_desc.c.obj
 .comment       0x000000000000007f       0x80 CMakeFiles/kiibohd.dir/Output/USB/arm/usb_dev.c.obj
 .comment       0x000000000000007f       0x80 CMakeFiles/kiibohd.dir/Output/USB/arm/usb_keyboard.c.obj
 .comment       0x000000000000007f       0x80 CMakeFiles/kiibohd.dir/Output/USB/arm/usb_mem.c.obj
 .comment       0x000000000000007f       0x80 CMakeFiles/kiibohd.dir/Output/USB/arm/usb_mouse.c.obj
 .comment       0x000000000000007f       0x80 CMakeFiles/kiibohd.dir/Output/USB/arm/usb_rawio.c.obj
 .comment       0x000000000000007f       0x80 CMakeFiles/kiibohd.dir/Output/USB/arm/usb_serial.c.obj
 .comment       0x000000000000007f       0x80 CMakeFiles/kiibohd.dir/Debug/cli/cli.c.obj
 .comment       0x000000000000007f       0x80 CMakeFiles/kiibohd.dir/Debug/latency/latency.c.obj
 .comment       0x000000000000007f       0x80 CMakeFiles/kiibohd.dir/Debug/led/led.c.obj
 .comment       0x000000000000007f       0x80 CMakeFiles/kiibohd.dir/Debug/print/print.c.obj

.ARM.attributes
                0x0000000000000000       0x33
 .ARM.attributes
                0x0000000000000000       0x33 CMakeFiles/kiibohd.dir/main.c.obj
 .ARM.attributes
                0x0000000000000033       0x33 CMakeFiles/kiibohd.dir/Lib/kinetis.c.obj
 .ARM.attributes
                0x0000000000000066       0x33 CMakeFiles/kiibohd.dir/Lib/delay.c.obj
 .ARM.attributes
                0x0000000000000099       0x33 CMakeFiles/kiibohd.dir/Lib/entropy.c.obj
 .ARM.attributes
                0x00000000000000cc       0x33 CMakeFiles/kiibohd.dir/Lib/gpio.c.obj
 .ARM.attributes
                0x00000000000000ff       0x33 CMakeFiles/kiibohd.dir/Lib/periodic.c.obj
 .ARM.attributes
                0x0000000000000132       0x33 CMakeFiles/kiibohd.dir/Lib/time.c.obj
 .ARM.attributes
                0x0000000000000165       0x33 CMakeFiles/kiibohd.dir/Scan/Devices/ISSILed/i2c.c.obj
 .ARM.attributes
                0x0000000000000198       0x33 CMakeFiles/kiibohd.dir/Scan/Devices/ISSILed/led_scan.c.obj
 .ARM.attributes
                0x00000000000001cb       0x33 CMakeFiles/kiibohd.dir/Scan/Devices/MatrixARMPeriodic/matrix_scan.c.obj
 .ARM.attributes
                0x00000000000001fe       0x33 CMakeFiles/kiibohd.dir/Scan/Devices/STLcd/lcd_scan.c.obj
 .ARM.attributes
                0x0000000000000231       0x33 CMakeFiles/kiibohd.dir/Scan/Devices/UARTConnect/connect_scan.c.obj
 .ARM.attributes
                0x0000000000000264       0x33 CMakeFiles/kiibohd.dir/Scan/Infinity_Ergodox/scan_loop.c.obj
 .ARM.attributes
                0x0000000000000297       0x33 CMakeFiles/kiibohd.dir/Macro/PartialMap/kll.c.obj
 .ARM.attributes
                0x00000000000002ca       0x33 CMakeFiles/kiibohd.dir/Macro/PartialMap/layer.c.obj
 .ARM.attributes
                0x00000000000002fd       0x33 CMakeFiles/kiibohd.dir/Macro/PartialMap/macro.c.obj
 .ARM.attributes
                0x0000000000000330       0x33 CMakeFiles/kiibohd.dir/Macro/PartialMap/result.c.obj
 .ARM.attributes
                0x0000000000000363       0x33 CMakeFiles/kiibohd.dir/Macro/PartialMap/trigger.c.obj
 .ARM.attributes
                0x0000000000000396       0x33 CMakeFiles/kiibohd.dir/Macro/PixelMap/pixel.c.obj
 .ARM.attributes
                0x00000000000003c9       0x33 CMakeFiles/kiibohd.dir/generatedPixelmap.c.obj
 .ARM.attributes
                0x00000000000003fc       0x33 CMakeFiles/kiibohd.dir/Output/HID-IO/hidio_com.c.obj
 .ARM.attributes
                0x000000000000042f       0x33 CMakeFiles/kiibohd.dir/Output/Interface/output_gen.c.obj
 .ARM.attributes
                0x0000000000000462       0x33 CMakeFiles/kiibohd.dir/Output/USB/output_com.c.obj
 .ARM.attributes
                0x0000000000000495       0x33 CMakeFiles/kiibohd.dir/Output/USB/output_usb.c.obj
 .ARM.attributes
                0x00000000000004c8       0x33 CMakeFiles/kiibohd.dir/Output/USB/arm/usb_desc.c.obj
 .ARM.attributes
                0x00000000000004fb       0x33 CMakeFiles/kiibohd.dir/Output/USB/arm/usb_dev.c.obj
 .ARM.attributes
                0x000000000000052e       0x33 CMakeFiles/kiibohd.dir/Output/USB/arm/usb_keyboard.c.obj
 .ARM.attributes
                0x0000000000000561       0x33 CMakeFiles/kiibohd.dir/Output/USB/arm/usb_mem.c.obj
 .ARM.attributes
                0x0000000000000594       0x33 CMakeFiles/kiibohd.dir/Output/USB/arm/usb_mouse.c.obj
 .ARM.attributes
                0x00000000000005c7       0x33 CMakeFiles/kiibohd.dir/Output/USB/arm/usb_rawio.c.obj
 .ARM.attributes
                0x00000000000005fa       0x33 CMakeFiles/kiibohd.dir/Output/USB/arm/usb_serial.c.obj
 .ARM.attributes
                0x000000000000062d       0x33 CMakeFiles/kiibohd.dir/Debug/cli/cli.c.obj
 .ARM.attributes
                0x0000000000000660       0x33 CMakeFiles/kiibohd.dir/Debug/latency/latency.c.obj
 .ARM.attributes
                0x0000000000000693       0x33 CMakeFiles/kiibohd.dir/Debug/led/led.c.obj
 .ARM.attributes
                0x00000000000006c6       0x33 CMakeFiles/kiibohd.dir/Debug/print/print.c.obj

.debug_frame    0x0000000000000000     0x3ee4
 .debug_frame   0x0000000000000000       0x44 CMakeFiles/kiibohd.dir/main.c.obj
 .debug_frame   0x0000000000000044      0x1cc CMakeFiles/kiibohd.dir/Lib/kinetis.c.obj
 .debug_frame   0x0000000000000210       0xd0 CMakeFiles/kiibohd.dir/Lib/delay.c.obj
 .debug_frame   0x00000000000002e0       0x98 CMakeFiles/kiibohd.dir/Lib/entropy.c.obj
 .debug_frame   0x0000000000000378       0x34 CMakeFiles/kiibohd.dir/Lib/gpio.c.obj
 .debug_frame   0x00000000000003ac       0xa8 CMakeFiles/kiibohd.dir/Lib/periodic.c.obj
 .debug_frame   0x0000000000000454      0x3b4 CMakeFiles/kiibohd.dir/Lib/time.c.obj
 .debug_frame   0x0000000000000808      0x13c CMakeFiles/kiibohd.dir/Scan/Devices/ISSILed/i2c.c.obj
 .debug_frame   0x0000000000000944      0x2f4 CMakeFiles/kiibohd.dir/Scan/Devices/ISSILed/led_scan.c.obj
 .debug_frame   0x0000000000000c38      0x16c CMakeFiles/kiibohd.dir/Scan/Devices/MatrixARMPeriodic/matrix_scan.c.obj
 .debug_frame   0x0000000000000da4      0x298 CMakeFiles/kiibohd.dir/Scan/Devices/STLcd/lcd_scan.c.obj
 .debug_frame   0x000000000000103c      0x480 CMakeFiles/kiibohd.dir/Scan/Devices/UARTConnect/connect_scan.c.obj
 .debug_frame   0x00000000000014bc       0xc4 CMakeFiles/kiibohd.dir/Scan/Infinity_Ergodox/scan_loop.c.obj
 .debug_frame   0x0000000000001580       0x40 CMakeFiles/kiibohd.dir/Macro/PartialMap/kll.c.obj
 .debug_frame   0x00000000000015c0      0x1e8 CMakeFiles/kiibohd.dir/Macro/PartialMap/layer.c.obj
 .debug_frame   0x00000000000017a8      0x5c0 CMakeFiles/kiibohd.dir/Macro/PartialMap/macro.c.obj
 .debug_frame   0x0000000000001d68      0x11c CMakeFiles/kiibohd.dir/Macro/PartialMap/result.c.obj
 .debug_frame   0x0000000000001e84      0x1e0 CMakeFiles/kiibohd.dir/Macro/PartialMap/trigger.c.obj
 .debug_frame   0x0000000000002064      0x6e4 CMakeFiles/kiibohd.dir/Macro/PixelMap/pixel.c.obj
 .debug_frame   0x0000000000002748      0x3d0 CMakeFiles/kiibohd.dir/Output/HID-IO/hidio_com.c.obj
 .debug_frame   0x0000000000002b18      0x110 CMakeFiles/kiibohd.dir/Output/Interface/output_gen.c.obj
 .debug_frame   0x0000000000002c28      0x164 CMakeFiles/kiibohd.dir/Output/USB/output_com.c.obj
 .debug_frame   0x0000000000002d8c      0x4c0 CMakeFiles/kiibohd.dir/Output/USB/output_usb.c.obj
 .debug_frame   0x000000000000324c       0x28 CMakeFiles/kiibohd.dir/Output/USB/arm/usb_desc.c.obj
 .debug_frame   0x0000000000003274      0x25c CMakeFiles/kiibohd.dir/Output/USB/arm/usb_dev.c.obj
 .debug_frame   0x00000000000034d0       0x8c CMakeFiles/kiibohd.dir/Output/USB/arm/usb_keyboard.c.obj
 .debug_frame   0x000000000000355c       0x54 CMakeFiles/kiibohd.dir/Output/USB/arm/usb_mem.c.obj
 .debug_frame   0x00000000000035b0       0x4c CMakeFiles/kiibohd.dir/Output/USB/arm/usb_mouse.c.obj
 .debug_frame   0x00000000000035fc       0x78 CMakeFiles/kiibohd.dir/Output/USB/arm/usb_rawio.c.obj
 .debug_frame   0x0000000000003674      0x148 CMakeFiles/kiibohd.dir/Output/USB/arm/usb_serial.c.obj
 .debug_frame   0x00000000000037bc      0x384 CMakeFiles/kiibohd.dir/Debug/cli/cli.c.obj
 .debug_frame   0x0000000000003b40       0xd4 CMakeFiles/kiibohd.dir/Debug/latency/latency.c.obj
 .debug_frame   0x0000000000003c14       0x68 CMakeFiles/kiibohd.dir/Debug/led/led.c.obj
 .debug_frame   0x0000000000003c7c      0x268 CMakeFiles/kiibohd.dir/Debug/print/print.c.obj

.debug_loc      0x0000000000000000     0xf7cf
 .debug_loc     0x0000000000000000      0x49e CMakeFiles/kiibohd.dir/Lib/kinetis.c.obj
 .debug_loc     0x000000000000049e       0xde CMakeFiles/kiibohd.dir/Lib/delay.c.obj
 .debug_loc     0x000000000000057c       0x77 CMakeFiles/kiibohd.dir/Lib/entropy.c.obj
 .debug_loc     0x00000000000005f3      0x523 CMakeFiles/kiibohd.dir/Lib/gpio.c.obj
 .debug_loc     0x0000000000000b16       0x58 CMakeFiles/kiibohd.dir/Lib/periodic.c.obj
 .debug_loc     0x0000000000000b6e     0x1176 CMakeFiles/kiibohd.dir/Lib/time.c.obj
 .debug_loc     0x0000000000001ce4      0x41e CMakeFiles/kiibohd.dir/Scan/Devices/ISSILed/i2c.c.obj
 .debug_loc     0x0000000000002102      0x92f CMakeFiles/kiibohd.dir/Scan/Devices/ISSILed/led_scan.c.obj
 .debug_loc     0x0000000000002a31      0x2ed CMakeFiles/kiibohd.dir/Scan/Devices/MatrixARMPeriodic/matrix_scan.c.obj
 .debug_loc     0x0000000000002d1e      0x757 CMakeFiles/kiibohd.dir/Scan/Devices/STLcd/lcd_scan.c.obj
 .debug_loc     0x0000000000003475     0x11d8 CMakeFiles/kiibohd.dir/Scan/Devices/UARTConnect/connect_scan.c.obj
 .debug_loc     0x000000000000464d       0x63 CMakeFiles/kiibohd.dir/Scan/Infinity_Ergodox/scan_loop.c.obj
 .debug_loc     0x00000000000046b0      0x199 CMakeFiles/kiibohd.dir/Macro/PartialMap/kll.c.obj
 .debug_loc     0x0000000000004849      0xd7f CMakeFiles/kiibohd.dir/Macro/PartialMap/layer.c.obj
 .debug_loc     0x00000000000055c8     0x1772 CMakeFiles/kiibohd.dir/Macro/PartialMap/macro.c.obj
 .debug_loc     0x0000000000006d3a      0x5db CMakeFiles/kiibohd.dir/Macro/PartialMap/result.c.obj
 .debug_loc     0x0000000000007315      0xa63 CMakeFiles/kiibohd.dir/Macro/PartialMap/trigger.c.obj
 .debug_loc     0x0000000000007d78     0x2781 CMakeFiles/kiibohd.dir/Macro/PixelMap/pixel.c.obj
 .debug_loc     0x000000000000a4f9     0x1561 CMakeFiles/kiibohd.dir/Output/HID-IO/hidio_com.c.obj
 .debug_loc     0x000000000000ba5a      0x2e0 CMakeFiles/kiibohd.dir/Output/Interface/output_gen.c.obj
 .debug_loc     0x000000000000bd3a       0xe8 CMakeFiles/kiibohd.dir/Output/USB/output_com.c.obj
 .debug_loc     0x000000000000be22      0xe11 CMakeFiles/kiibohd.dir/Output/USB/output_usb.c.obj
 .debug_loc     0x000000000000cc33      0xca6 CMakeFiles/kiibohd.dir/Output/USB/arm/usb_dev.c.obj
 .debug_loc     0x000000000000d8d9      0x211 CMakeFiles/kiibohd.dir/Output/USB/arm/usb_keyboard.c.obj
 .debug_loc     0x000000000000daea      0x174 CMakeFiles/kiibohd.dir/Output/USB/arm/usb_mem.c.obj
 .debug_loc     0x000000000000dc5e       0x40 CMakeFiles/kiibohd.dir/Output/USB/arm/usb_mouse.c.obj
 .debug_loc     0x000000000000dc9e      0x121 CMakeFiles/kiibohd.dir/Output/USB/arm/usb_rawio.c.obj
 .debug_loc     0x000000000000ddbf      0x2bb CMakeFiles/kiibohd.dir/Output/USB/arm/usb_serial.c.obj
 .debug_loc     0x000000000000e07a      0xa9f CMakeFiles/kiibohd.dir/Debug/cli/cli.c.obj
 .debug_loc     0x000000000000eb19      0x2db CMakeFiles/kiibohd.dir/Debug/latency/latency.c.obj
 .debug_loc     0x000000000000edf4       0x21 CMakeFiles/kiibohd.dir/Debug/led/led.c.obj
 .debug_loc     0x000000000000ee15      0x9ba CMakeFiles/kiibohd.dir/Debug/print/print.c.obj

Cross Reference Table

Symbol                                            File
CLIDict                                           CMakeFiles/kiibohd.dir/Debug/cli/cli.c.obj
                                                  CMakeFiles/kiibohd.dir/Output/USB/output_usb.c.obj
                                                  CMakeFiles/kiibohd.dir/Output/Interface/output_gen.c.obj
                                                  CMakeFiles/kiibohd.dir/Output/HID-IO/hidio_com.c.obj
                                                  CMakeFiles/kiibohd.dir/Macro/PixelMap/pixel.c.obj
                                                  CMakeFiles/kiibohd.dir/Macro/PartialMap/macro.c.obj
                                                  CMakeFiles/kiibohd.dir/Macro/PartialMap/layer.c.obj
                                                  CMakeFiles/kiibohd.dir/Scan/Infinity_Ergodox/scan_loop.c.obj
                                                  CMakeFiles/kiibohd.dir/Scan/Devices/UARTConnect/connect_scan.c.obj
                                                  CMakeFiles/kiibohd.dir/Scan/Devices/STLcd/lcd_scan.c.obj
                                                  CMakeFiles/kiibohd.dir/Scan/Devices/MatrixARMPeriodic/matrix_scan.c.obj
                                                  CMakeFiles/kiibohd.dir/Scan/Devices/ISSILed/led_scan.c.obj
                                                  CMakeFiles/kiibohd.dir/main.c.obj
CLIDictNames                                      CMakeFiles/kiibohd.dir/Debug/cli/cli.c.obj
                                                  CMakeFiles/kiibohd.dir/Output/USB/output_usb.c.obj
                                                  CMakeFiles/kiibohd.dir/Output/Interface/output_gen.c.obj
                                                  CMakeFiles/kiibohd.dir/Output/HID-IO/hidio_com.c.obj
                                                  CMakeFiles/kiibohd.dir/Macro/PixelMap/pixel.c.obj
                                                  CMakeFiles/kiibohd.dir/Macro/PartialMap/macro.c.obj
                                                  CMakeFiles/kiibohd.dir/Macro/PartialMap/layer.c.obj
                                                  CMakeFiles/kiibohd.dir/Scan/Infinity_Ergodox/scan_loop.c.obj
                                                  CMakeFiles/kiibohd.dir/Scan/Devices/UARTConnect/connect_scan.c.obj
                                                  CMakeFiles/kiibohd.dir/Scan/Devices/STLcd/lcd_scan.c.obj
                                                  CMakeFiles/kiibohd.dir/Scan/Devices/MatrixARMPeriodic/matrix_scan.c.obj
                                                  CMakeFiles/kiibohd.dir/Scan/Devices/ISSILed/led_scan.c.obj
                                                  CMakeFiles/kiibohd.dir/main.c.obj
CLIDictionariesUsed                               CMakeFiles/kiibohd.dir/Debug/cli/cli.c.obj
                                                  CMakeFiles/kiibohd.dir/Output/USB/output_usb.c.obj
                                                  CMakeFiles/kiibohd.dir/Output/Interface/output_gen.c.obj
                                                  CMakeFiles/kiibohd.dir/Output/HID-IO/hidio_com.c.obj
                                                  CMakeFiles/kiibohd.dir/Macro/PixelMap/pixel.c.obj
                                                  CMakeFiles/kiibohd.dir/Macro/PartialMap/macro.c.obj
                                                  CMakeFiles/kiibohd.dir/Macro/PartialMap/layer.c.obj
                                                  CMakeFiles/kiibohd.dir/Scan/Infinity_Ergodox/scan_loop.c.obj
                                                  CMakeFiles/kiibohd.dir/Scan/Devices/UARTConnect/connect_scan.c.obj
                                                  CMakeFiles/kiibohd.dir/Scan/Devices/STLcd/lcd_scan.c.obj
                                                  CMakeFiles/kiibohd.dir/Scan/Devices/MatrixARMPeriodic/matrix_scan.c.obj
                                                  CMakeFiles/kiibohd.dir/Scan/Devices/ISSILed/led_scan.c.obj
                                                  CMakeFiles/kiibohd.dir/main.c.obj
CLIHexDebugMode                                   CMakeFiles/kiibohd.dir/Debug/cli/cli.c.obj
                                                  CMakeFiles/kiibohd.dir/Output/USB/output_usb.c.obj
                                                  CMakeFiles/kiibohd.dir/Output/Interface/output_gen.c.obj
                                                  CMakeFiles/kiibohd.dir/Output/HID-IO/hidio_com.c.obj
                                                  CMakeFiles/kiibohd.dir/Macro/PixelMap/pixel.c.obj
                                                  CMakeFiles/kiibohd.dir/Macro/PartialMap/macro.c.obj
                                                  CMakeFiles/kiibohd.dir/Macro/PartialMap/layer.c.obj
                                                  CMakeFiles/kiibohd.dir/Scan/Infinity_Ergodox/scan_loop.c.obj
                                                  CMakeFiles/kiibohd.dir/Scan/Devices/UARTConnect/connect_scan.c.obj
                                                  CMakeFiles/kiibohd.dir/Scan/Devices/STLcd/lcd_scan.c.obj
                                                  CMakeFiles/kiibohd.dir/Scan/Devices/MatrixARMPeriodic/matrix_scan.c.obj
                                                  CMakeFiles/kiibohd.dir/Scan/Devices/ISSILed/led_scan.c.obj
                                                  CMakeFiles/kiibohd.dir/main.c.obj
CLIHistoryBuffer                                  CMakeFiles/kiibohd.dir/Debug/cli/cli.c.obj
                                                  CMakeFiles/kiibohd.dir/Output/USB/output_usb.c.obj
                                                  CMakeFiles/kiibohd.dir/Output/Interface/output_gen.c.obj
                                                  CMakeFiles/kiibohd.dir/Output/HID-IO/hidio_com.c.obj
                                                  CMakeFiles/kiibohd.dir/Macro/PixelMap/pixel.c.obj
                                                  CMakeFiles/kiibohd.dir/Macro/PartialMap/macro.c.obj
                                                  CMakeFiles/kiibohd.dir/Macro/PartialMap/layer.c.obj
                                                  CMakeFiles/kiibohd.dir/Scan/Infinity_Ergodox/scan_loop.c.obj
                                                  CMakeFiles/kiibohd.dir/Scan/Devices/UARTConnect/connect_scan.c.obj
                                                  CMakeFiles/kiibohd.dir/Scan/Devices/STLcd/lcd_scan.c.obj
                                                  CMakeFiles/kiibohd.dir/Scan/Devices/MatrixARMPeriodic/matrix_scan.c.obj
                                                  CMakeFiles/kiibohd.dir/Scan/Devices/ISSILed/led_scan.c.obj
                                                  CMakeFiles/kiibohd.dir/main.c.obj
CLIHistoryCurrent                                 CMakeFiles/kiibohd.dir/Debug/cli/cli.c.obj
                                                  CMakeFiles/kiibohd.dir/Output/USB/output_usb.c.obj
                                                  CMakeFiles/kiibohd.dir/Output/Interface/output_gen.c.obj
                                                  CMakeFiles/kiibohd.dir/Output/HID-IO/hidio_com.c.obj
                                                  CMakeFiles/kiibohd.dir/Macro/PixelMap/pixel.c.obj
                                                  CMakeFiles/kiibohd.dir/Macro/PartialMap/macro.c.obj
                                                  CMakeFiles/kiibohd.dir/Macro/PartialMap/layer.c.obj
                                                  CMakeFiles/kiibohd.dir/Scan/Infinity_Ergodox/scan_loop.c.obj
                                                  CMakeFiles/kiibohd.dir/Scan/Devices/UARTConnect/connect_scan.c.obj
                                                  CMakeFiles/kiibohd.dir/Scan/Devices/STLcd/lcd_scan.c.obj
                                                  CMakeFiles/kiibohd.dir/Scan/Devices/MatrixARMPeriodic/matrix_scan.c.obj
                                                  CMakeFiles/kiibohd.dir/Scan/Devices/ISSILed/led_scan.c.obj
                                                  CMakeFiles/kiibohd.dir/main.c.obj
CLIHistoryHead                                    CMakeFiles/kiibohd.dir/Debug/cli/cli.c.obj
                                                  CMakeFiles/kiibohd.dir/Output/USB/output_usb.c.obj
                                                  CMakeFiles/kiibohd.dir/Output/Interface/output_gen.c.obj
                                                  CMakeFiles/kiibohd.dir/Output/HID-IO/hidio_com.c.obj
                                                  CMakeFiles/kiibohd.dir/Macro/PixelMap/pixel.c.obj
                                                  CMakeFiles/kiibohd.dir/Macro/PartialMap/macro.c.obj
                                                  CMakeFiles/kiibohd.dir/Macro/PartialMap/layer.c.obj
                                                  CMakeFiles/kiibohd.dir/Scan/Infinity_Ergodox/scan_loop.c.obj
                                                  CMakeFiles/kiibohd.dir/Scan/Devices/UARTConnect/connect_scan.c.obj
                                                  CMakeFiles/kiibohd.dir/Scan/Devices/STLcd/lcd_scan.c.obj
                                                  CMakeFiles/kiibohd.dir/Scan/Devices/MatrixARMPeriodic/matrix_scan.c.obj
                                                  CMakeFiles/kiibohd.dir/Scan/Devices/ISSILed/led_scan.c.obj
                                                  CMakeFiles/kiibohd.dir/main.c.obj
CLIHistoryTail                                    CMakeFiles/kiibohd.dir/Debug/cli/cli.c.obj
                                                  CMakeFiles/kiibohd.dir/Output/USB/output_usb.c.obj
                                                  CMakeFiles/kiibohd.dir/Output/Interface/output_gen.c.obj
                                                  CMakeFiles/kiibohd.dir/Output/HID-IO/hidio_com.c.obj
                                                  CMakeFiles/kiibohd.dir/Macro/PixelMap/pixel.c.obj
                                                  CMakeFiles/kiibohd.dir/Macro/PartialMap/macro.c.obj
                                                  CMakeFiles/kiibohd.dir/Macro/PartialMap/layer.c.obj
                                                  CMakeFiles/kiibohd.dir/Scan/Infinity_Ergodox/scan_loop.c.obj
                                                  CMakeFiles/kiibohd.dir/Scan/Devices/UARTConnect/connect_scan.c.obj
                                                  CMakeFiles/kiibohd.dir/Scan/Devices/STLcd/lcd_scan.c.obj
                                                  CMakeFiles/kiibohd.dir/Scan/Devices/MatrixARMPeriodic/matrix_scan.c.obj
                                                  CMakeFiles/kiibohd.dir/Scan/Devices/ISSILed/led_scan.c.obj
                                                  CMakeFiles/kiibohd.dir/main.c.obj
CLILEDState                                       CMakeFiles/kiibohd.dir/Debug/cli/cli.c.obj
                                                  CMakeFiles/kiibohd.dir/Output/USB/output_usb.c.obj
                                                  CMakeFiles/kiibohd.dir/Output/Interface/output_gen.c.obj
                                                  CMakeFiles/kiibohd.dir/Output/HID-IO/hidio_com.c.obj
                                                  CMakeFiles/kiibohd.dir/Macro/PixelMap/pixel.c.obj
                                                  CMakeFiles/kiibohd.dir/Macro/PartialMap/macro.c.obj
                                                  CMakeFiles/kiibohd.dir/Macro/PartialMap/layer.c.obj
                                                  CMakeFiles/kiibohd.dir/Scan/Infinity_Ergodox/scan_loop.c.obj
                                                  CMakeFiles/kiibohd.dir/Scan/Devices/UARTConnect/connect_scan.c.obj
                                                  CMakeFiles/kiibohd.dir/Scan/Devices/STLcd/lcd_scan.c.obj
                                                  CMakeFiles/kiibohd.dir/Scan/Devices/MatrixARMPeriodic/matrix_scan.c.obj
                                                  CMakeFiles/kiibohd.dir/Scan/Devices/ISSILed/led_scan.c.obj
                                                  CMakeFiles/kiibohd.dir/main.c.obj
CLILineBuffer                                     CMakeFiles/kiibohd.dir/Debug/cli/cli.c.obj
                                                  CMakeFiles/kiibohd.dir/Output/USB/output_usb.c.obj
                                                  CMakeFiles/kiibohd.dir/Output/Interface/output_gen.c.obj
                                                  CMakeFiles/kiibohd.dir/Output/HID-IO/hidio_com.c.obj
                                                  CMakeFiles/kiibohd.dir/Macro/PixelMap/pixel.c.obj
                                                  CMakeFiles/kiibohd.dir/Macro/PartialMap/macro.c.obj
                                                  CMakeFiles/kiibohd.dir/Macro/PartialMap/layer.c.obj
                                                  CMakeFiles/kiibohd.dir/Scan/Infinity_Ergodox/scan_loop.c.obj
                                                  CMakeFiles/kiibohd.dir/Scan/Devices/UARTConnect/connect_scan.c.obj
                                                  CMakeFiles/kiibohd.dir/Scan/Devices/STLcd/lcd_scan.c.obj
                                                  CMakeFiles/kiibohd.dir/Scan/Devices/MatrixARMPeriodic/matrix_scan.c.obj
                                                  CMakeFiles/kiibohd.dir/Scan/Devices/ISSILed/led_scan.c.obj
                                                  CMakeFiles/kiibohd.dir/main.c.obj
CLILineBufferCurrent                              CMakeFiles/kiibohd.dir/Debug/cli/cli.c.obj
                                                  CMakeFiles/kiibohd.dir/Output/USB/output_usb.c.obj
                                                  CMakeFiles/kiibohd.dir/Output/Interface/output_gen.c.obj
                                                  CMakeFiles/kiibohd.dir/Output/HID-IO/hidio_com.c.obj
                                                  CMakeFiles/kiibohd.dir/Macro/PixelMap/pixel.c.obj
                                                  CMakeFiles/kiibohd.dir/Macro/PartialMap/macro.c.obj
                                                  CMakeFiles/kiibohd.dir/Macro/PartialMap/layer.c.obj
                                                  CMakeFiles/kiibohd.dir/Scan/Infinity_Ergodox/scan_loop.c.obj
                                                  CMakeFiles/kiibohd.dir/Scan/Devices/UARTConnect/connect_scan.c.obj
                                                  CMakeFiles/kiibohd.dir/Scan/Devices/STLcd/lcd_scan.c.obj
                                                  CMakeFiles/kiibohd.dir/Scan/Devices/MatrixARMPeriodic/matrix_scan.c.obj
                                                  CMakeFiles/kiibohd.dir/Scan/Devices/ISSILed/led_scan.c.obj
                                                  CMakeFiles/kiibohd.dir/main.c.obj
CLI_argumentIsolation                             CMakeFiles/kiibohd.dir/Debug/cli/cli.c.obj
                                                  CMakeFiles/kiibohd.dir/Output/USB/output_usb.c.obj
                                                  CMakeFiles/kiibohd.dir/Output/Interface/output_gen.c.obj
                                                  CMakeFiles/kiibohd.dir/Macro/PixelMap/pixel.c.obj
                                                  CMakeFiles/kiibohd.dir/Macro/PartialMap/macro.c.obj
                                                  CMakeFiles/kiibohd.dir/Scan/Devices/UARTConnect/connect_scan.c.obj
                                                  CMakeFiles/kiibohd.dir/Scan/Devices/STLcd/lcd_scan.c.obj
                                                  CMakeFiles/kiibohd.dir/Scan/Devices/MatrixARMPeriodic/matrix_scan.c.obj
                                                  CMakeFiles/kiibohd.dir/Scan/Devices/ISSILed/led_scan.c.obj
CLI_commandLookup                                 CMakeFiles/kiibohd.dir/Debug/cli/cli.c.obj
CLI_init                                          CMakeFiles/kiibohd.dir/Debug/cli/cli.c.obj
                                                  CMakeFiles/kiibohd.dir/main.c.obj
CLI_process                                       CMakeFiles/kiibohd.dir/Debug/cli/cli.c.obj
                                                  CMakeFiles/kiibohd.dir/main.c.obj
CLI_registerDictionary                            CMakeFiles/kiibohd.dir/Debug/cli/cli.c.obj
                                                  CMakeFiles/kiibohd.dir/Output/USB/output_usb.c.obj
                                                  CMakeFiles/kiibohd.dir/Output/Interface/output_gen.c.obj
                                                  CMakeFiles/kiibohd.dir/Output/HID-IO/hidio_com.c.obj
                                                  CMakeFiles/kiibohd.dir/Macro/PixelMap/pixel.c.obj
                                                  CMakeFiles/kiibohd.dir/Macro/PartialMap/macro.c.obj
                                                  CMakeFiles/kiibohd.dir/Scan/Devices/UARTConnect/connect_scan.c.obj
                                                  CMakeFiles/kiibohd.dir/Scan/Devices/STLcd/lcd_scan.c.obj
                                                  CMakeFiles/kiibohd.dir/Scan/Devices/MatrixARMPeriodic/matrix_scan.c.obj
                                                  CMakeFiles/kiibohd.dir/Scan/Devices/ISSILed/led_scan.c.obj
CLI_retreiveHistory                               CMakeFiles/kiibohd.dir/Debug/cli/cli.c.obj
CLI_saveHistory                                   CMakeFiles/kiibohd.dir/Debug/cli/cli.c.obj
CLI_tabCompletion                                 CMakeFiles/kiibohd.dir/Debug/cli/cli.c.obj
CLI_wrap                                          CMakeFiles/kiibohd.dir/Debug/cli/cli.c.obj
CapabilitiesList                                  CMakeFiles/kiibohd.dir/Macro/PartialMap/macro.c.obj
                                                  CMakeFiles/kiibohd.dir/Macro/PartialMap/trigger.c.obj
                                                  CMakeFiles/kiibohd.dir/Macro/PartialMap/result.c.obj
                                                  CMakeFiles/kiibohd.dir/Scan/Devices/UARTConnect/connect_scan.c.obj
                                                  CMakeFiles/kiibohd.dir/Scan/Devices/STLcd/lcd_scan.c.obj
                                                  CMakeFiles/kiibohd.dir/Scan/Devices/ISSILed/led_scan.c.obj
ChipVersion_cpuid_implementor                     CMakeFiles/kiibohd.dir/Debug/cli/cli.c.obj
ChipVersion_cpuid_partno                          CMakeFiles/kiibohd.dir/Debug/cli/cli.c.obj
ChipVersion_eepromsize                            CMakeFiles/kiibohd.dir/Debug/cli/cli.c.obj
ChipVersion_familyid                              CMakeFiles/kiibohd.dir/Debug/cli/cli.c.obj
ChipVersion_lookup                                CMakeFiles/kiibohd.dir/Debug/cli/cli.c.obj
ChipVersion_nvmsize                               CMakeFiles/kiibohd.dir/Debug/cli/cli.c.obj
ChipVersion_pflashsize                            CMakeFiles/kiibohd.dir/Debug/cli/cli.c.obj
ChipVersion_pincount                              CMakeFiles/kiibohd.dir/Debug/cli/cli.c.obj
ChipVersion_ramsize                               CMakeFiles/kiibohd.dir/Debug/cli/cli.c.obj
Connect_addBytes                                  CMakeFiles/kiibohd.dir/Scan/Devices/UARTConnect/connect_scan.c.obj
Connect_baud                                      CMakeFiles/kiibohd.dir/Scan/Devices/UARTConnect/connect_scan.c.obj
Connect_baudFine                                  CMakeFiles/kiibohd.dir/Scan/Devices/UARTConnect/connect_scan.c.obj
Connect_cableChecksMaster                         CMakeFiles/kiibohd.dir/Scan/Devices/UARTConnect/connect_scan.c.obj
Connect_cableChecksSlave                          CMakeFiles/kiibohd.dir/Scan/Devices/UARTConnect/connect_scan.c.obj
Connect_cableFaultsMaster                         CMakeFiles/kiibohd.dir/Scan/Devices/UARTConnect/connect_scan.c.obj
Connect_cableFaultsSlave                          CMakeFiles/kiibohd.dir/Scan/Devices/UARTConnect/connect_scan.c.obj
Connect_cableOkMaster                             CMakeFiles/kiibohd.dir/Scan/Devices/UARTConnect/connect_scan.c.obj
Connect_cableOkSlave                              CMakeFiles/kiibohd.dir/Scan/Devices/UARTConnect/connect_scan.c.obj
Connect_currentChange                             CMakeFiles/kiibohd.dir/Scan/Devices/UARTConnect/connect_scan.c.obj
                                                  CMakeFiles/kiibohd.dir/Scan/Infinity_Ergodox/scan_loop.c.obj
Connect_debug                                     CMakeFiles/kiibohd.dir/Scan/Devices/UARTConnect/connect_scan.c.obj
Connect_id                                        CMakeFiles/kiibohd.dir/Scan/Devices/UARTConnect/connect_scan.c.obj
                                                  CMakeFiles/kiibohd.dir/Macro/PartialMap/macro.c.obj
                                                  CMakeFiles/kiibohd.dir/Scan/Devices/ISSILed/led_scan.c.obj
Connect_lastCheck                                 CMakeFiles/kiibohd.dir/Scan/Devices/UARTConnect/connect_scan.c.obj
Connect_master                                    CMakeFiles/kiibohd.dir/Scan/Devices/UARTConnect/connect_scan.c.obj
                                                  CMakeFiles/kiibohd.dir/Macro/PartialMap/macro.c.obj
                                                  CMakeFiles/kiibohd.dir/Scan/Devices/STLcd/lcd_scan.c.obj
Connect_maxId                                     CMakeFiles/kiibohd.dir/Scan/Devices/UARTConnect/connect_scan.c.obj
Connect_override                                  CMakeFiles/kiibohd.dir/Scan/Devices/UARTConnect/connect_scan.c.obj
Connect_receiveFunctions                          CMakeFiles/kiibohd.dir/Scan/Devices/UARTConnect/connect_scan.c.obj
Connect_receive_Animation                         CMakeFiles/kiibohd.dir/Scan/Devices/UARTConnect/connect_scan.c.obj
Connect_receive_CableCheck                        CMakeFiles/kiibohd.dir/Scan/Devices/UARTConnect/connect_scan.c.obj
Connect_receive_CurrentEvent                      CMakeFiles/kiibohd.dir/Scan/Devices/UARTConnect/connect_scan.c.obj
Connect_receive_IdEnumeration                     CMakeFiles/kiibohd.dir/Scan/Devices/UARTConnect/connect_scan.c.obj
Connect_receive_IdReport                          CMakeFiles/kiibohd.dir/Scan/Devices/UARTConnect/connect_scan.c.obj
Connect_receive_IdRequest                         CMakeFiles/kiibohd.dir/Scan/Devices/UARTConnect/connect_scan.c.obj
Connect_receive_RemoteCapability                  CMakeFiles/kiibohd.dir/Scan/Devices/UARTConnect/connect_scan.c.obj
Connect_receive_RemoteCapabilityArgs              CMakeFiles/kiibohd.dir/Scan/Devices/UARTConnect/connect_scan.c.obj
Connect_receive_RemoteCapabilityBuffer            CMakeFiles/kiibohd.dir/Scan/Devices/UARTConnect/connect_scan.c.obj
Connect_receive_RemoteInput                       CMakeFiles/kiibohd.dir/Scan/Devices/UARTConnect/connect_scan.c.obj
Connect_receive_RemoteOutput                      CMakeFiles/kiibohd.dir/Scan/Devices/UARTConnect/connect_scan.c.obj
Connect_receive_ScanCode                          CMakeFiles/kiibohd.dir/Scan/Devices/UARTConnect/connect_scan.c.obj
Connect_reset                                     CMakeFiles/kiibohd.dir/Scan/Devices/UARTConnect/connect_scan.c.obj
Connect_rx_process                                CMakeFiles/kiibohd.dir/Scan/Devices/UARTConnect/connect_scan.c.obj
Connect_scan                                      CMakeFiles/kiibohd.dir/Scan/Devices/UARTConnect/connect_scan.c.obj
                                                  CMakeFiles/kiibohd.dir/Scan/Infinity_Ergodox/scan_loop.c.obj
Connect_send_Animation                            CMakeFiles/kiibohd.dir/Scan/Devices/UARTConnect/connect_scan.c.obj
Connect_send_CableCheck                           CMakeFiles/kiibohd.dir/Scan/Devices/UARTConnect/connect_scan.c.obj
Connect_send_CurrentEvent                         CMakeFiles/kiibohd.dir/Scan/Devices/UARTConnect/connect_scan.c.obj
Connect_send_IdEnumeration                        CMakeFiles/kiibohd.dir/Scan/Devices/UARTConnect/connect_scan.c.obj
Connect_send_IdReport                             CMakeFiles/kiibohd.dir/Scan/Devices/UARTConnect/connect_scan.c.obj
Connect_send_IdRequest                            CMakeFiles/kiibohd.dir/Scan/Devices/UARTConnect/connect_scan.c.obj
Connect_send_Idle                                 CMakeFiles/kiibohd.dir/Scan/Devices/UARTConnect/connect_scan.c.obj
Connect_send_RemoteCapability                     CMakeFiles/kiibohd.dir/Scan/Devices/UARTConnect/connect_scan.c.obj
                                                  CMakeFiles/kiibohd.dir/Scan/Devices/STLcd/lcd_scan.c.obj
                                                  CMakeFiles/kiibohd.dir/Scan/Devices/ISSILed/led_scan.c.obj
Connect_send_ScanCode                             CMakeFiles/kiibohd.dir/Scan/Devices/UARTConnect/connect_scan.c.obj
                                                  CMakeFiles/kiibohd.dir/Macro/PartialMap/macro.c.obj
Connect_setup                                     CMakeFiles/kiibohd.dir/Scan/Devices/UARTConnect/connect_scan.c.obj
                                                  CMakeFiles/kiibohd.dir/Scan/Infinity_Ergodox/scan_loop.c.obj
GPIO_Ctrl                                         CMakeFiles/kiibohd.dir/Lib/gpio.c.obj
                                                  CMakeFiles/kiibohd.dir/Debug/led/led.c.obj
                                                  CMakeFiles/kiibohd.dir/Scan/Devices/MatrixARMPeriodic/matrix_scan.c.obj
                                                  CMakeFiles/kiibohd.dir/Scan/Devices/ISSILed/led_scan.c.obj
HIDIO_Id_List                                     CMakeFiles/kiibohd.dir/Output/HID-IO/hidio_com.c.obj
HIDIO_Id_List_Size                                CMakeFiles/kiibohd.dir/Output/HID-IO/hidio_com.c.obj
HIDIO_Packet_Size                                 CMakeFiles/kiibohd.dir/Output/HID-IO/hidio_com.c.obj
HIDIO_ack_buf                                     CMakeFiles/kiibohd.dir/Output/HID-IO/hidio_com.c.obj
HIDIO_ack_buf_data                                CMakeFiles/kiibohd.dir/Output/HID-IO/hidio_com.c.obj
HIDIO_ack_send_buf                                CMakeFiles/kiibohd.dir/Output/HID-IO/hidio_com.c.obj
HIDIO_ack_send_data                               CMakeFiles/kiibohd.dir/Output/HID-IO/hidio_com.c.obj
HIDIO_assembly_buf                                CMakeFiles/kiibohd.dir/Output/HID-IO/hidio_com.c.obj
HIDIO_assembly_buf_data                           CMakeFiles/kiibohd.dir/Output/HID-IO/hidio_com.c.obj
HIDIO_buffer_free_bytes                           CMakeFiles/kiibohd.dir/Output/HID-IO/hidio_com.c.obj
HIDIO_buffer_generate_packet                      CMakeFiles/kiibohd.dir/Output/HID-IO/hidio_com.c.obj
HIDIO_buffer_id                                   CMakeFiles/kiibohd.dir/Output/HID-IO/hidio_com.c.obj
HIDIO_buffer_id_width                             CMakeFiles/kiibohd.dir/Output/HID-IO/hidio_com.c.obj
HIDIO_buffer_munch                                CMakeFiles/kiibohd.dir/Output/HID-IO/hidio_com.c.obj
HIDIO_buffer_pop_bytes                            CMakeFiles/kiibohd.dir/Output/HID-IO/hidio_com.c.obj
HIDIO_buffer_position                             CMakeFiles/kiibohd.dir/Output/HID-IO/hidio_com.c.obj
HIDIO_buffer_push_byte                            CMakeFiles/kiibohd.dir/Output/HID-IO/hidio_com.c.obj
HIDIO_call_id                                     CMakeFiles/kiibohd.dir/Output/HID-IO/hidio_com.c.obj
HIDIO_id_width                                    CMakeFiles/kiibohd.dir/Output/HID-IO/hidio_com.c.obj
HIDIO_info_1_call                                 CMakeFiles/kiibohd.dir/Output/HID-IO/hidio_com.c.obj
HIDIO_info_1_reply                                CMakeFiles/kiibohd.dir/Output/HID-IO/hidio_com.c.obj
HIDIO_info_1_request                              CMakeFiles/kiibohd.dir/Output/HID-IO/hidio_com.c.obj
HIDIO_invalid_65535_request                       CMakeFiles/kiibohd.dir/Output/HID-IO/hidio_com.c.obj
HIDIO_max_payload                                 CMakeFiles/kiibohd.dir/Output/HID-IO/hidio_com.c.obj
HIDIO_modify_buffer                               CMakeFiles/kiibohd.dir/Output/HID-IO/hidio_com.c.obj
HIDIO_nopayload_ack                               CMakeFiles/kiibohd.dir/Output/HID-IO/hidio_com.c.obj
HIDIO_packet_interrupt                            CMakeFiles/kiibohd.dir/Output/HID-IO/hidio_com.c.obj
HIDIO_packet_size                                 CMakeFiles/kiibohd.dir/Output/HID-IO/hidio_com.c.obj
HIDIO_payload_start                               CMakeFiles/kiibohd.dir/Output/HID-IO/hidio_com.c.obj
HIDIO_process                                     CMakeFiles/kiibohd.dir/Output/HID-IO/hidio_com.c.obj
                                                  CMakeFiles/kiibohd.dir/Output/USB/output_usb.c.obj
HIDIO_process_incoming_packet                     CMakeFiles/kiibohd.dir/Output/HID-IO/hidio_com.c.obj
HIDIO_register_id                                 CMakeFiles/kiibohd.dir/Output/HID-IO/hidio_com.c.obj
HIDIO_reply_id                                    CMakeFiles/kiibohd.dir/Output/HID-IO/hidio_com.c.obj
HIDIO_setup                                       CMakeFiles/kiibohd.dir/Output/HID-IO/hidio_com.c.obj
                                                  CMakeFiles/kiibohd.dir/Output/USB/output_usb.c.obj
HIDIO_supported_0_call                            CMakeFiles/kiibohd.dir/Output/HID-IO/hidio_com.c.obj
HIDIO_supported_0_reply                           CMakeFiles/kiibohd.dir/Output/HID-IO/hidio_com.c.obj
HIDIO_supported_0_request                         CMakeFiles/kiibohd.dir/Output/HID-IO/hidio_com.c.obj
HIDIO_test_2_call                                 CMakeFiles/kiibohd.dir/Output/HID-IO/hidio_com.c.obj
HIDIO_test_2_reply                                CMakeFiles/kiibohd.dir/Output/HID-IO/hidio_com.c.obj
HIDIO_test_2_request                              CMakeFiles/kiibohd.dir/Output/HID-IO/hidio_com.c.obj
HIDIO_tx_buf                                      CMakeFiles/kiibohd.dir/Output/HID-IO/hidio_com.c.obj
HIDIO_tx_buf_data                                 CMakeFiles/kiibohd.dir/Output/HID-IO/hidio_com.c.obj
InterconnectOffsetList                            CMakeFiles/kiibohd.dir/Macro/PartialMap/macro.c.obj
                                                  CMakeFiles/kiibohd.dir/Scan/Devices/UARTConnect/connect_scan.c.obj
KLL_CapabilityState                               CMakeFiles/kiibohd.dir/Macro/PartialMap/kll.c.obj
                                                  CMakeFiles/kiibohd.dir/Output/USB/output_usb.c.obj
                                                  CMakeFiles/kiibohd.dir/Macro/PixelMap/pixel.c.obj
                                                  CMakeFiles/kiibohd.dir/Macro/PartialMap/macro.c.obj
                                                  CMakeFiles/kiibohd.dir/Macro/PartialMap/layer.c.obj
                                                  CMakeFiles/kiibohd.dir/Scan/Devices/STLcd/lcd_scan.c.obj
                                                  CMakeFiles/kiibohd.dir/Scan/Devices/ISSILed/led_scan.c.obj
KLL_TriggerIndex_loopkup                          CMakeFiles/kiibohd.dir/Macro/PartialMap/kll.c.obj
                                                  CMakeFiles/kiibohd.dir/Macro/PartialMap/trigger.c.obj
KLL_pageBuffer                                    CMakeFiles/kiibohd.dir/generatedPixelmap.c.obj
Key_Positions                                     CMakeFiles/kiibohd.dir/Macro/PartialMap/macro.c.obj
LCD_clear                                         CMakeFiles/kiibohd.dir/Scan/Devices/STLcd/lcd_scan.c.obj
LCD_clearPage                                     CMakeFiles/kiibohd.dir/Scan/Devices/STLcd/lcd_scan.c.obj
LCD_currentChange                                 CMakeFiles/kiibohd.dir/Scan/Devices/STLcd/lcd_scan.c.obj
                                                  CMakeFiles/kiibohd.dir/Scan/Infinity_Ergodox/scan_loop.c.obj
LCD_initialize                                    CMakeFiles/kiibohd.dir/Scan/Devices/STLcd/lcd_scan.c.obj
LCD_layerStackExact                               CMakeFiles/kiibohd.dir/Scan/Devices/STLcd/lcd_scan.c.obj
LCD_layerStackExact_capability                    CMakeFiles/kiibohd.dir/Scan/Devices/STLcd/lcd_scan.c.obj
                                                  CMakeFiles/kiibohd.dir/Macro/PartialMap/macro.c.obj
LCD_layerStackExact_size                          CMakeFiles/kiibohd.dir/Scan/Devices/STLcd/lcd_scan.c.obj
LCD_layerStack_capability                         CMakeFiles/kiibohd.dir/Scan/Devices/STLcd/lcd_scan.c.obj
                                                  CMakeFiles/kiibohd.dir/Macro/PartialMap/macro.c.obj
                                                  CMakeFiles/kiibohd.dir/Macro/PartialMap/layer.c.obj
LCD_layerStack_prevSize                           CMakeFiles/kiibohd.dir/Scan/Devices/STLcd/lcd_scan.c.obj
LCD_layerStack_prevTop                            CMakeFiles/kiibohd.dir/Scan/Devices/STLcd/lcd_scan.c.obj
LCD_scan                                          CMakeFiles/kiibohd.dir/Scan/Devices/STLcd/lcd_scan.c.obj
                                                  CMakeFiles/kiibohd.dir/Scan/Infinity_Ergodox/scan_loop.c.obj
LCD_setup                                         CMakeFiles/kiibohd.dir/Scan/Devices/STLcd/lcd_scan.c.obj
                                                  CMakeFiles/kiibohd.dir/Scan/Infinity_Ergodox/scan_loop.c.obj
LCD_writeControlReg                               CMakeFiles/kiibohd.dir/Scan/Devices/STLcd/lcd_scan.c.obj
LCD_writeDataReg                                  CMakeFiles/kiibohd.dir/Scan/Devices/STLcd/lcd_scan.c.obj
LCD_writeDisplayReg                               CMakeFiles/kiibohd.dir/Scan/Devices/STLcd/lcd_scan.c.obj
LED_Buffers                                       CMakeFiles/kiibohd.dir/generatedPixelmap.c.obj
                                                  CMakeFiles/kiibohd.dir/Macro/PixelMap/pixel.c.obj
LED_ChannelMapping                                CMakeFiles/kiibohd.dir/Scan/Devices/ISSILed/led_scan.c.obj
LED_brightness                                    CMakeFiles/kiibohd.dir/Scan/Devices/ISSILed/led_scan.c.obj
LED_bufferMap                                     CMakeFiles/kiibohd.dir/Macro/PixelMap/pixel.c.obj
LED_chipSend                                      CMakeFiles/kiibohd.dir/Scan/Devices/ISSILed/led_scan.c.obj
LED_control                                       CMakeFiles/kiibohd.dir/Scan/Devices/ISSILed/led_scan.c.obj
LED_control_capability                            CMakeFiles/kiibohd.dir/Scan/Devices/ISSILed/led_scan.c.obj
                                                  CMakeFiles/kiibohd.dir/Macro/PartialMap/macro.c.obj
LED_currentChange                                 CMakeFiles/kiibohd.dir/Scan/Devices/ISSILed/led_scan.c.obj
                                                  CMakeFiles/kiibohd.dir/Scan/Infinity_Ergodox/scan_loop.c.obj
LED_currentEvent                                  CMakeFiles/kiibohd.dir/Scan/Devices/ISSILed/led_scan.c.obj
LED_displayFPS                                    CMakeFiles/kiibohd.dir/Scan/Devices/ISSILed/led_scan.c.obj
LED_enable                                        CMakeFiles/kiibohd.dir/Scan/Devices/ISSILed/led_scan.c.obj
LED_enable_current                                CMakeFiles/kiibohd.dir/Scan/Devices/ISSILed/led_scan.c.obj
LED_framerate                                     CMakeFiles/kiibohd.dir/Scan/Devices/ISSILed/led_scan.c.obj
LED_ledEnableMask                                 CMakeFiles/kiibohd.dir/Scan/Devices/ISSILed/led_scan.c.obj
LED_linkedSend                                    CMakeFiles/kiibohd.dir/Scan/Devices/ISSILed/led_scan.c.obj
LED_pageBuffer                                    CMakeFiles/kiibohd.dir/generatedPixelmap.c.obj
                                                  CMakeFiles/kiibohd.dir/Scan/Devices/ISSILed/led_scan.c.obj
LED_pageBuffer_brightness                         CMakeFiles/kiibohd.dir/Scan/Devices/ISSILed/led_scan.c.obj
LED_pause                                         CMakeFiles/kiibohd.dir/Scan/Devices/ISSILed/led_scan.c.obj
LED_readReg                                       CMakeFiles/kiibohd.dir/Scan/Devices/ISSILed/led_scan.c.obj
LED_reset                                         CMakeFiles/kiibohd.dir/Scan/Devices/ISSILed/led_scan.c.obj
LED_scan                                          CMakeFiles/kiibohd.dir/Scan/Devices/ISSILed/led_scan.c.obj
                                                  CMakeFiles/kiibohd.dir/Scan/Infinity_Ergodox/scan_loop.c.obj
LED_sendPage                                      CMakeFiles/kiibohd.dir/Scan/Devices/ISSILed/led_scan.c.obj
LED_setBrightness                                 CMakeFiles/kiibohd.dir/Scan/Devices/ISSILed/led_scan.c.obj
LED_setup                                         CMakeFiles/kiibohd.dir/Scan/Devices/ISSILed/led_scan.c.obj
                                                  CMakeFiles/kiibohd.dir/Scan/Infinity_Ergodox/scan_loop.c.obj
LED_setupPage                                     CMakeFiles/kiibohd.dir/Scan/Devices/ISSILed/led_scan.c.obj
LED_shortOpenDetect                               CMakeFiles/kiibohd.dir/Scan/Devices/ISSILed/led_scan.c.obj
LED_syncReg                                       CMakeFiles/kiibohd.dir/Scan/Devices/ISSILed/led_scan.c.obj
LED_timePrev                                      CMakeFiles/kiibohd.dir/Scan/Devices/ISSILed/led_scan.c.obj
LED_writeReg                                      CMakeFiles/kiibohd.dir/Scan/Devices/ISSILed/led_scan.c.obj
LED_zeroControlPages                              CMakeFiles/kiibohd.dir/Scan/Devices/ISSILed/led_scan.c.obj
LED_zeroPages                                     CMakeFiles/kiibohd.dir/Scan/Devices/ISSILed/led_scan.c.obj
Latency_add_resource                              CMakeFiles/kiibohd.dir/Debug/latency/latency.c.obj
                                                  CMakeFiles/kiibohd.dir/Output/USB/output_usb.c.obj
                                                  CMakeFiles/kiibohd.dir/Output/HID-IO/hidio_com.c.obj
                                                  CMakeFiles/kiibohd.dir/Macro/PixelMap/pixel.c.obj
                                                  CMakeFiles/kiibohd.dir/Macro/PartialMap/macro.c.obj
                                                  CMakeFiles/kiibohd.dir/Scan/Devices/UARTConnect/connect_scan.c.obj
                                                  CMakeFiles/kiibohd.dir/Scan/Devices/STLcd/lcd_scan.c.obj
                                                  CMakeFiles/kiibohd.dir/Scan/Devices/MatrixARMPeriodic/matrix_scan.c.obj
                                                  CMakeFiles/kiibohd.dir/Scan/Devices/ISSILed/led_scan.c.obj
Latency_end_time                                  CMakeFiles/kiibohd.dir/Debug/latency/latency.c.obj
                                                  CMakeFiles/kiibohd.dir/Output/USB/output_usb.c.obj
                                                  CMakeFiles/kiibohd.dir/Output/HID-IO/hidio_com.c.obj
                                                  CMakeFiles/kiibohd.dir/Macro/PixelMap/pixel.c.obj
                                                  CMakeFiles/kiibohd.dir/Macro/PartialMap/macro.c.obj
                                                  CMakeFiles/kiibohd.dir/Scan/Devices/UARTConnect/connect_scan.c.obj
                                                  CMakeFiles/kiibohd.dir/Scan/Devices/STLcd/lcd_scan.c.obj
                                                  CMakeFiles/kiibohd.dir/Scan/Devices/MatrixARMPeriodic/matrix_scan.c.obj
                                                  CMakeFiles/kiibohd.dir/Scan/Devices/ISSILed/led_scan.c.obj
Latency_init                                      CMakeFiles/kiibohd.dir/Debug/latency/latency.c.obj
                                                  CMakeFiles/kiibohd.dir/main.c.obj
Latency_query                                     CMakeFiles/kiibohd.dir/Debug/latency/latency.c.obj
                                                  CMakeFiles/kiibohd.dir/Debug/cli/cli.c.obj
Latency_query_name                                CMakeFiles/kiibohd.dir/Debug/latency/latency.c.obj
                                                  CMakeFiles/kiibohd.dir/Debug/cli/cli.c.obj
Latency_resources                                 CMakeFiles/kiibohd.dir/Debug/latency/latency.c.obj
                                                  CMakeFiles/kiibohd.dir/Debug/cli/cli.c.obj
Latency_start_time                                CMakeFiles/kiibohd.dir/Debug/latency/latency.c.obj
                                                  CMakeFiles/kiibohd.dir/Output/USB/output_usb.c.obj
                                                  CMakeFiles/kiibohd.dir/Output/HID-IO/hidio_com.c.obj
                                                  CMakeFiles/kiibohd.dir/Macro/PixelMap/pixel.c.obj
                                                  CMakeFiles/kiibohd.dir/Macro/PartialMap/macro.c.obj
                                                  CMakeFiles/kiibohd.dir/Scan/Devices/UARTConnect/connect_scan.c.obj
                                                  CMakeFiles/kiibohd.dir/Scan/Devices/STLcd/lcd_scan.c.obj
                                                  CMakeFiles/kiibohd.dir/Scan/Devices/MatrixARMPeriodic/matrix_scan.c.obj
                                                  CMakeFiles/kiibohd.dir/Scan/Devices/ISSILed/led_scan.c.obj
LayerIndex                                        CMakeFiles/kiibohd.dir/Macro/PartialMap/macro.c.obj
                                                  CMakeFiles/kiibohd.dir/Macro/PartialMap/layer.c.obj
LayerState                                        CMakeFiles/kiibohd.dir/Macro/PartialMap/macro.c.obj
                                                  CMakeFiles/kiibohd.dir/Macro/PartialMap/layer.c.obj
Layer_clearLayers                                 CMakeFiles/kiibohd.dir/Macro/PartialMap/layer.c.obj
Layer_layerLatch_capability                       CMakeFiles/kiibohd.dir/Macro/PartialMap/layer.c.obj
                                                  CMakeFiles/kiibohd.dir/Macro/PartialMap/macro.c.obj
Layer_layerLock_capability                        CMakeFiles/kiibohd.dir/Macro/PartialMap/layer.c.obj
                                                  CMakeFiles/kiibohd.dir/Macro/PartialMap/macro.c.obj
Layer_layerLookup                                 CMakeFiles/kiibohd.dir/Macro/PartialMap/layer.c.obj
                                                  CMakeFiles/kiibohd.dir/Macro/PartialMap/trigger.c.obj
Layer_layerRotate_capability                      CMakeFiles/kiibohd.dir/Macro/PartialMap/layer.c.obj
                                                  CMakeFiles/kiibohd.dir/Macro/PartialMap/macro.c.obj
Layer_layerShift_capability                       CMakeFiles/kiibohd.dir/Macro/PartialMap/layer.c.obj
                                                  CMakeFiles/kiibohd.dir/Macro/PartialMap/macro.c.obj
Layer_layerStateSet                               CMakeFiles/kiibohd.dir/Macro/PartialMap/layer.c.obj
Layer_layerState_capability                       CMakeFiles/kiibohd.dir/Macro/PartialMap/layer.c.obj
                                                  CMakeFiles/kiibohd.dir/Macro/PartialMap/macro.c.obj
Layer_rotationLayer                               CMakeFiles/kiibohd.dir/Macro/PartialMap/layer.c.obj
Layer_setup                                       CMakeFiles/kiibohd.dir/Macro/PartialMap/layer.c.obj
                                                  CMakeFiles/kiibohd.dir/Macro/PartialMap/macro.c.obj
Macro_analogState                                 CMakeFiles/kiibohd.dir/Macro/PartialMap/macro.c.obj
Macro_animationState                              CMakeFiles/kiibohd.dir/Macro/PartialMap/macro.c.obj
                                                  CMakeFiles/kiibohd.dir/Macro/PixelMap/pixel.c.obj
Macro_keyState                                    CMakeFiles/kiibohd.dir/Macro/PartialMap/macro.c.obj
                                                  CMakeFiles/kiibohd.dir/Scan/Devices/MatrixARMPeriodic/matrix_scan.c.obj
Macro_layerState                                  CMakeFiles/kiibohd.dir/Macro/PartialMap/macro.c.obj
                                                  CMakeFiles/kiibohd.dir/Macro/PartialMap/layer.c.obj
Macro_ledState                                    CMakeFiles/kiibohd.dir/Macro/PartialMap/macro.c.obj
                                                  CMakeFiles/kiibohd.dir/Output/USB/output_usb.c.obj
Macro_none_capability                             CMakeFiles/kiibohd.dir/Macro/PartialMap/macro.c.obj
Macro_periodic                                    CMakeFiles/kiibohd.dir/Macro/PartialMap/macro.c.obj
                                                  CMakeFiles/kiibohd.dir/main.c.obj
Macro_poll                                        CMakeFiles/kiibohd.dir/Macro/PartialMap/macro.c.obj
                                                  CMakeFiles/kiibohd.dir/main.c.obj
Macro_pressReleaseAdd                             CMakeFiles/kiibohd.dir/Macro/PartialMap/macro.c.obj
                                                  CMakeFiles/kiibohd.dir/Scan/Devices/UARTConnect/connect_scan.c.obj
Macro_rotate_capability                           CMakeFiles/kiibohd.dir/Macro/PartialMap/macro.c.obj
Macro_rotationState                               CMakeFiles/kiibohd.dir/Macro/PartialMap/macro.c.obj
Macro_setup                                       CMakeFiles/kiibohd.dir/Macro/PartialMap/macro.c.obj
                                                  CMakeFiles/kiibohd.dir/main.c.obj
Macro_showSchedule                                CMakeFiles/kiibohd.dir/Macro/PartialMap/macro.c.obj
Macro_showScheduleType                            CMakeFiles/kiibohd.dir/Macro/PartialMap/macro.c.obj
Macro_showTriggerEvent                            CMakeFiles/kiibohd.dir/Macro/PartialMap/macro.c.obj
Macro_showTriggerGuide                            CMakeFiles/kiibohd.dir/Macro/PartialMap/macro.c.obj
Macro_showTriggerType                             CMakeFiles/kiibohd.dir/Macro/PartialMap/macro.c.obj
Macro_testThreadSafe_capability                   CMakeFiles/kiibohd.dir/Macro/PartialMap/macro.c.obj
Macro_testThreadUnsafe_capability                 CMakeFiles/kiibohd.dir/Macro/PartialMap/macro.c.obj
Macro_tick_update                                 CMakeFiles/kiibohd.dir/Macro/PartialMap/macro.c.obj
                                                  CMakeFiles/kiibohd.dir/Scan/Devices/MatrixARMPeriodic/matrix_scan.c.obj
Macro_timeState                                   CMakeFiles/kiibohd.dir/Macro/PartialMap/macro.c.obj
Matrix_cols                                       CMakeFiles/kiibohd.dir/Scan/Devices/MatrixARMPeriodic/matrix_scan.c.obj
Matrix_currentChange                              CMakeFiles/kiibohd.dir/Scan/Devices/MatrixARMPeriodic/matrix_scan.c.obj
                                                  CMakeFiles/kiibohd.dir/Scan/Infinity_Ergodox/scan_loop.c.obj
Matrix_keyPositionDebug                           CMakeFiles/kiibohd.dir/Scan/Devices/MatrixARMPeriodic/matrix_scan.c.obj
Matrix_rows                                       CMakeFiles/kiibohd.dir/Scan/Devices/MatrixARMPeriodic/matrix_scan.c.obj
Matrix_setup                                      CMakeFiles/kiibohd.dir/Scan/Devices/MatrixARMPeriodic/matrix_scan.c.obj
                                                  CMakeFiles/kiibohd.dir/Scan/Infinity_Ergodox/scan_loop.c.obj
Matrix_single_scan                                CMakeFiles/kiibohd.dir/Scan/Devices/MatrixARMPeriodic/matrix_scan.c.obj
                                                  CMakeFiles/kiibohd.dir/Scan/Infinity_Ergodox/scan_loop.c.obj
Matrix_start                                      CMakeFiles/kiibohd.dir/Scan/Devices/MatrixARMPeriodic/matrix_scan.c.obj
                                                  CMakeFiles/kiibohd.dir/Scan/Infinity_Ergodox/scan_loop.c.obj
Matrix_totalColumns                               CMakeFiles/kiibohd.dir/Scan/Devices/MatrixARMPeriodic/matrix_scan.c.obj
Matrix_type                                       CMakeFiles/kiibohd.dir/Scan/Devices/MatrixARMPeriodic/matrix_scan.c.obj
OutputGen_setup                                   CMakeFiles/kiibohd.dir/Output/Interface/output_gen.c.obj
                                                  CMakeFiles/kiibohd.dir/Output/USB/output_com.c.obj
Output_Available                                  CMakeFiles/kiibohd.dir/Output/Interface/output_gen.c.obj
                                                  CMakeFiles/kiibohd.dir/Output/USB/arm/usb_dev.c.obj
                                                  CMakeFiles/kiibohd.dir/Scan/Infinity_Ergodox/scan_loop.c.obj
                                                  CMakeFiles/kiibohd.dir/Scan/Devices/UARTConnect/connect_scan.c.obj
Output_DebugMode                                  CMakeFiles/kiibohd.dir/Output/Interface/output_gen.c.obj
                                                  CMakeFiles/kiibohd.dir/Output/USB/arm/usb_keyboard.c.obj
                                                  CMakeFiles/kiibohd.dir/Output/USB/output_usb.c.obj
Output_ExtCurrent_Available                       CMakeFiles/kiibohd.dir/Output/Interface/output_gen.c.obj
Output_USBCurrent_Available                       CMakeFiles/kiibohd.dir/Output/Interface/output_gen.c.obj
Output_availablechar                              CMakeFiles/kiibohd.dir/Output/USB/output_com.c.obj
                                                  CMakeFiles/kiibohd.dir/Debug/cli/cli.c.obj
Output_consCtrlSend_capability                    CMakeFiles/kiibohd.dir/Output/USB/output_usb.c.obj
                                                  CMakeFiles/kiibohd.dir/Output/Interface/output_gen.c.obj
                                                  CMakeFiles/kiibohd.dir/Macro/PartialMap/macro.c.obj
Output_current_available                          CMakeFiles/kiibohd.dir/Output/Interface/output_gen.c.obj
                                                  CMakeFiles/kiibohd.dir/Scan/Devices/UARTConnect/connect_scan.c.obj
Output_firmwareReload                             CMakeFiles/kiibohd.dir/Output/USB/output_com.c.obj
                                                  CMakeFiles/kiibohd.dir/Output/Interface/output_gen.c.obj
Output_flashMode_capability                       CMakeFiles/kiibohd.dir/Output/Interface/output_gen.c.obj
                                                  CMakeFiles/kiibohd.dir/Macro/PartialMap/macro.c.obj
Output_getchar                                    CMakeFiles/kiibohd.dir/Output/USB/output_com.c.obj
                                                  CMakeFiles/kiibohd.dir/Debug/cli/cli.c.obj
Output_ignored_capability                         CMakeFiles/kiibohd.dir/Output/Interface/output_gen.c.obj
Output_kbdProtocolBoot_capability                 CMakeFiles/kiibohd.dir/Output/USB/output_usb.c.obj
                                                  CMakeFiles/kiibohd.dir/Output/Interface/output_gen.c.obj
                                                  CMakeFiles/kiibohd.dir/Macro/PartialMap/macro.c.obj
Output_kbdProtocolNKRO_capability                 CMakeFiles/kiibohd.dir/Output/USB/output_usb.c.obj
                                                  CMakeFiles/kiibohd.dir/Output/Interface/output_gen.c.obj
                                                  CMakeFiles/kiibohd.dir/Macro/PartialMap/macro.c.obj
Output_noneSend_capability                        CMakeFiles/kiibohd.dir/Output/USB/output_usb.c.obj
                                                  CMakeFiles/kiibohd.dir/Output/Interface/output_gen.c.obj
                                                  CMakeFiles/kiibohd.dir/Macro/PartialMap/macro.c.obj
Output_periodic                                   CMakeFiles/kiibohd.dir/Output/USB/output_com.c.obj
                                                  CMakeFiles/kiibohd.dir/main.c.obj
Output_poll                                       CMakeFiles/kiibohd.dir/Output/USB/output_com.c.obj
                                                  CMakeFiles/kiibohd.dir/main.c.obj
Output_putchar                                    CMakeFiles/kiibohd.dir/Output/USB/output_com.c.obj
                                                  CMakeFiles/kiibohd.dir/Debug/print/print.c.obj
Output_putstr                                     CMakeFiles/kiibohd.dir/Output/USB/output_com.c.obj
                                                  CMakeFiles/kiibohd.dir/Debug/print/print.c.obj
                                                  CMakeFiles/kiibohd.dir/Debug/cli/cli.c.obj
                                                  CMakeFiles/kiibohd.dir/Macro/PartialMap/macro.c.obj
                                                  CMakeFiles/kiibohd.dir/Scan/Devices/UARTConnect/connect_scan.c.obj
Output_rawio_availablechar                        CMakeFiles/kiibohd.dir/Output/USB/output_com.c.obj
                                                  CMakeFiles/kiibohd.dir/Output/HID-IO/hidio_com.c.obj
Output_rawio_getbuffer                            CMakeFiles/kiibohd.dir/Output/USB/output_com.c.obj
                                                  CMakeFiles/kiibohd.dir/Output/HID-IO/hidio_com.c.obj
Output_rawio_sendbuffer                           CMakeFiles/kiibohd.dir/Output/USB/output_com.c.obj
                                                  CMakeFiles/kiibohd.dir/Output/HID-IO/hidio_com.c.obj
Output_setup                                      CMakeFiles/kiibohd.dir/Output/USB/output_com.c.obj
                                                  CMakeFiles/kiibohd.dir/main.c.obj
Output_softReset                                  CMakeFiles/kiibohd.dir/Output/USB/output_com.c.obj
                                                  CMakeFiles/kiibohd.dir/Debug/cli/cli.c.obj
Output_sysCtrlSend_capability                     CMakeFiles/kiibohd.dir/Output/USB/output_usb.c.obj
                                                  CMakeFiles/kiibohd.dir/Output/Interface/output_gen.c.obj
                                                  CMakeFiles/kiibohd.dir/Macro/PartialMap/macro.c.obj
Output_toggleKbdProtocol_capability               CMakeFiles/kiibohd.dir/Output/USB/output_usb.c.obj
                                                  CMakeFiles/kiibohd.dir/Output/Interface/output_gen.c.obj
                                                  CMakeFiles/kiibohd.dir/Macro/PartialMap/macro.c.obj
Output_update_external_current                    CMakeFiles/kiibohd.dir/Output/Interface/output_gen.c.obj
                                                  CMakeFiles/kiibohd.dir/Scan/Devices/UARTConnect/connect_scan.c.obj
Output_update_usb_current                         CMakeFiles/kiibohd.dir/Output/Interface/output_gen.c.obj
                                                  CMakeFiles/kiibohd.dir/Output/USB/arm/usb_dev.c.obj
Output_usbCodeSend_capability                     CMakeFiles/kiibohd.dir/Output/USB/output_usb.c.obj
                                                  CMakeFiles/kiibohd.dir/Output/Interface/output_gen.c.obj
                                                  CMakeFiles/kiibohd.dir/Macro/PartialMap/macro.c.obj
Output_usbMouseWheel_capability                   CMakeFiles/kiibohd.dir/Output/USB/output_usb.c.obj
                                                  CMakeFiles/kiibohd.dir/Output/Interface/output_gen.c.obj
                                                  CMakeFiles/kiibohd.dir/Macro/PartialMap/macro.c.obj
Output_usbMouse_capability                        CMakeFiles/kiibohd.dir/Output/USB/output_usb.c.obj
                                                  CMakeFiles/kiibohd.dir/Output/Interface/output_gen.c.obj
                                                  CMakeFiles/kiibohd.dir/Macro/PartialMap/macro.c.obj
Periodic_cycles                                   CMakeFiles/kiibohd.dir/Lib/periodic.c.obj
                                                  CMakeFiles/kiibohd.dir/Debug/cli/cli.c.obj
Periodic_disable                                  CMakeFiles/kiibohd.dir/Lib/periodic.c.obj
                                                  CMakeFiles/kiibohd.dir/Macro/PartialMap/result.c.obj
Periodic_enable                                   CMakeFiles/kiibohd.dir/Lib/periodic.c.obj
                                                  CMakeFiles/kiibohd.dir/Macro/PartialMap/result.c.obj
Periodic_function                                 CMakeFiles/kiibohd.dir/Lib/periodic.c.obj
                                                  CMakeFiles/kiibohd.dir/main.c.obj
Periodic_init                                     CMakeFiles/kiibohd.dir/Lib/periodic.c.obj
                                                  CMakeFiles/kiibohd.dir/Debug/cli/cli.c.obj
                                                  CMakeFiles/kiibohd.dir/Scan/Devices/MatrixARMPeriodic/matrix_scan.c.obj
Pixel_8bitInterpolation                           CMakeFiles/kiibohd.dir/Macro/PixelMap/pixel.c.obj
Pixel_AnimationControl_capability                 CMakeFiles/kiibohd.dir/Macro/PixelMap/pixel.c.obj
                                                  CMakeFiles/kiibohd.dir/Macro/PartialMap/macro.c.obj
Pixel_AnimationElement_Stor                       CMakeFiles/kiibohd.dir/Macro/PixelMap/pixel.c.obj
Pixel_AnimationIndex_capability                   CMakeFiles/kiibohd.dir/Macro/PixelMap/pixel.c.obj
                                                  CMakeFiles/kiibohd.dir/Macro/PartialMap/macro.c.obj
Pixel_AnimationSettings                           CMakeFiles/kiibohd.dir/generatedPixelmap.c.obj
                                                  CMakeFiles/kiibohd.dir/Macro/PixelMap/pixel.c.obj
Pixel_AnimationStack                              CMakeFiles/kiibohd.dir/Macro/PixelMap/pixel.c.obj
Pixel_Animation_capability                        CMakeFiles/kiibohd.dir/Macro/PixelMap/pixel.c.obj
                                                  CMakeFiles/kiibohd.dir/Macro/PartialMap/macro.c.obj
Pixel_Animations                                  CMakeFiles/kiibohd.dir/generatedPixelmap.c.obj
                                                  CMakeFiles/kiibohd.dir/Macro/PixelMap/pixel.c.obj
Pixel_Buffers                                     CMakeFiles/kiibohd.dir/generatedPixelmap.c.obj
                                                  CMakeFiles/kiibohd.dir/Macro/PixelMap/pixel.c.obj
Pixel_DisplayMapping                              CMakeFiles/kiibohd.dir/generatedPixelmap.c.obj
                                                  CMakeFiles/kiibohd.dir/Macro/PixelMap/pixel.c.obj
Pixel_FadeLayerHighlight_capability               CMakeFiles/kiibohd.dir/Macro/PixelMap/pixel.c.obj
                                                  CMakeFiles/kiibohd.dir/Macro/PartialMap/macro.c.obj
Pixel_FadeSet_capability                          CMakeFiles/kiibohd.dir/Macro/PixelMap/pixel.c.obj
                                                  CMakeFiles/kiibohd.dir/Macro/PartialMap/macro.c.obj
Pixel_FrameState                                  CMakeFiles/kiibohd.dir/Macro/PixelMap/pixel.c.obj
                                                  CMakeFiles/kiibohd.dir/Scan/Devices/ISSILed/led_scan.c.obj
Pixel_LED_DefaultFadeGroup0                       CMakeFiles/kiibohd.dir/generatedPixelmap.c.obj
Pixel_LED_DefaultFadeGroup1                       CMakeFiles/kiibohd.dir/generatedPixelmap.c.obj
Pixel_LED_DefaultFadeGroup2                       CMakeFiles/kiibohd.dir/generatedPixelmap.c.obj
Pixel_LED_DefaultFadeGroups                       CMakeFiles/kiibohd.dir/generatedPixelmap.c.obj
                                                  CMakeFiles/kiibohd.dir/Macro/PixelMap/pixel.c.obj
Pixel_LED_FadePeriod_Defaults                     CMakeFiles/kiibohd.dir/generatedPixelmap.c.obj
                                                  CMakeFiles/kiibohd.dir/Macro/PixelMap/pixel.c.obj
Pixel_LED_FadePeriods                             CMakeFiles/kiibohd.dir/generatedPixelmap.c.obj
                                                  CMakeFiles/kiibohd.dir/Macro/PixelMap/pixel.c.obj
Pixel_Mapping                                     CMakeFiles/kiibohd.dir/generatedPixelmap.c.obj
                                                  CMakeFiles/kiibohd.dir/Macro/PixelMap/pixel.c.obj
Pixel_Pixel_capability                            CMakeFiles/kiibohd.dir/Macro/PixelMap/pixel.c.obj
                                                  CMakeFiles/kiibohd.dir/Macro/PartialMap/macro.c.obj
Pixel_ScanCodeToDisplay                           CMakeFiles/kiibohd.dir/generatedPixelmap.c.obj
                                                  CMakeFiles/kiibohd.dir/Macro/PixelMap/pixel.c.obj
Pixel_ScanCodeToPixel                             CMakeFiles/kiibohd.dir/generatedPixelmap.c.obj
                                                  CMakeFiles/kiibohd.dir/Macro/PixelMap/pixel.c.obj
Pixel_SecondaryProcessing                         CMakeFiles/kiibohd.dir/Macro/PixelMap/pixel.c.obj
Pixel_SecondaryProcessing_profile_init            CMakeFiles/kiibohd.dir/Macro/PixelMap/pixel.c.obj
Pixel_SecondaryProcessing_setup                   CMakeFiles/kiibohd.dir/Macro/PixelMap/pixel.c.obj
Pixel_addAnimation                                CMakeFiles/kiibohd.dir/Macro/PixelMap/pixel.c.obj
Pixel_addDefaultAnimation                         CMakeFiles/kiibohd.dir/Macro/PixelMap/pixel.c.obj
Pixel_animationControl                            CMakeFiles/kiibohd.dir/Macro/PixelMap/pixel.c.obj
Pixel_animationProcess                            CMakeFiles/kiibohd.dir/Macro/PixelMap/pixel.c.obj
Pixel_bufferMap                                   CMakeFiles/kiibohd.dir/Macro/PixelMap/pixel.c.obj
Pixel_channelSet                                  CMakeFiles/kiibohd.dir/Macro/PixelMap/pixel.c.obj
Pixel_channelToggle                               CMakeFiles/kiibohd.dir/Macro/PixelMap/pixel.c.obj
Pixel_clearAnimations                             CMakeFiles/kiibohd.dir/Macro/PixelMap/pixel.c.obj
Pixel_clearPixels                                 CMakeFiles/kiibohd.dir/Macro/PixelMap/pixel.c.obj
Pixel_delAnimation                                CMakeFiles/kiibohd.dir/Macro/PixelMap/pixel.c.obj
Pixel_determineLastTriggerScanCode                CMakeFiles/kiibohd.dir/Macro/PixelMap/pixel.c.obj
Pixel_dispBuffer                                  CMakeFiles/kiibohd.dir/Macro/PixelMap/pixel.c.obj
Pixel_fillPixelLookup                             CMakeFiles/kiibohd.dir/Macro/PixelMap/pixel.c.obj
Pixel_frameTweenInterpolation                     CMakeFiles/kiibohd.dir/Macro/PixelMap/pixel.c.obj
Pixel_frameTweenStandard                          CMakeFiles/kiibohd.dir/Macro/PixelMap/pixel.c.obj
Pixel_initializeStartAnimations                   CMakeFiles/kiibohd.dir/Macro/PixelMap/pixel.c.obj
Pixel_lookupAnimation                             CMakeFiles/kiibohd.dir/Macro/PixelMap/pixel.c.obj
Pixel_pixelEvaluation                             CMakeFiles/kiibohd.dir/Macro/PixelMap/pixel.c.obj
Pixel_pixelInterpolate                            CMakeFiles/kiibohd.dir/Macro/PixelMap/pixel.c.obj
Pixel_pixelSet                                    CMakeFiles/kiibohd.dir/Macro/PixelMap/pixel.c.obj
Pixel_pixelToggle                                 CMakeFiles/kiibohd.dir/Macro/PixelMap/pixel.c.obj
Pixel_pixelTweenInterpolation                     CMakeFiles/kiibohd.dir/Macro/PixelMap/pixel.c.obj
Pixel_pixelTweenNextPos                           CMakeFiles/kiibohd.dir/Macro/PixelMap/pixel.c.obj
Pixel_pixelTweenStandard                          CMakeFiles/kiibohd.dir/Macro/PixelMap/pixel.c.obj
Pixel_process                                     CMakeFiles/kiibohd.dir/Macro/PixelMap/pixel.c.obj
                                                  CMakeFiles/kiibohd.dir/Scan/Infinity_Ergodox/scan_loop.c.obj
Pixel_setAnimationControl                         CMakeFiles/kiibohd.dir/Macro/PixelMap/pixel.c.obj
                                                  CMakeFiles/kiibohd.dir/Scan/Devices/ISSILed/led_scan.c.obj
Pixel_setup                                       CMakeFiles/kiibohd.dir/Macro/PixelMap/pixel.c.obj
                                                  CMakeFiles/kiibohd.dir/Scan/Infinity_Ergodox/scan_loop.c.obj
Pixel_showPixelElement                            CMakeFiles/kiibohd.dir/Macro/PixelMap/pixel.c.obj
Pixel_stackProcess                                CMakeFiles/kiibohd.dir/Macro/PixelMap/pixel.c.obj
Pixel_testMode                                    CMakeFiles/kiibohd.dir/Macro/PixelMap/pixel.c.obj
Pixel_testPos                                     CMakeFiles/kiibohd.dir/Macro/PixelMap/pixel.c.obj
ResetHandler                                      CMakeFiles/kiibohd.dir/Lib/kinetis.c.obj
ResultMacroList                                   CMakeFiles/kiibohd.dir/Macro/PartialMap/macro.c.obj
                                                  CMakeFiles/kiibohd.dir/Macro/PartialMap/trigger.c.obj
                                                  CMakeFiles/kiibohd.dir/Macro/PartialMap/result.c.obj
Result_appendResultMacroToPendingList             CMakeFiles/kiibohd.dir/Macro/PartialMap/result.c.obj
                                                  CMakeFiles/kiibohd.dir/Macro/PartialMap/trigger.c.obj
Result_evalResultMacro                            CMakeFiles/kiibohd.dir/Macro/PartialMap/result.c.obj
Result_evalResultMacroCombo                       CMakeFiles/kiibohd.dir/Macro/PartialMap/result.c.obj
Result_process                                    CMakeFiles/kiibohd.dir/Macro/PartialMap/result.c.obj
                                                  CMakeFiles/kiibohd.dir/Macro/PartialMap/macro.c.obj
Result_process_delayed                            CMakeFiles/kiibohd.dir/Macro/PartialMap/result.c.obj
                                                  CMakeFiles/kiibohd.dir/Macro/PartialMap/macro.c.obj
Result_setup                                      CMakeFiles/kiibohd.dir/Macro/PartialMap/result.c.obj
                                                  CMakeFiles/kiibohd.dir/Macro/PartialMap/macro.c.obj
Rotation_MaxParameter                             CMakeFiles/kiibohd.dir/Macro/PartialMap/macro.c.obj
SPI_setup                                         CMakeFiles/kiibohd.dir/Scan/Devices/STLcd/lcd_scan.c.obj
SPI_write                                         CMakeFiles/kiibohd.dir/Scan/Devices/STLcd/lcd_scan.c.obj
STLcdDefaultImage                                 CMakeFiles/kiibohd.dir/Scan/Devices/STLcd/lcd_scan.c.obj
Scan_currentChange                                CMakeFiles/kiibohd.dir/Scan/Infinity_Ergodox/scan_loop.c.obj
                                                  CMakeFiles/kiibohd.dir/Output/Interface/output_gen.c.obj
Scan_finishedWithMacro                            CMakeFiles/kiibohd.dir/Scan/Infinity_Ergodox/scan_loop.c.obj
                                                  CMakeFiles/kiibohd.dir/Macro/PartialMap/macro.c.obj
Scan_finishedWithOutput                           CMakeFiles/kiibohd.dir/Scan/Infinity_Ergodox/scan_loop.c.obj
                                                  CMakeFiles/kiibohd.dir/Output/USB/output_usb.c.obj
Scan_periodic                                     CMakeFiles/kiibohd.dir/Scan/Infinity_Ergodox/scan_loop.c.obj
                                                  CMakeFiles/kiibohd.dir/main.c.obj
Scan_poll                                         CMakeFiles/kiibohd.dir/Scan/Infinity_Ergodox/scan_loop.c.obj
                                                  CMakeFiles/kiibohd.dir/main.c.obj
Scan_setup                                        CMakeFiles/kiibohd.dir/Scan/Infinity_Ergodox/scan_loop.c.obj
                                                  CMakeFiles/kiibohd.dir/main.c.obj
Time_add                                          CMakeFiles/kiibohd.dir/Lib/time.c.obj
Time_compare                                      CMakeFiles/kiibohd.dir/Lib/time.c.obj
Time_days                                         CMakeFiles/kiibohd.dir/Lib/time.c.obj
Time_duration                                     CMakeFiles/kiibohd.dir/Lib/time.c.obj
                                                  CMakeFiles/kiibohd.dir/Scan/Devices/ISSILed/led_scan.c.obj
Time_duration_days                                CMakeFiles/kiibohd.dir/Lib/time.c.obj
Time_duration_hours                               CMakeFiles/kiibohd.dir/Lib/time.c.obj
Time_duration_minutes                             CMakeFiles/kiibohd.dir/Lib/time.c.obj
Time_duration_ms                                  CMakeFiles/kiibohd.dir/Lib/time.c.obj
                                                  CMakeFiles/kiibohd.dir/Debug/latency/latency.c.obj
                                                  CMakeFiles/kiibohd.dir/Output/USB/arm/usb_serial.c.obj
                                                  CMakeFiles/kiibohd.dir/Output/USB/arm/usb_rawio.c.obj
                                                  CMakeFiles/kiibohd.dir/Output/USB/arm/usb_mouse.c.obj
                                                  CMakeFiles/kiibohd.dir/Output/USB/arm/usb_keyboard.c.obj
Time_duration_ns                                  CMakeFiles/kiibohd.dir/Lib/time.c.obj
                                                  CMakeFiles/kiibohd.dir/Debug/latency/latency.c.obj
Time_duration_rollover                            CMakeFiles/kiibohd.dir/Lib/time.c.obj
Time_duration_rollover_now                        CMakeFiles/kiibohd.dir/Lib/time.c.obj
Time_duration_seconds                             CMakeFiles/kiibohd.dir/Lib/time.c.obj
Time_duration_ticks                               CMakeFiles/kiibohd.dir/Lib/time.c.obj
                                                  CMakeFiles/kiibohd.dir/Debug/latency/latency.c.obj
Time_duration_us                                  CMakeFiles/kiibohd.dir/Lib/time.c.obj
                                                  CMakeFiles/kiibohd.dir/Debug/latency/latency.c.obj
Time_from_days                                    CMakeFiles/kiibohd.dir/Lib/time.c.obj
Time_from_hours                                   CMakeFiles/kiibohd.dir/Lib/time.c.obj
Time_from_minutes                                 CMakeFiles/kiibohd.dir/Lib/time.c.obj
Time_from_ms                                      CMakeFiles/kiibohd.dir/Lib/time.c.obj
Time_from_seconds                                 CMakeFiles/kiibohd.dir/Lib/time.c.obj
Time_hours                                        CMakeFiles/kiibohd.dir/Lib/time.c.obj
Time_init                                         CMakeFiles/kiibohd.dir/Lib/time.c.obj
                                                  CMakeFiles/kiibohd.dir/Scan/Devices/MatrixARMPeriodic/matrix_scan.c.obj
Time_maxTicks                                     CMakeFiles/kiibohd.dir/Lib/time.c.obj
Time_maxTicks_ms                                  CMakeFiles/kiibohd.dir/Lib/time.c.obj
Time_minutes                                      CMakeFiles/kiibohd.dir/Lib/time.c.obj
Time_ms                                           CMakeFiles/kiibohd.dir/Lib/time.c.obj
                                                  CMakeFiles/kiibohd.dir/Scan/Devices/ISSILed/led_scan.c.obj
Time_now                                          CMakeFiles/kiibohd.dir/Lib/time.c.obj
                                                  CMakeFiles/kiibohd.dir/Debug/latency/latency.c.obj
                                                  CMakeFiles/kiibohd.dir/Debug/cli/cli.c.obj
                                                  CMakeFiles/kiibohd.dir/Output/USB/arm/usb_serial.c.obj
                                                  CMakeFiles/kiibohd.dir/Output/USB/arm/usb_rawio.c.obj
                                                  CMakeFiles/kiibohd.dir/Output/USB/arm/usb_mouse.c.obj
                                                  CMakeFiles/kiibohd.dir/Output/USB/arm/usb_keyboard.c.obj
                                                  CMakeFiles/kiibohd.dir/Scan/Devices/ISSILed/led_scan.c.obj
Time_ns                                           CMakeFiles/kiibohd.dir/Lib/time.c.obj
Time_seconds                                      CMakeFiles/kiibohd.dir/Lib/time.c.obj
Time_tick_reset                                   CMakeFiles/kiibohd.dir/Lib/time.c.obj
                                                  CMakeFiles/kiibohd.dir/Macro/PartialMap/macro.c.obj
                                                  CMakeFiles/kiibohd.dir/Scan/Devices/MatrixARMPeriodic/matrix_scan.c.obj
Time_tick_start                                   CMakeFiles/kiibohd.dir/Lib/time.c.obj
                                                  CMakeFiles/kiibohd.dir/Scan/Devices/MatrixARMPeriodic/matrix_scan.c.obj
Time_tick_update                                  CMakeFiles/kiibohd.dir/Lib/time.c.obj
                                                  CMakeFiles/kiibohd.dir/Macro/PartialMap/macro.c.obj
Time_ticks                                        CMakeFiles/kiibohd.dir/Lib/time.c.obj
Time_ticksPer_ns_str                              CMakeFiles/kiibohd.dir/Lib/time.c.obj
                                                  CMakeFiles/kiibohd.dir/Debug/cli/cli.c.obj
Time_ticksPer_ns_x1000                            CMakeFiles/kiibohd.dir/Lib/time.c.obj
Time_us                                           CMakeFiles/kiibohd.dir/Lib/time.c.obj
TriggerMacroList                                  CMakeFiles/kiibohd.dir/Macro/PartialMap/macro.c.obj
                                                  CMakeFiles/kiibohd.dir/Macro/PartialMap/trigger.c.obj
TriggerMacroRecordList                            CMakeFiles/kiibohd.dir/Macro/PartialMap/macro.c.obj
                                                  CMakeFiles/kiibohd.dir/Macro/PartialMap/trigger.c.obj
Trigger_evalLongTriggerMacroVote                  CMakeFiles/kiibohd.dir/Macro/PartialMap/trigger.c.obj
Trigger_evalLongTriggerMacroVote_DRO              CMakeFiles/kiibohd.dir/Macro/PartialMap/trigger.c.obj
Trigger_evalLongTriggerMacroVote_PHRO             CMakeFiles/kiibohd.dir/Macro/PartialMap/trigger.c.obj
Trigger_evalShortTriggerMacroVote                 CMakeFiles/kiibohd.dir/Macro/PartialMap/trigger.c.obj
Trigger_evalShortTriggerMacroVote_DRO             CMakeFiles/kiibohd.dir/Macro/PartialMap/trigger.c.obj
Trigger_evalShortTriggerMacroVote_PHRO            CMakeFiles/kiibohd.dir/Macro/PartialMap/trigger.c.obj
Trigger_evalTriggerMacro                          CMakeFiles/kiibohd.dir/Macro/PartialMap/trigger.c.obj
Trigger_isLongResultMacro                         CMakeFiles/kiibohd.dir/Macro/PartialMap/trigger.c.obj
Trigger_isLongTriggerMacro                        CMakeFiles/kiibohd.dir/Macro/PartialMap/trigger.c.obj
Trigger_overallVote                               CMakeFiles/kiibohd.dir/Macro/PartialMap/trigger.c.obj
Trigger_process                                   CMakeFiles/kiibohd.dir/Macro/PartialMap/trigger.c.obj
                                                  CMakeFiles/kiibohd.dir/Macro/PartialMap/macro.c.obj
Trigger_setup                                     CMakeFiles/kiibohd.dir/Macro/PartialMap/trigger.c.obj
                                                  CMakeFiles/kiibohd.dir/Macro/PartialMap/macro.c.obj
Trigger_showTriggerMacroVote                      CMakeFiles/kiibohd.dir/Macro/PartialMap/trigger.c.obj
Trigger_updateTriggerMacroPendingList             CMakeFiles/kiibohd.dir/Macro/PartialMap/trigger.c.obj
USBDev_Address                                    CMakeFiles/kiibohd.dir/Output/USB/output_usb.c.obj
                                                  CMakeFiles/kiibohd.dir/Output/USB/arm/usb_dev.c.obj
USBInit_Ticks                                     CMakeFiles/kiibohd.dir/Output/USB/output_usb.c.obj
                                                  CMakeFiles/kiibohd.dir/Output/USB/arm/usb_dev.c.obj
USBInit_TimeEnd                                   CMakeFiles/kiibohd.dir/Output/USB/output_usb.c.obj
                                                  CMakeFiles/kiibohd.dir/Output/USB/arm/usb_dev.c.obj
USBInit_TimeStart                                 CMakeFiles/kiibohd.dir/Output/USB/output_usb.c.obj
                                                  CMakeFiles/kiibohd.dir/Output/USB/arm/usb_dev.c.obj
USBKeys_Idle_Config                               CMakeFiles/kiibohd.dir/Output/USB/output_usb.c.obj
                                                  CMakeFiles/kiibohd.dir/Output/USB/arm/usb_keyboard.c.obj
                                                  CMakeFiles/kiibohd.dir/Output/USB/arm/usb_dev.c.obj
USBKeys_Idle_Count                                CMakeFiles/kiibohd.dir/Output/USB/output_usb.c.obj
USBKeys_Idle_Expiry                               CMakeFiles/kiibohd.dir/Output/USB/output_usb.c.obj
                                                  CMakeFiles/kiibohd.dir/Output/USB/arm/usb_keyboard.c.obj
                                                  CMakeFiles/kiibohd.dir/Output/USB/arm/usb_dev.c.obj
USBKeys_LEDs                                      CMakeFiles/kiibohd.dir/Output/USB/output_usb.c.obj
                                                  CMakeFiles/kiibohd.dir/Output/USB/arm/usb_dev.c.obj
                                                  CMakeFiles/kiibohd.dir/Scan/Devices/STLcd/lcd_scan.c.obj
USBKeys_LEDs_prev                                 CMakeFiles/kiibohd.dir/Output/USB/output_usb.c.obj
USBKeys_Protocol                                  CMakeFiles/kiibohd.dir/Output/USB/output_usb.c.obj
                                                  CMakeFiles/kiibohd.dir/Output/USB/arm/usb_keyboard.c.obj
USBKeys_Protocol_Change                           CMakeFiles/kiibohd.dir/Output/USB/output_usb.c.obj
                                                  CMakeFiles/kiibohd.dir/Output/USB/arm/usb_dev.c.obj
USBKeys_Protocol_New                              CMakeFiles/kiibohd.dir/Output/USB/output_usb.c.obj
                                                  CMakeFiles/kiibohd.dir/Output/USB/arm/usb_dev.c.obj
USBKeys_Sent                                      CMakeFiles/kiibohd.dir/Output/USB/output_usb.c.obj
USBKeys_idle                                      CMakeFiles/kiibohd.dir/Output/USB/output_usb.c.obj
                                                  CMakeFiles/kiibohd.dir/Output/USB/arm/usb_keyboard.c.obj
USBKeys_primary                                   CMakeFiles/kiibohd.dir/Output/USB/output_usb.c.obj
                                                  CMakeFiles/kiibohd.dir/Macro/PartialMap/macro.c.obj
USBMouse_Buttons                                  CMakeFiles/kiibohd.dir/Output/USB/output_usb.c.obj
                                                  CMakeFiles/kiibohd.dir/Output/USB/arm/usb_mouse.c.obj
USBMouse_Changed                                  CMakeFiles/kiibohd.dir/Output/USB/output_usb.c.obj
                                                  CMakeFiles/kiibohd.dir/Output/USB/arm/usb_mouse.c.obj
USBMouse_HoriWheel                                CMakeFiles/kiibohd.dir/Output/USB/output_usb.c.obj
                                                  CMakeFiles/kiibohd.dir/Output/USB/arm/usb_mouse.c.obj
USBMouse_Relative_x                               CMakeFiles/kiibohd.dir/Output/USB/output_usb.c.obj
                                                  CMakeFiles/kiibohd.dir/Output/USB/arm/usb_mouse.c.obj
USBMouse_Relative_y                               CMakeFiles/kiibohd.dir/Output/USB/output_usb.c.obj
                                                  CMakeFiles/kiibohd.dir/Output/USB/arm/usb_mouse.c.obj
USBMouse_VertWheel                                CMakeFiles/kiibohd.dir/Output/USB/output_usb.c.obj
                                                  CMakeFiles/kiibohd.dir/Output/USB/arm/usb_mouse.c.obj
USB_6KRODebug                                     CMakeFiles/kiibohd.dir/Output/USB/output_usb.c.obj
                                                  CMakeFiles/kiibohd.dir/Output/USB/arm/usb_keyboard.c.obj
USB_ConsCtrlDebug                                 CMakeFiles/kiibohd.dir/Output/USB/output_usb.c.obj
                                                  CMakeFiles/kiibohd.dir/Output/USB/arm/usb_keyboard.c.obj
USB_NKRODebug                                     CMakeFiles/kiibohd.dir/Output/USB/output_usb.c.obj
                                                  CMakeFiles/kiibohd.dir/Output/USB/arm/usb_keyboard.c.obj
USB_SysCtrlDebug                                  CMakeFiles/kiibohd.dir/Output/USB/output_usb.c.obj
                                                  CMakeFiles/kiibohd.dir/Output/USB/arm/usb_keyboard.c.obj
USB_availablechar                                 CMakeFiles/kiibohd.dir/Output/USB/output_usb.c.obj
                                                  CMakeFiles/kiibohd.dir/Output/USB/output_com.c.obj
USB_firmwareReload                                CMakeFiles/kiibohd.dir/Output/USB/output_usb.c.obj
                                                  CMakeFiles/kiibohd.dir/Output/USB/output_com.c.obj
USB_flushBuffers                                  CMakeFiles/kiibohd.dir/Output/USB/output_usb.c.obj
USB_getchar                                       CMakeFiles/kiibohd.dir/Output/USB/output_usb.c.obj
                                                  CMakeFiles/kiibohd.dir/Output/USB/output_com.c.obj
USB_indicator_update                              CMakeFiles/kiibohd.dir/Output/USB/output_usb.c.obj
USB_periodic                                      CMakeFiles/kiibohd.dir/Output/USB/output_usb.c.obj
                                                  CMakeFiles/kiibohd.dir/Output/USB/output_com.c.obj
USB_poll                                          CMakeFiles/kiibohd.dir/Output/USB/output_usb.c.obj
                                                  CMakeFiles/kiibohd.dir/Output/USB/output_com.c.obj
USB_putchar                                       CMakeFiles/kiibohd.dir/Output/USB/output_usb.c.obj
                                                  CMakeFiles/kiibohd.dir/Output/USB/output_com.c.obj
USB_putstr                                        CMakeFiles/kiibohd.dir/Output/USB/output_usb.c.obj
                                                  CMakeFiles/kiibohd.dir/Output/USB/output_com.c.obj
USB_rawio_availablechar                           CMakeFiles/kiibohd.dir/Output/USB/output_usb.c.obj
                                                  CMakeFiles/kiibohd.dir/Output/USB/output_com.c.obj
USB_rawio_getbuffer                               CMakeFiles/kiibohd.dir/Output/USB/output_usb.c.obj
                                                  CMakeFiles/kiibohd.dir/Output/USB/output_com.c.obj
USB_rawio_sendbuffer                              CMakeFiles/kiibohd.dir/Output/USB/output_usb.c.obj
                                                  CMakeFiles/kiibohd.dir/Output/USB/output_com.c.obj
USB_setup                                         CMakeFiles/kiibohd.dir/Output/USB/output_usb.c.obj
                                                  CMakeFiles/kiibohd.dir/Output/USB/output_com.c.obj
USB_softReset                                     CMakeFiles/kiibohd.dir/Output/USB/output_usb.c.obj
                                                  CMakeFiles/kiibohd.dir/Output/USB/output_com.c.obj
USB_suspend_status_update                         CMakeFiles/kiibohd.dir/Output/USB/output_usb.c.obj
__brkval                                          CMakeFiles/kiibohd.dir/Lib/kinetis.c.obj
__stack_chk_fail                                  CMakeFiles/kiibohd.dir/Lib/kinetis.c.obj
                                                  CMakeFiles/kiibohd.dir/Debug/print/print.c.obj
                                                  CMakeFiles/kiibohd.dir/Debug/led/led.c.obj
                                                  CMakeFiles/kiibohd.dir/Debug/latency/latency.c.obj
                                                  CMakeFiles/kiibohd.dir/Debug/cli/cli.c.obj
                                                  CMakeFiles/kiibohd.dir/Output/USB/arm/usb_serial.c.obj
                                                  CMakeFiles/kiibohd.dir/Output/USB/arm/usb_rawio.c.obj
                                                  CMakeFiles/kiibohd.dir/Output/USB/arm/usb_mouse.c.obj
                                                  CMakeFiles/kiibohd.dir/Output/USB/arm/usb_mem.c.obj
                                                  CMakeFiles/kiibohd.dir/Output/USB/arm/usb_keyboard.c.obj
                                                  CMakeFiles/kiibohd.dir/Output/USB/arm/usb_dev.c.obj
                                                  CMakeFiles/kiibohd.dir/Output/USB/arm/usb_desc.c.obj
                                                  CMakeFiles/kiibohd.dir/Output/USB/output_usb.c.obj
                                                  CMakeFiles/kiibohd.dir/Output/USB/output_com.c.obj
                                                  CMakeFiles/kiibohd.dir/Output/Interface/output_gen.c.obj
                                                  CMakeFiles/kiibohd.dir/Output/HID-IO/hidio_com.c.obj
                                                  CMakeFiles/kiibohd.dir/Macro/PixelMap/pixel.c.obj
                                                  CMakeFiles/kiibohd.dir/Macro/PartialMap/trigger.c.obj
                                                  CMakeFiles/kiibohd.dir/Macro/PartialMap/result.c.obj
                                                  CMakeFiles/kiibohd.dir/Macro/PartialMap/macro.c.obj
                                                  CMakeFiles/kiibohd.dir/Macro/PartialMap/layer.c.obj
                                                  CMakeFiles/kiibohd.dir/Macro/PartialMap/kll.c.obj
                                                  CMakeFiles/kiibohd.dir/Scan/Infinity_Ergodox/scan_loop.c.obj
                                                  CMakeFiles/kiibohd.dir/Scan/Devices/UARTConnect/connect_scan.c.obj
                                                  CMakeFiles/kiibohd.dir/Scan/Devices/STLcd/lcd_scan.c.obj
                                                  CMakeFiles/kiibohd.dir/Scan/Devices/MatrixARMPeriodic/matrix_scan.c.obj
                                                  CMakeFiles/kiibohd.dir/Scan/Devices/ISSILed/led_scan.c.obj
                                                  CMakeFiles/kiibohd.dir/Scan/Devices/ISSILed/i2c.c.obj
                                                  CMakeFiles/kiibohd.dir/Lib/arm_cortex.c.obj
                                                  CMakeFiles/kiibohd.dir/Lib/time.c.obj
                                                  CMakeFiles/kiibohd.dir/Lib/periodic.c.obj
                                                  CMakeFiles/kiibohd.dir/Lib/gpio.c.obj
                                                  CMakeFiles/kiibohd.dir/Lib/entropy.c.obj
                                                  CMakeFiles/kiibohd.dir/Lib/delay.c.obj
                                                  CMakeFiles/kiibohd.dir/main.c.obj
__stack_chk_guard                                 CMakeFiles/kiibohd.dir/Lib/kinetis.c.obj
                                                  CMakeFiles/kiibohd.dir/Debug/print/print.c.obj
                                                  CMakeFiles/kiibohd.dir/Debug/led/led.c.obj
                                                  CMakeFiles/kiibohd.dir/Debug/latency/latency.c.obj
                                                  CMakeFiles/kiibohd.dir/Debug/cli/cli.c.obj
                                                  CMakeFiles/kiibohd.dir/Output/USB/arm/usb_serial.c.obj
                                                  CMakeFiles/kiibohd.dir/Output/USB/arm/usb_rawio.c.obj
                                                  CMakeFiles/kiibohd.dir/Output/USB/arm/usb_mouse.c.obj
                                                  CMakeFiles/kiibohd.dir/Output/USB/arm/usb_mem.c.obj
                                                  CMakeFiles/kiibohd.dir/Output/USB/arm/usb_keyboard.c.obj
                                                  CMakeFiles/kiibohd.dir/Output/USB/arm/usb_dev.c.obj
                                                  CMakeFiles/kiibohd.dir/Output/USB/arm/usb_desc.c.obj
                                                  CMakeFiles/kiibohd.dir/Output/USB/output_usb.c.obj
                                                  CMakeFiles/kiibohd.dir/Output/USB/output_com.c.obj
                                                  CMakeFiles/kiibohd.dir/Output/Interface/output_gen.c.obj
                                                  CMakeFiles/kiibohd.dir/Output/HID-IO/hidio_com.c.obj
                                                  CMakeFiles/kiibohd.dir/Macro/PixelMap/pixel.c.obj
                                                  CMakeFiles/kiibohd.dir/Macro/PartialMap/trigger.c.obj
                                                  CMakeFiles/kiibohd.dir/Macro/PartialMap/result.c.obj
                                                  CMakeFiles/kiibohd.dir/Macro/PartialMap/macro.c.obj
                                                  CMakeFiles/kiibohd.dir/Macro/PartialMap/layer.c.obj
                                                  CMakeFiles/kiibohd.dir/Macro/PartialMap/kll.c.obj
                                                  CMakeFiles/kiibohd.dir/Scan/Infinity_Ergodox/scan_loop.c.obj
                                                  CMakeFiles/kiibohd.dir/Scan/Devices/UARTConnect/connect_scan.c.obj
                                                  CMakeFiles/kiibohd.dir/Scan/Devices/STLcd/lcd_scan.c.obj
                                                  CMakeFiles/kiibohd.dir/Scan/Devices/MatrixARMPeriodic/matrix_scan.c.obj
                                                  CMakeFiles/kiibohd.dir/Scan/Devices/ISSILed/led_scan.c.obj
                                                  CMakeFiles/kiibohd.dir/Scan/Devices/ISSILed/i2c.c.obj
                                                  CMakeFiles/kiibohd.dir/Lib/arm_cortex.c.obj
                                                  CMakeFiles/kiibohd.dir/Lib/time.c.obj
                                                  CMakeFiles/kiibohd.dir/Lib/periodic.c.obj
                                                  CMakeFiles/kiibohd.dir/Lib/gpio.c.obj
                                                  CMakeFiles/kiibohd.dir/Lib/entropy.c.obj
                                                  CMakeFiles/kiibohd.dir/Lib/delay.c.obj
                                                  CMakeFiles/kiibohd.dir/main.c.obj
_ebss                                             CMakeFiles/kiibohd.dir/Lib/kinetis.c.obj
_edata                                            CMakeFiles/kiibohd.dir/Lib/kinetis.c.obj
_estack                                           CMakeFiles/kiibohd.dir/Lib/kinetis.c.obj
_etext                                            CMakeFiles/kiibohd.dir/Lib/kinetis.c.obj
_print                                            CMakeFiles/kiibohd.dir/Debug/print/print.c.obj
                                                  CMakeFiles/kiibohd.dir/Debug/latency/latency.c.obj
                                                  CMakeFiles/kiibohd.dir/Debug/cli/cli.c.obj
                                                  CMakeFiles/kiibohd.dir/Output/USB/arm/usb_rawio.c.obj
                                                  CMakeFiles/kiibohd.dir/Output/USB/arm/usb_mouse.c.obj
                                                  CMakeFiles/kiibohd.dir/Output/USB/arm/usb_keyboard.c.obj
                                                  CMakeFiles/kiibohd.dir/Output/USB/arm/usb_dev.c.obj
                                                  CMakeFiles/kiibohd.dir/Output/USB/output_usb.c.obj
                                                  CMakeFiles/kiibohd.dir/Output/Interface/output_gen.c.obj
                                                  CMakeFiles/kiibohd.dir/Output/HID-IO/hidio_com.c.obj
                                                  CMakeFiles/kiibohd.dir/Macro/PixelMap/pixel.c.obj
                                                  CMakeFiles/kiibohd.dir/Macro/PartialMap/trigger.c.obj
                                                  CMakeFiles/kiibohd.dir/Macro/PartialMap/result.c.obj
                                                  CMakeFiles/kiibohd.dir/Macro/PartialMap/macro.c.obj
                                                  CMakeFiles/kiibohd.dir/Macro/PartialMap/layer.c.obj
                                                  CMakeFiles/kiibohd.dir/Scan/Devices/UARTConnect/connect_scan.c.obj
                                                  CMakeFiles/kiibohd.dir/Scan/Devices/STLcd/lcd_scan.c.obj
                                                  CMakeFiles/kiibohd.dir/Scan/Devices/MatrixARMPeriodic/matrix_scan.c.obj
                                                  CMakeFiles/kiibohd.dir/Scan/Devices/ISSILed/led_scan.c.obj
                                                  CMakeFiles/kiibohd.dir/Scan/Devices/ISSILed/i2c.c.obj
                                                  CMakeFiles/kiibohd.dir/Lib/kinetis.c.obj
_sbrk                                             CMakeFiles/kiibohd.dir/Lib/kinetis.c.obj
_sbss                                             CMakeFiles/kiibohd.dir/Lib/kinetis.c.obj
_sdata                                            CMakeFiles/kiibohd.dir/Lib/kinetis.c.obj
adc0_isr                                          CMakeFiles/kiibohd.dir/Lib/kinetis.c.obj
adc1_isr                                          CMakeFiles/kiibohd.dir/Lib/kinetis.c.obj
all_on_frame1                                     CMakeFiles/kiibohd.dir/generatedPixelmap.c.obj
all_on_frames                                     CMakeFiles/kiibohd.dir/generatedPixelmap.c.obj
aniAddCLIDict_DescEntry                           CMakeFiles/kiibohd.dir/Macro/PixelMap/pixel.c.obj
aniDelCLIDict_DescEntry                           CMakeFiles/kiibohd.dir/Macro/PixelMap/pixel.c.obj
aniStackCLIDict_DescEntry                         CMakeFiles/kiibohd.dir/Macro/PixelMap/pixel.c.obj
basicCLIDict                                      CMakeFiles/kiibohd.dir/Debug/cli/cli.c.obj
basicCLIDictName                                  CMakeFiles/kiibohd.dir/Debug/cli/cli.c.obj
bus_fault_default_isr                             CMakeFiles/kiibohd.dir/Lib/kinetis.c.obj
bus_fault_isr                                     CMakeFiles/kiibohd.dir/Lib/kinetis.c.obj
can0_bus_off_isr                                  CMakeFiles/kiibohd.dir/Lib/kinetis.c.obj
can0_error_isr                                    CMakeFiles/kiibohd.dir/Lib/kinetis.c.obj
can0_message_isr                                  CMakeFiles/kiibohd.dir/Lib/kinetis.c.obj
can0_rx_warn_isr                                  CMakeFiles/kiibohd.dir/Lib/kinetis.c.obj
can0_tx_warn_isr                                  CMakeFiles/kiibohd.dir/Lib/kinetis.c.obj
can0_wakeup_isr                                   CMakeFiles/kiibohd.dir/Lib/kinetis.c.obj
can1_bus_off_isr                                  CMakeFiles/kiibohd.dir/Lib/kinetis.c.obj
can1_error_isr                                    CMakeFiles/kiibohd.dir/Lib/kinetis.c.obj
can1_message_isr                                  CMakeFiles/kiibohd.dir/Lib/kinetis.c.obj
can1_rx_warn_isr                                  CMakeFiles/kiibohd.dir/Lib/kinetis.c.obj
can1_tx_warn_isr                                  CMakeFiles/kiibohd.dir/Lib/kinetis.c.obj
can1_wakeup_isr                                   CMakeFiles/kiibohd.dir/Lib/kinetis.c.obj
capDebugCLIDict_DescEntry                         CMakeFiles/kiibohd.dir/Macro/PartialMap/macro.c.obj
capDebugMode                                      CMakeFiles/kiibohd.dir/Macro/PartialMap/result.c.obj
                                                  CMakeFiles/kiibohd.dir/Macro/PartialMap/macro.c.obj
capListCLIDict_DescEntry                          CMakeFiles/kiibohd.dir/Macro/PartialMap/macro.c.obj
capSelectCLIDict_DescEntry                        CMakeFiles/kiibohd.dir/Macro/PartialMap/macro.c.obj
chanTestCLIDict_DescEntry                         CMakeFiles/kiibohd.dir/Macro/PixelMap/pixel.c.obj
clearCLIDict_DescEntry                            CMakeFiles/kiibohd.dir/Debug/cli/cli.c.obj
cliDebugCLIDict_DescEntry                         CMakeFiles/kiibohd.dir/Debug/cli/cli.c.obj
cliFullToggleState                                CMakeFiles/kiibohd.dir/Scan/Devices/STLcd/lcd_scan.c.obj
cliFunc_aniAdd                                    CMakeFiles/kiibohd.dir/Macro/PixelMap/pixel.c.obj
cliFunc_aniDel                                    CMakeFiles/kiibohd.dir/Macro/PixelMap/pixel.c.obj
cliFunc_aniStack                                  CMakeFiles/kiibohd.dir/Macro/PixelMap/pixel.c.obj
cliFunc_capDebug                                  CMakeFiles/kiibohd.dir/Macro/PartialMap/macro.c.obj
cliFunc_capList                                   CMakeFiles/kiibohd.dir/Macro/PartialMap/macro.c.obj
cliFunc_capSelect                                 CMakeFiles/kiibohd.dir/Macro/PartialMap/macro.c.obj
cliFunc_chanTest                                  CMakeFiles/kiibohd.dir/Macro/PixelMap/pixel.c.obj
cliFunc_clear                                     CMakeFiles/kiibohd.dir/Debug/cli/cli.c.obj
cliFunc_cliDebug                                  CMakeFiles/kiibohd.dir/Debug/cli/cli.c.obj
cliFunc_colorTest                                 CMakeFiles/kiibohd.dir/Debug/cli/cli.c.obj
cliFunc_connectCmd                                CMakeFiles/kiibohd.dir/Scan/Devices/UARTConnect/connect_scan.c.obj
cliFunc_connectDbg                                CMakeFiles/kiibohd.dir/Scan/Devices/UARTConnect/connect_scan.c.obj
cliFunc_connectIdl                                CMakeFiles/kiibohd.dir/Scan/Devices/UARTConnect/connect_scan.c.obj
cliFunc_connectLst                                CMakeFiles/kiibohd.dir/Scan/Devices/UARTConnect/connect_scan.c.obj
cliFunc_connectMst                                CMakeFiles/kiibohd.dir/Scan/Devices/UARTConnect/connect_scan.c.obj
cliFunc_connectRst                                CMakeFiles/kiibohd.dir/Scan/Devices/UARTConnect/connect_scan.c.obj
cliFunc_connectSts                                CMakeFiles/kiibohd.dir/Scan/Devices/UARTConnect/connect_scan.c.obj
cliFunc_current                                   CMakeFiles/kiibohd.dir/Output/Interface/output_gen.c.obj
cliFunc_debounce                                  CMakeFiles/kiibohd.dir/Scan/Devices/MatrixARMPeriodic/matrix_scan.c.obj
cliFunc_help                                      CMakeFiles/kiibohd.dir/Debug/cli/cli.c.obj
cliFunc_idle                                      CMakeFiles/kiibohd.dir/Output/USB/output_usb.c.obj
cliFunc_kbdProtocol                               CMakeFiles/kiibohd.dir/Output/USB/output_usb.c.obj
cliFunc_keyHold                                   CMakeFiles/kiibohd.dir/Macro/PartialMap/macro.c.obj
cliFunc_keyPress                                  CMakeFiles/kiibohd.dir/Macro/PartialMap/macro.c.obj
cliFunc_keyRelease                                CMakeFiles/kiibohd.dir/Macro/PartialMap/macro.c.obj
cliFunc_latency                                   CMakeFiles/kiibohd.dir/Debug/cli/cli.c.obj
cliFunc_layerDebug                                CMakeFiles/kiibohd.dir/Macro/PartialMap/macro.c.obj
cliFunc_layerList                                 CMakeFiles/kiibohd.dir/Macro/PartialMap/macro.c.obj
cliFunc_layerState                                CMakeFiles/kiibohd.dir/Macro/PartialMap/macro.c.obj
cliFunc_lcdCmd                                    CMakeFiles/kiibohd.dir/Scan/Devices/STLcd/lcd_scan.c.obj
cliFunc_lcdColor                                  CMakeFiles/kiibohd.dir/Scan/Devices/STLcd/lcd_scan.c.obj
cliFunc_lcdDisp                                   CMakeFiles/kiibohd.dir/Scan/Devices/STLcd/lcd_scan.c.obj
cliFunc_lcdInit                                   CMakeFiles/kiibohd.dir/Scan/Devices/STLcd/lcd_scan.c.obj
cliFunc_lcdTest                                   CMakeFiles/kiibohd.dir/Scan/Devices/STLcd/lcd_scan.c.obj
cliFunc_led                                       CMakeFiles/kiibohd.dir/Debug/cli/cli.c.obj
cliFunc_ledCheck                                  CMakeFiles/kiibohd.dir/Scan/Devices/ISSILed/led_scan.c.obj
cliFunc_ledFPS                                    CMakeFiles/kiibohd.dir/Scan/Devices/ISSILed/led_scan.c.obj
cliFunc_ledReset                                  CMakeFiles/kiibohd.dir/Scan/Devices/ISSILed/led_scan.c.obj
cliFunc_ledSet                                    CMakeFiles/kiibohd.dir/Scan/Devices/ISSILed/led_scan.c.obj
cliFunc_ledToggle                                 CMakeFiles/kiibohd.dir/Scan/Devices/ISSILed/led_scan.c.obj
cliFunc_macroDebug                                CMakeFiles/kiibohd.dir/Macro/PartialMap/macro.c.obj
cliFunc_macroList                                 CMakeFiles/kiibohd.dir/Macro/PartialMap/macro.c.obj
cliFunc_macroProc                                 CMakeFiles/kiibohd.dir/Macro/PartialMap/macro.c.obj
cliFunc_macroShow                                 CMakeFiles/kiibohd.dir/Macro/PartialMap/macro.c.obj
cliFunc_macroStep                                 CMakeFiles/kiibohd.dir/Macro/PartialMap/macro.c.obj
cliFunc_matrixDebug                               CMakeFiles/kiibohd.dir/Scan/Devices/MatrixARMPeriodic/matrix_scan.c.obj
cliFunc_matrixInfo                                CMakeFiles/kiibohd.dir/Scan/Devices/MatrixARMPeriodic/matrix_scan.c.obj
cliFunc_matrixState                               CMakeFiles/kiibohd.dir/Scan/Devices/MatrixARMPeriodic/matrix_scan.c.obj
cliFunc_outputDebug                               CMakeFiles/kiibohd.dir/Output/Interface/output_gen.c.obj
cliFunc_periodic                                  CMakeFiles/kiibohd.dir/Debug/cli/cli.c.obj
cliFunc_pixelList                                 CMakeFiles/kiibohd.dir/Macro/PixelMap/pixel.c.obj
cliFunc_pixelSCTest                               CMakeFiles/kiibohd.dir/Macro/PixelMap/pixel.c.obj
cliFunc_pixelTest                                 CMakeFiles/kiibohd.dir/Macro/PixelMap/pixel.c.obj
cliFunc_pixelXYTest                               CMakeFiles/kiibohd.dir/Macro/PixelMap/pixel.c.obj
cliFunc_posList                                   CMakeFiles/kiibohd.dir/Macro/PartialMap/macro.c.obj
cliFunc_rand                                      CMakeFiles/kiibohd.dir/Debug/cli/cli.c.obj
cliFunc_readLEDs                                  CMakeFiles/kiibohd.dir/Output/USB/output_usb.c.obj
cliFunc_rectDisp                                  CMakeFiles/kiibohd.dir/Macro/PixelMap/pixel.c.obj
cliFunc_reload                                    CMakeFiles/kiibohd.dir/Debug/cli/cli.c.obj
cliFunc_reset                                     CMakeFiles/kiibohd.dir/Debug/cli/cli.c.obj
cliFunc_restart                                   CMakeFiles/kiibohd.dir/Debug/cli/cli.c.obj
cliFunc_strobeDelay                               CMakeFiles/kiibohd.dir/Scan/Devices/MatrixARMPeriodic/matrix_scan.c.obj
cliFunc_tick                                      CMakeFiles/kiibohd.dir/Debug/cli/cli.c.obj
cliFunc_usbAddr                                   CMakeFiles/kiibohd.dir/Output/USB/output_usb.c.obj
cliFunc_usbConf                                   CMakeFiles/kiibohd.dir/Output/USB/output_usb.c.obj
cliFunc_usbInitTime                               CMakeFiles/kiibohd.dir/Output/USB/output_usb.c.obj
cliFunc_version                                   CMakeFiles/kiibohd.dir/Debug/cli/cli.c.obj
cliFunc_voteDebug                                 CMakeFiles/kiibohd.dir/Macro/PartialMap/macro.c.obj
cliNormalReverseToggleState                       CMakeFiles/kiibohd.dir/Scan/Devices/STLcd/lcd_scan.c.obj
cmp0_isr                                          CMakeFiles/kiibohd.dir/Lib/kinetis.c.obj
cmp1_isr                                          CMakeFiles/kiibohd.dir/Lib/kinetis.c.obj
cmp2_isr                                          CMakeFiles/kiibohd.dir/Lib/kinetis.c.obj
cmp3_isr                                          CMakeFiles/kiibohd.dir/Lib/kinetis.c.obj
cmt_isr                                           CMakeFiles/kiibohd.dir/Lib/kinetis.c.obj
colorTestCLIDict_DescEntry                        CMakeFiles/kiibohd.dir/Debug/cli/cli.c.obj
connectCmdCLIDict_DescEntry                       CMakeFiles/kiibohd.dir/Scan/Devices/UARTConnect/connect_scan.c.obj
connectDbgCLIDict_DescEntry                       CMakeFiles/kiibohd.dir/Scan/Devices/UARTConnect/connect_scan.c.obj
connectIdlCLIDict_DescEntry                       CMakeFiles/kiibohd.dir/Scan/Devices/UARTConnect/connect_scan.c.obj
connectLstCLIDict_DescEntry                       CMakeFiles/kiibohd.dir/Scan/Devices/UARTConnect/connect_scan.c.obj
connectMstCLIDict_DescEntry                       CMakeFiles/kiibohd.dir/Scan/Devices/UARTConnect/connect_scan.c.obj
connectRstCLIDict_DescEntry                       CMakeFiles/kiibohd.dir/Scan/Devices/UARTConnect/connect_scan.c.obj
connectStsCLIDict_DescEntry                       CMakeFiles/kiibohd.dir/Scan/Devices/UARTConnect/connect_scan.c.obj
currentCLIDict_DescEntry                          CMakeFiles/kiibohd.dir/Output/Interface/output_gen.c.obj
cycle_now                                         CMakeFiles/kiibohd.dir/Lib/delay.c.obj
dac0_isr                                          CMakeFiles/kiibohd.dir/Lib/kinetis.c.obj
dac1_isr                                          CMakeFiles/kiibohd.dir/Lib/kinetis.c.obj
debounceCLIDict_DescEntry                         CMakeFiles/kiibohd.dir/Scan/Devices/MatrixARMPeriodic/matrix_scan.c.obj
debug_isr                                         CMakeFiles/kiibohd.dir/Lib/arm_cortex.c.obj
debugmonitor_isr                                  CMakeFiles/kiibohd.dir/Lib/kinetis.c.obj
default_scanMap                                   CMakeFiles/kiibohd.dir/Macro/PartialMap/macro.c.obj
default_tl_0x00                                   CMakeFiles/kiibohd.dir/Macro/PartialMap/macro.c.obj
default_tl_0x01                                   CMakeFiles/kiibohd.dir/Macro/PartialMap/macro.c.obj
default_tl_0x02                                   CMakeFiles/kiibohd.dir/Macro/PartialMap/macro.c.obj
default_tl_0x03                                   CMakeFiles/kiibohd.dir/Macro/PartialMap/macro.c.obj
default_tl_0x04                                   CMakeFiles/kiibohd.dir/Macro/PartialMap/macro.c.obj
default_tl_0x05                                   CMakeFiles/kiibohd.dir/Macro/PartialMap/macro.c.obj
default_tl_0x06                                   CMakeFiles/kiibohd.dir/Macro/PartialMap/macro.c.obj
default_tl_0x07                                   CMakeFiles/kiibohd.dir/Macro/PartialMap/macro.c.obj
default_tl_0x08                                   CMakeFiles/kiibohd.dir/Macro/PartialMap/macro.c.obj
default_tl_0x09                                   CMakeFiles/kiibohd.dir/Macro/PartialMap/macro.c.obj
default_tl_0x0A                                   CMakeFiles/kiibohd.dir/Macro/PartialMap/macro.c.obj
default_tl_0x0B                                   CMakeFiles/kiibohd.dir/Macro/PartialMap/macro.c.obj
default_tl_0x0C                                   CMakeFiles/kiibohd.dir/Macro/PartialMap/macro.c.obj
default_tl_0x0D                                   CMakeFiles/kiibohd.dir/Macro/PartialMap/macro.c.obj
default_tl_0x0E                                   CMakeFiles/kiibohd.dir/Macro/PartialMap/macro.c.obj
default_tl_0x0F                                   CMakeFiles/kiibohd.dir/Macro/PartialMap/macro.c.obj
default_tl_0x10                                   CMakeFiles/kiibohd.dir/Macro/PartialMap/macro.c.obj
default_tl_0x11                                   CMakeFiles/kiibohd.dir/Macro/PartialMap/macro.c.obj
default_tl_0x12                                   CMakeFiles/kiibohd.dir/Macro/PartialMap/macro.c.obj
default_tl_0x13                                   CMakeFiles/kiibohd.dir/Macro/PartialMap/macro.c.obj
default_tl_0x14                                   CMakeFiles/kiibohd.dir/Macro/PartialMap/macro.c.obj
default_tl_0x15                                   CMakeFiles/kiibohd.dir/Macro/PartialMap/macro.c.obj
default_tl_0x16                                   CMakeFiles/kiibohd.dir/Macro/PartialMap/macro.c.obj
default_tl_0x17                                   CMakeFiles/kiibohd.dir/Macro/PartialMap/macro.c.obj
default_tl_0x18                                   CMakeFiles/kiibohd.dir/Macro/PartialMap/macro.c.obj
default_tl_0x19                                   CMakeFiles/kiibohd.dir/Macro/PartialMap/macro.c.obj
default_tl_0x1A                                   CMakeFiles/kiibohd.dir/Macro/PartialMap/macro.c.obj
default_tl_0x1B                                   CMakeFiles/kiibohd.dir/Macro/PartialMap/macro.c.obj
default_tl_0x1C                                   CMakeFiles/kiibohd.dir/Macro/PartialMap/macro.c.obj
default_tl_0x1D                                   CMakeFiles/kiibohd.dir/Macro/PartialMap/macro.c.obj
default_tl_0x1E                                   CMakeFiles/kiibohd.dir/Macro/PartialMap/macro.c.obj
default_tl_0x1F                                   CMakeFiles/kiibohd.dir/Macro/PartialMap/macro.c.obj
default_tl_0x20                                   CMakeFiles/kiibohd.dir/Macro/PartialMap/macro.c.obj
default_tl_0x21                                   CMakeFiles/kiibohd.dir/Macro/PartialMap/macro.c.obj
default_tl_0x22                                   CMakeFiles/kiibohd.dir/Macro/PartialMap/macro.c.obj
default_tl_0x23                                   CMakeFiles/kiibohd.dir/Macro/PartialMap/macro.c.obj
default_tl_0x24                                   CMakeFiles/kiibohd.dir/Macro/PartialMap/macro.c.obj
default_tl_0x25                                   CMakeFiles/kiibohd.dir/Macro/PartialMap/macro.c.obj
default_tl_0x26                                   CMakeFiles/kiibohd.dir/Macro/PartialMap/macro.c.obj
default_tl_0x27                                   CMakeFiles/kiibohd.dir/Macro/PartialMap/macro.c.obj
default_tl_0x28                                   CMakeFiles/kiibohd.dir/Macro/PartialMap/macro.c.obj
default_tl_0x29                                   CMakeFiles/kiibohd.dir/Macro/PartialMap/macro.c.obj
default_tl_0x2A                                   CMakeFiles/kiibohd.dir/Macro/PartialMap/macro.c.obj
default_tl_0x2B                                   CMakeFiles/kiibohd.dir/Macro/PartialMap/macro.c.obj
default_tl_0x2C                                   CMakeFiles/kiibohd.dir/Macro/PartialMap/macro.c.obj
default_tl_0x2D                                   CMakeFiles/kiibohd.dir/Macro/PartialMap/macro.c.obj
default_tl_0x2E                                   CMakeFiles/kiibohd.dir/Macro/PartialMap/macro.c.obj
default_tl_0x2F                                   CMakeFiles/kiibohd.dir/Macro/PartialMap/macro.c.obj
default_tl_0x30                                   CMakeFiles/kiibohd.dir/Macro/PartialMap/macro.c.obj
default_tl_0x31                                   CMakeFiles/kiibohd.dir/Macro/PartialMap/macro.c.obj
default_tl_0x32                                   CMakeFiles/kiibohd.dir/Macro/PartialMap/macro.c.obj
default_tl_0x33                                   CMakeFiles/kiibohd.dir/Macro/PartialMap/macro.c.obj
default_tl_0x34                                   CMakeFiles/kiibohd.dir/Macro/PartialMap/macro.c.obj
default_tl_0x35                                   CMakeFiles/kiibohd.dir/Macro/PartialMap/macro.c.obj
default_tl_0x36                                   CMakeFiles/kiibohd.dir/Macro/PartialMap/macro.c.obj
default_tl_0x37                                   CMakeFiles/kiibohd.dir/Macro/PartialMap/macro.c.obj
default_tl_0x38                                   CMakeFiles/kiibohd.dir/Macro/PartialMap/macro.c.obj
default_tl_0x39                                   CMakeFiles/kiibohd.dir/Macro/PartialMap/macro.c.obj
default_tl_0x3A                                   CMakeFiles/kiibohd.dir/Macro/PartialMap/macro.c.obj
default_tl_0x3B                                   CMakeFiles/kiibohd.dir/Macro/PartialMap/macro.c.obj
default_tl_0x3C                                   CMakeFiles/kiibohd.dir/Macro/PartialMap/macro.c.obj
default_tl_0x3D                                   CMakeFiles/kiibohd.dir/Macro/PartialMap/macro.c.obj
default_tl_0x3E                                   CMakeFiles/kiibohd.dir/Macro/PartialMap/macro.c.obj
default_tl_0x3F                                   CMakeFiles/kiibohd.dir/Macro/PartialMap/macro.c.obj
default_tl_0x40                                   CMakeFiles/kiibohd.dir/Macro/PartialMap/macro.c.obj
default_tl_0x41                                   CMakeFiles/kiibohd.dir/Macro/PartialMap/macro.c.obj
default_tl_0x42                                   CMakeFiles/kiibohd.dir/Macro/PartialMap/macro.c.obj
default_tl_0x43                                   CMakeFiles/kiibohd.dir/Macro/PartialMap/macro.c.obj
default_tl_0x44                                   CMakeFiles/kiibohd.dir/Macro/PartialMap/macro.c.obj
default_tl_0x45                                   CMakeFiles/kiibohd.dir/Macro/PartialMap/macro.c.obj
default_tl_0x46                                   CMakeFiles/kiibohd.dir/Macro/PartialMap/macro.c.obj
default_tl_0x47                                   CMakeFiles/kiibohd.dir/Macro/PartialMap/macro.c.obj
default_tl_0x48                                   CMakeFiles/kiibohd.dir/Macro/PartialMap/macro.c.obj
default_tl_0x49                                   CMakeFiles/kiibohd.dir/Macro/PartialMap/macro.c.obj
default_tl_0x4A                                   CMakeFiles/kiibohd.dir/Macro/PartialMap/macro.c.obj
default_tl_0x4B                                   CMakeFiles/kiibohd.dir/Macro/PartialMap/macro.c.obj
default_tl_0x4C                                   CMakeFiles/kiibohd.dir/Macro/PartialMap/macro.c.obj
default_tl_0x4D                                   CMakeFiles/kiibohd.dir/Macro/PartialMap/macro.c.obj
default_tl_0x4E                                   CMakeFiles/kiibohd.dir/Macro/PartialMap/macro.c.obj
default_tl_0x4F                                   CMakeFiles/kiibohd.dir/Macro/PartialMap/macro.c.obj
default_tl_0x50                                   CMakeFiles/kiibohd.dir/Macro/PartialMap/macro.c.obj
default_tl_0x51                                   CMakeFiles/kiibohd.dir/Macro/PartialMap/macro.c.obj
default_tl_0x52                                   CMakeFiles/kiibohd.dir/Macro/PartialMap/macro.c.obj
default_tl_0x53                                   CMakeFiles/kiibohd.dir/Macro/PartialMap/macro.c.obj
default_tl_0x54                                   CMakeFiles/kiibohd.dir/Macro/PartialMap/macro.c.obj
default_tl_0x55                                   CMakeFiles/kiibohd.dir/Macro/PartialMap/macro.c.obj
default_tl_0x56                                   CMakeFiles/kiibohd.dir/Macro/PartialMap/macro.c.obj
default_tl_0x57                                   CMakeFiles/kiibohd.dir/Macro/PartialMap/macro.c.obj
default_tl_0x58                                   CMakeFiles/kiibohd.dir/Macro/PartialMap/macro.c.obj
default_tl_0x59                                   CMakeFiles/kiibohd.dir/Macro/PartialMap/macro.c.obj
default_tl_0x5A                                   CMakeFiles/kiibohd.dir/Macro/PartialMap/macro.c.obj
delay_cycles                                      CMakeFiles/kiibohd.dir/Lib/delay.c.obj
delay_ms                                          CMakeFiles/kiibohd.dir/Lib/delay.c.obj
                                                  CMakeFiles/kiibohd.dir/Output/USB/arm/usb_dev.c.obj
                                                  CMakeFiles/kiibohd.dir/Scan/Devices/UARTConnect/connect_scan.c.obj
delay_us                                          CMakeFiles/kiibohd.dir/Lib/delay.c.obj
                                                  CMakeFiles/kiibohd.dir/Scan/Devices/STLcd/lcd_scan.c.obj
                                                  CMakeFiles/kiibohd.dir/Scan/Devices/MatrixARMPeriodic/matrix_scan.c.obj
                                                  CMakeFiles/kiibohd.dir/Scan/Devices/ISSILed/led_scan.c.obj
                                                  CMakeFiles/kiibohd.dir/Scan/Devices/ISSILed/i2c.c.obj
disable_write_buffering                           CMakeFiles/kiibohd.dir/Lib/arm_cortex.c.obj
dma_ch0_isr                                       CMakeFiles/kiibohd.dir/Lib/kinetis.c.obj
dma_ch10_isr                                      CMakeFiles/kiibohd.dir/Lib/kinetis.c.obj
dma_ch11_isr                                      CMakeFiles/kiibohd.dir/Lib/kinetis.c.obj
dma_ch12_isr                                      CMakeFiles/kiibohd.dir/Lib/kinetis.c.obj
dma_ch13_isr                                      CMakeFiles/kiibohd.dir/Lib/kinetis.c.obj
dma_ch14_isr                                      CMakeFiles/kiibohd.dir/Lib/kinetis.c.obj
dma_ch15_isr                                      CMakeFiles/kiibohd.dir/Lib/kinetis.c.obj
dma_ch1_isr                                       CMakeFiles/kiibohd.dir/Lib/kinetis.c.obj
dma_ch2_isr                                       CMakeFiles/kiibohd.dir/Lib/kinetis.c.obj
dma_ch3_isr                                       CMakeFiles/kiibohd.dir/Lib/kinetis.c.obj
dma_ch4_isr                                       CMakeFiles/kiibohd.dir/Lib/kinetis.c.obj
dma_ch5_isr                                       CMakeFiles/kiibohd.dir/Lib/kinetis.c.obj
dma_ch6_isr                                       CMakeFiles/kiibohd.dir/Lib/kinetis.c.obj
dma_ch7_isr                                       CMakeFiles/kiibohd.dir/Lib/kinetis.c.obj
dma_ch8_isr                                       CMakeFiles/kiibohd.dir/Lib/kinetis.c.obj
dma_ch9_isr                                       CMakeFiles/kiibohd.dir/Lib/kinetis.c.obj
dma_error_isr                                     CMakeFiles/kiibohd.dir/Lib/kinetis.c.obj
enet_error_isr                                    CMakeFiles/kiibohd.dir/Lib/kinetis.c.obj
enet_rx_isr                                       CMakeFiles/kiibohd.dir/Lib/kinetis.c.obj
enet_timer_isr                                    CMakeFiles/kiibohd.dir/Lib/kinetis.c.obj
enet_tx_isr                                       CMakeFiles/kiibohd.dir/Lib/kinetis.c.obj
eqStr                                             CMakeFiles/kiibohd.dir/Debug/print/print.c.obj
                                                  CMakeFiles/kiibohd.dir/Debug/cli/cli.c.obj
errorLED                                          CMakeFiles/kiibohd.dir/Debug/led/led.c.obj
                                                  CMakeFiles/kiibohd.dir/Debug/cli/cli.c.obj
errorLEDToggle                                    CMakeFiles/kiibohd.dir/Debug/led/led.c.obj
fault_isr                                         CMakeFiles/kiibohd.dir/Lib/kinetis.c.obj
flash_cmd_isr                                     CMakeFiles/kiibohd.dir/Lib/kinetis.c.obj
flash_error_isr                                   CMakeFiles/kiibohd.dir/Lib/kinetis.c.obj
ftm0_isr                                          CMakeFiles/kiibohd.dir/Lib/kinetis.c.obj
ftm1_isr                                          CMakeFiles/kiibohd.dir/Lib/kinetis.c.obj
ftm2_isr                                          CMakeFiles/kiibohd.dir/Lib/kinetis.c.obj
ftm3_isr                                          CMakeFiles/kiibohd.dir/Lib/kinetis.c.obj
gVectors                                          CMakeFiles/kiibohd.dir/Lib/kinetis.c.obj
gWDT_buffer                                       CMakeFiles/kiibohd.dir/Lib/entropy.c.obj
gWDT_buffer_position                              CMakeFiles/kiibohd.dir/Lib/entropy.c.obj
gWDT_entropy_pool                                 CMakeFiles/kiibohd.dir/Lib/entropy.c.obj
gWDT_loop_counter                                 CMakeFiles/kiibohd.dir/Lib/entropy.c.obj
gWDT_pool_count                                   CMakeFiles/kiibohd.dir/Lib/entropy.c.obj
gWDT_pool_end                                     CMakeFiles/kiibohd.dir/Lib/entropy.c.obj
gWDT_pool_start                                   CMakeFiles/kiibohd.dir/Lib/entropy.c.obj
get_current_isr                                   CMakeFiles/kiibohd.dir/Lib/arm_cortex.c.obj
hard_fault_default_isr                            CMakeFiles/kiibohd.dir/Lib/kinetis.c.obj
hard_fault_isr                                    CMakeFiles/kiibohd.dir/Lib/kinetis.c.obj
helpCLIDict_DescEntry                             CMakeFiles/kiibohd.dir/Debug/cli/cli.c.obj
hex32ToStr16                                      CMakeFiles/kiibohd.dir/Debug/print/print.c.obj
                                                  CMakeFiles/kiibohd.dir/Output/USB/arm/usb_dev.c.obj
hex32ToStr_op                                     CMakeFiles/kiibohd.dir/Debug/print/print.c.obj
hexToStr_op                                       CMakeFiles/kiibohd.dir/Debug/print/print.c.obj
hidioCLIDict                                      CMakeFiles/kiibohd.dir/Output/HID-IO/hidio_com.c.obj
hidioCLIDictName                                  CMakeFiles/kiibohd.dir/Output/HID-IO/hidio_com.c.obj
i2c0_isr                                          CMakeFiles/kiibohd.dir/Scan/Devices/ISSILed/i2c.c.obj
                                                  CMakeFiles/kiibohd.dir/Lib/kinetis.c.obj
i2c1_isr                                          CMakeFiles/kiibohd.dir/Scan/Devices/ISSILed/i2c.c.obj
                                                  CMakeFiles/kiibohd.dir/Lib/kinetis.c.obj
i2c2_isr                                          CMakeFiles/kiibohd.dir/Lib/kinetis.c.obj
i2c3_isr                                          CMakeFiles/kiibohd.dir/Lib/kinetis.c.obj
i2c_any_busy                                      CMakeFiles/kiibohd.dir/Scan/Devices/ISSILed/i2c.c.obj
                                                  CMakeFiles/kiibohd.dir/Scan/Devices/ISSILed/led_scan.c.obj
i2c_busy                                          CMakeFiles/kiibohd.dir/Scan/Devices/ISSILed/i2c.c.obj
                                                  CMakeFiles/kiibohd.dir/Scan/Devices/ISSILed/led_scan.c.obj
i2c_channels                                      CMakeFiles/kiibohd.dir/Scan/Devices/ISSILed/i2c.c.obj
i2c_error                                         CMakeFiles/kiibohd.dir/Scan/Devices/ISSILed/i2c.c.obj
                                                  CMakeFiles/kiibohd.dir/Scan/Devices/ISSILed/led_scan.c.obj
i2c_initial                                       CMakeFiles/kiibohd.dir/Scan/Devices/ISSILed/i2c.c.obj
                                                  CMakeFiles/kiibohd.dir/Scan/Devices/ISSILed/led_scan.c.obj
i2c_isr                                           CMakeFiles/kiibohd.dir/Scan/Devices/ISSILed/i2c.c.obj
i2c_offset                                        CMakeFiles/kiibohd.dir/Scan/Devices/ISSILed/i2c.c.obj
i2c_reset                                         CMakeFiles/kiibohd.dir/Scan/Devices/ISSILed/i2c.c.obj
                                                  CMakeFiles/kiibohd.dir/Scan/Devices/ISSILed/led_scan.c.obj
i2c_send_sequence                                 CMakeFiles/kiibohd.dir/Scan/Devices/ISSILed/i2c.c.obj
                                                  CMakeFiles/kiibohd.dir/Scan/Devices/ISSILed/led_scan.c.obj
i2c_setup                                         CMakeFiles/kiibohd.dir/Scan/Devices/ISSILed/i2c.c.obj
                                                  CMakeFiles/kiibohd.dir/Scan/Devices/ISSILed/led_scan.c.obj
i2s0_isr                                          CMakeFiles/kiibohd.dir/Lib/kinetis.c.obj
i2s0_rx_isr                                       CMakeFiles/kiibohd.dir/Lib/kinetis.c.obj
i2s0_tx_isr                                       CMakeFiles/kiibohd.dir/Lib/kinetis.c.obj
idleCLIDict_DescEntry                             CMakeFiles/kiibohd.dir/Output/USB/output_usb.c.obj
init_errorLED                                     CMakeFiles/kiibohd.dir/Debug/led/led.c.obj
                                                  CMakeFiles/kiibohd.dir/Debug/cli/cli.c.obj
int16ToStr                                        CMakeFiles/kiibohd.dir/Debug/print/print.c.obj
int32ToStr                                        CMakeFiles/kiibohd.dir/Debug/print/print.c.obj
int8ToStr                                         CMakeFiles/kiibohd.dir/Debug/print/print.c.obj
kbdProtocolCLIDict_DescEntry                      CMakeFiles/kiibohd.dir/Output/USB/output_usb.c.obj
keyHoldCLIDict_DescEntry                          CMakeFiles/kiibohd.dir/Macro/PartialMap/macro.c.obj
keyPressCLIDict_DescEntry                         CMakeFiles/kiibohd.dir/Macro/PartialMap/macro.c.obj
keyReleaseCLIDict_DescEntry                       CMakeFiles/kiibohd.dir/Macro/PartialMap/macro.c.obj
keyboard_control                                  CMakeFiles/kiibohd.dir/Output/USB/arm/usb_dev.c.obj
latencyCLIDict_DescEntry                          CMakeFiles/kiibohd.dir/Debug/cli/cli.c.obj
layer1_scanMap                                    CMakeFiles/kiibohd.dir/Macro/PartialMap/macro.c.obj
layer1_tl_0x00                                    CMakeFiles/kiibohd.dir/Macro/PartialMap/macro.c.obj
layer1_tl_0x01                                    CMakeFiles/kiibohd.dir/Macro/PartialMap/macro.c.obj
layer1_tl_0x02                                    CMakeFiles/kiibohd.dir/Macro/PartialMap/macro.c.obj
layer1_tl_0x03                                    CMakeFiles/kiibohd.dir/Macro/PartialMap/macro.c.obj
layer1_tl_0x04                                    CMakeFiles/kiibohd.dir/Macro/PartialMap/macro.c.obj
layer1_tl_0x05                                    CMakeFiles/kiibohd.dir/Macro/PartialMap/macro.c.obj
layer1_tl_0x06                                    CMakeFiles/kiibohd.dir/Macro/PartialMap/macro.c.obj
layer1_tl_0x07                                    CMakeFiles/kiibohd.dir/Macro/PartialMap/macro.c.obj
layer1_tl_0x08                                    CMakeFiles/kiibohd.dir/Macro/PartialMap/macro.c.obj
layer1_tl_0x09                                    CMakeFiles/kiibohd.dir/Macro/PartialMap/macro.c.obj
layer1_tl_0x0A                                    CMakeFiles/kiibohd.dir/Macro/PartialMap/macro.c.obj
layer1_tl_0x0B                                    CMakeFiles/kiibohd.dir/Macro/PartialMap/macro.c.obj
layer1_tl_0x0C                                    CMakeFiles/kiibohd.dir/Macro/PartialMap/macro.c.obj
layer1_tl_0x0D                                    CMakeFiles/kiibohd.dir/Macro/PartialMap/macro.c.obj
layer1_tl_0x0E                                    CMakeFiles/kiibohd.dir/Macro/PartialMap/macro.c.obj
layer1_tl_0x0F                                    CMakeFiles/kiibohd.dir/Macro/PartialMap/macro.c.obj
layer1_tl_0x10                                    CMakeFiles/kiibohd.dir/Macro/PartialMap/macro.c.obj
layer1_tl_0x11                                    CMakeFiles/kiibohd.dir/Macro/PartialMap/macro.c.obj
layer1_tl_0x12                                    CMakeFiles/kiibohd.dir/Macro/PartialMap/macro.c.obj
layer1_tl_0x13                                    CMakeFiles/kiibohd.dir/Macro/PartialMap/macro.c.obj
layer1_tl_0x14                                    CMakeFiles/kiibohd.dir/Macro/PartialMap/macro.c.obj
layer1_tl_0x15                                    CMakeFiles/kiibohd.dir/Macro/PartialMap/macro.c.obj
layer1_tl_0x16                                    CMakeFiles/kiibohd.dir/Macro/PartialMap/macro.c.obj
layer1_tl_0x17                                    CMakeFiles/kiibohd.dir/Macro/PartialMap/macro.c.obj
layer1_tl_0x18                                    CMakeFiles/kiibohd.dir/Macro/PartialMap/macro.c.obj
layer1_tl_0x19                                    CMakeFiles/kiibohd.dir/Macro/PartialMap/macro.c.obj
layer1_tl_0x1A                                    CMakeFiles/kiibohd.dir/Macro/PartialMap/macro.c.obj
layer1_tl_0x1B                                    CMakeFiles/kiibohd.dir/Macro/PartialMap/macro.c.obj
layer1_tl_0x1C                                    CMakeFiles/kiibohd.dir/Macro/PartialMap/macro.c.obj
layer1_tl_0x1D                                    CMakeFiles/kiibohd.dir/Macro/PartialMap/macro.c.obj
layer1_tl_0x1E                                    CMakeFiles/kiibohd.dir/Macro/PartialMap/macro.c.obj
layer1_tl_0x1F                                    CMakeFiles/kiibohd.dir/Macro/PartialMap/macro.c.obj
layer1_tl_0x20                                    CMakeFiles/kiibohd.dir/Macro/PartialMap/macro.c.obj
layer1_tl_0x21                                    CMakeFiles/kiibohd.dir/Macro/PartialMap/macro.c.obj
layer1_tl_0x22                                    CMakeFiles/kiibohd.dir/Macro/PartialMap/macro.c.obj
layer1_tl_0x23                                    CMakeFiles/kiibohd.dir/Macro/PartialMap/macro.c.obj
layer1_tl_0x24                                    CMakeFiles/kiibohd.dir/Macro/PartialMap/macro.c.obj
layer1_tl_0x25                                    CMakeFiles/kiibohd.dir/Macro/PartialMap/macro.c.obj
layer1_tl_0x26                                    CMakeFiles/kiibohd.dir/Macro/PartialMap/macro.c.obj
layer1_tl_0x27                                    CMakeFiles/kiibohd.dir/Macro/PartialMap/macro.c.obj
layer1_tl_0x28                                    CMakeFiles/kiibohd.dir/Macro/PartialMap/macro.c.obj
layer1_tl_0x29                                    CMakeFiles/kiibohd.dir/Macro/PartialMap/macro.c.obj
layer1_tl_0x2A                                    CMakeFiles/kiibohd.dir/Macro/PartialMap/macro.c.obj
layer1_tl_0x2B                                    CMakeFiles/kiibohd.dir/Macro/PartialMap/macro.c.obj
layer1_tl_0x2C                                    CMakeFiles/kiibohd.dir/Macro/PartialMap/macro.c.obj
layer1_tl_0x2D                                    CMakeFiles/kiibohd.dir/Macro/PartialMap/macro.c.obj
layer1_tl_0x2E                                    CMakeFiles/kiibohd.dir/Macro/PartialMap/macro.c.obj
layer1_tl_0x2F                                    CMakeFiles/kiibohd.dir/Macro/PartialMap/macro.c.obj
layer1_tl_0x30                                    CMakeFiles/kiibohd.dir/Macro/PartialMap/macro.c.obj
layer1_tl_0x31                                    CMakeFiles/kiibohd.dir/Macro/PartialMap/macro.c.obj
layer1_tl_0x32                                    CMakeFiles/kiibohd.dir/Macro/PartialMap/macro.c.obj
layer1_tl_0x33                                    CMakeFiles/kiibohd.dir/Macro/PartialMap/macro.c.obj
layer1_tl_0x34                                    CMakeFiles/kiibohd.dir/Macro/PartialMap/macro.c.obj
layer1_tl_0x35                                    CMakeFiles/kiibohd.dir/Macro/PartialMap/macro.c.obj
layer1_tl_0x36                                    CMakeFiles/kiibohd.dir/Macro/PartialMap/macro.c.obj
layer1_tl_0x37                                    CMakeFiles/kiibohd.dir/Macro/PartialMap/macro.c.obj
layer1_tl_0x38                                    CMakeFiles/kiibohd.dir/Macro/PartialMap/macro.c.obj
layer1_tl_0x39                                    CMakeFiles/kiibohd.dir/Macro/PartialMap/macro.c.obj
layer1_tl_0x3A                                    CMakeFiles/kiibohd.dir/Macro/PartialMap/macro.c.obj
layer1_tl_0x3B                                    CMakeFiles/kiibohd.dir/Macro/PartialMap/macro.c.obj
layer1_tl_0x3C                                    CMakeFiles/kiibohd.dir/Macro/PartialMap/macro.c.obj
layer1_tl_0x3D                                    CMakeFiles/kiibohd.dir/Macro/PartialMap/macro.c.obj
layer1_tl_0x3E                                    CMakeFiles/kiibohd.dir/Macro/PartialMap/macro.c.obj
layer1_tl_0x3F                                    CMakeFiles/kiibohd.dir/Macro/PartialMap/macro.c.obj
layer1_tl_0x40                                    CMakeFiles/kiibohd.dir/Macro/PartialMap/macro.c.obj
layer1_tl_0x41                                    CMakeFiles/kiibohd.dir/Macro/PartialMap/macro.c.obj
layer1_tl_0x42                                    CMakeFiles/kiibohd.dir/Macro/PartialMap/macro.c.obj
layer1_tl_0x43                                    CMakeFiles/kiibohd.dir/Macro/PartialMap/macro.c.obj
layer1_tl_0x44                                    CMakeFiles/kiibohd.dir/Macro/PartialMap/macro.c.obj
layer1_tl_0x45                                    CMakeFiles/kiibohd.dir/Macro/PartialMap/macro.c.obj
layer1_tl_0x46                                    CMakeFiles/kiibohd.dir/Macro/PartialMap/macro.c.obj
layer1_tl_0x47                                    CMakeFiles/kiibohd.dir/Macro/PartialMap/macro.c.obj
layer1_tl_0x48                                    CMakeFiles/kiibohd.dir/Macro/PartialMap/macro.c.obj
layer1_tl_0x49                                    CMakeFiles/kiibohd.dir/Macro/PartialMap/macro.c.obj
layer2_scanMap                                    CMakeFiles/kiibohd.dir/Macro/PartialMap/macro.c.obj
layer2_tl_0x00                                    CMakeFiles/kiibohd.dir/Macro/PartialMap/macro.c.obj
layer2_tl_0x01                                    CMakeFiles/kiibohd.dir/Macro/PartialMap/macro.c.obj
layer2_tl_0x02                                    CMakeFiles/kiibohd.dir/Macro/PartialMap/macro.c.obj
layer2_tl_0x03                                    CMakeFiles/kiibohd.dir/Macro/PartialMap/macro.c.obj
layer2_tl_0x04                                    CMakeFiles/kiibohd.dir/Macro/PartialMap/macro.c.obj
layer2_tl_0x05                                    CMakeFiles/kiibohd.dir/Macro/PartialMap/macro.c.obj
layer2_tl_0x06                                    CMakeFiles/kiibohd.dir/Macro/PartialMap/macro.c.obj
layer2_tl_0x07                                    CMakeFiles/kiibohd.dir/Macro/PartialMap/macro.c.obj
layer2_tl_0x08                                    CMakeFiles/kiibohd.dir/Macro/PartialMap/macro.c.obj
layer2_tl_0x09                                    CMakeFiles/kiibohd.dir/Macro/PartialMap/macro.c.obj
layer2_tl_0x0A                                    CMakeFiles/kiibohd.dir/Macro/PartialMap/macro.c.obj
layer2_tl_0x0B                                    CMakeFiles/kiibohd.dir/Macro/PartialMap/macro.c.obj
layer2_tl_0x0C                                    CMakeFiles/kiibohd.dir/Macro/PartialMap/macro.c.obj
layer2_tl_0x0D                                    CMakeFiles/kiibohd.dir/Macro/PartialMap/macro.c.obj
layer2_tl_0x0E                                    CMakeFiles/kiibohd.dir/Macro/PartialMap/macro.c.obj
layer2_tl_0x0F                                    CMakeFiles/kiibohd.dir/Macro/PartialMap/macro.c.obj
layer2_tl_0x10                                    CMakeFiles/kiibohd.dir/Macro/PartialMap/macro.c.obj
layer2_tl_0x11                                    CMakeFiles/kiibohd.dir/Macro/PartialMap/macro.c.obj
layer2_tl_0x12                                    CMakeFiles/kiibohd.dir/Macro/PartialMap/macro.c.obj
layer2_tl_0x13                                    CMakeFiles/kiibohd.dir/Macro/PartialMap/macro.c.obj
layer2_tl_0x14                                    CMakeFiles/kiibohd.dir/Macro/PartialMap/macro.c.obj
layer2_tl_0x15                                    CMakeFiles/kiibohd.dir/Macro/PartialMap/macro.c.obj
layer2_tl_0x16                                    CMakeFiles/kiibohd.dir/Macro/PartialMap/macro.c.obj
layer2_tl_0x17                                    CMakeFiles/kiibohd.dir/Macro/PartialMap/macro.c.obj
layer2_tl_0x18                                    CMakeFiles/kiibohd.dir/Macro/PartialMap/macro.c.obj
layer2_tl_0x19                                    CMakeFiles/kiibohd.dir/Macro/PartialMap/macro.c.obj
layer2_tl_0x1A                                    CMakeFiles/kiibohd.dir/Macro/PartialMap/macro.c.obj
layer2_tl_0x1B                                    CMakeFiles/kiibohd.dir/Macro/PartialMap/macro.c.obj
layer2_tl_0x1C                                    CMakeFiles/kiibohd.dir/Macro/PartialMap/macro.c.obj
layer2_tl_0x1D                                    CMakeFiles/kiibohd.dir/Macro/PartialMap/macro.c.obj
layer2_tl_0x1E                                    CMakeFiles/kiibohd.dir/Macro/PartialMap/macro.c.obj
layer2_tl_0x1F                                    CMakeFiles/kiibohd.dir/Macro/PartialMap/macro.c.obj
layer2_tl_0x20                                    CMakeFiles/kiibohd.dir/Macro/PartialMap/macro.c.obj
layer2_tl_0x21                                    CMakeFiles/kiibohd.dir/Macro/PartialMap/macro.c.obj
layer2_tl_0x22                                    CMakeFiles/kiibohd.dir/Macro/PartialMap/macro.c.obj
layer2_tl_0x23                                    CMakeFiles/kiibohd.dir/Macro/PartialMap/macro.c.obj
layer2_tl_0x24                                    CMakeFiles/kiibohd.dir/Macro/PartialMap/macro.c.obj
layer2_tl_0x25                                    CMakeFiles/kiibohd.dir/Macro/PartialMap/macro.c.obj
layer2_tl_0x26                                    CMakeFiles/kiibohd.dir/Macro/PartialMap/macro.c.obj
layer2_tl_0x27                                    CMakeFiles/kiibohd.dir/Macro/PartialMap/macro.c.obj
layer2_tl_0x28                                    CMakeFiles/kiibohd.dir/Macro/PartialMap/macro.c.obj
layer2_tl_0x29                                    CMakeFiles/kiibohd.dir/Macro/PartialMap/macro.c.obj
layer2_tl_0x2A                                    CMakeFiles/kiibohd.dir/Macro/PartialMap/macro.c.obj
layer2_tl_0x2B                                    CMakeFiles/kiibohd.dir/Macro/PartialMap/macro.c.obj
layer2_tl_0x2C                                    CMakeFiles/kiibohd.dir/Macro/PartialMap/macro.c.obj
layer2_tl_0x2D                                    CMakeFiles/kiibohd.dir/Macro/PartialMap/macro.c.obj
layer2_tl_0x2E                                    CMakeFiles/kiibohd.dir/Macro/PartialMap/macro.c.obj
layer2_tl_0x2F                                    CMakeFiles/kiibohd.dir/Macro/PartialMap/macro.c.obj
layer2_tl_0x30                                    CMakeFiles/kiibohd.dir/Macro/PartialMap/macro.c.obj
layer2_tl_0x31                                    CMakeFiles/kiibohd.dir/Macro/PartialMap/macro.c.obj
layer2_tl_0x32                                    CMakeFiles/kiibohd.dir/Macro/PartialMap/macro.c.obj
layer2_tl_0x33                                    CMakeFiles/kiibohd.dir/Macro/PartialMap/macro.c.obj
layer2_tl_0x34                                    CMakeFiles/kiibohd.dir/Macro/PartialMap/macro.c.obj
layer2_tl_0x35                                    CMakeFiles/kiibohd.dir/Macro/PartialMap/macro.c.obj
layer2_tl_0x36                                    CMakeFiles/kiibohd.dir/Macro/PartialMap/macro.c.obj
layer2_tl_0x37                                    CMakeFiles/kiibohd.dir/Macro/PartialMap/macro.c.obj
layer2_tl_0x38                                    CMakeFiles/kiibohd.dir/Macro/PartialMap/macro.c.obj
layer2_tl_0x39                                    CMakeFiles/kiibohd.dir/Macro/PartialMap/macro.c.obj
layer2_tl_0x3A                                    CMakeFiles/kiibohd.dir/Macro/PartialMap/macro.c.obj
layer2_tl_0x3B                                    CMakeFiles/kiibohd.dir/Macro/PartialMap/macro.c.obj
layer2_tl_0x3C                                    CMakeFiles/kiibohd.dir/Macro/PartialMap/macro.c.obj
layer2_tl_0x3D                                    CMakeFiles/kiibohd.dir/Macro/PartialMap/macro.c.obj
layer2_tl_0x3E                                    CMakeFiles/kiibohd.dir/Macro/PartialMap/macro.c.obj
layer2_tl_0x3F                                    CMakeFiles/kiibohd.dir/Macro/PartialMap/macro.c.obj
layer2_tl_0x40                                    CMakeFiles/kiibohd.dir/Macro/PartialMap/macro.c.obj
layer2_tl_0x41                                    CMakeFiles/kiibohd.dir/Macro/PartialMap/macro.c.obj
layer2_tl_0x42                                    CMakeFiles/kiibohd.dir/Macro/PartialMap/macro.c.obj
layer2_tl_0x43                                    CMakeFiles/kiibohd.dir/Macro/PartialMap/macro.c.obj
layer2_tl_0x44                                    CMakeFiles/kiibohd.dir/Macro/PartialMap/macro.c.obj
layer2_tl_0x45                                    CMakeFiles/kiibohd.dir/Macro/PartialMap/macro.c.obj
layer2_tl_0x46                                    CMakeFiles/kiibohd.dir/Macro/PartialMap/macro.c.obj
layer2_tl_0x47                                    CMakeFiles/kiibohd.dir/Macro/PartialMap/macro.c.obj
layer2_tl_0x48                                    CMakeFiles/kiibohd.dir/Macro/PartialMap/macro.c.obj
layer2_tl_0x49                                    CMakeFiles/kiibohd.dir/Macro/PartialMap/macro.c.obj
layer2_tl_0x4A                                    CMakeFiles/kiibohd.dir/Macro/PartialMap/macro.c.obj
layer2_tl_0x4B                                    CMakeFiles/kiibohd.dir/Macro/PartialMap/macro.c.obj
layer2_tl_0x4C                                    CMakeFiles/kiibohd.dir/Macro/PartialMap/macro.c.obj
layer2_tl_0x4D                                    CMakeFiles/kiibohd.dir/Macro/PartialMap/macro.c.obj
layer2_tl_0x4E                                    CMakeFiles/kiibohd.dir/Macro/PartialMap/macro.c.obj
layer2_tl_0x4F                                    CMakeFiles/kiibohd.dir/Macro/PartialMap/macro.c.obj
layer2_tl_0x50                                    CMakeFiles/kiibohd.dir/Macro/PartialMap/macro.c.obj
layerDebugCLIDict_DescEntry                       CMakeFiles/kiibohd.dir/Macro/PartialMap/macro.c.obj
layerDebugMode                                    CMakeFiles/kiibohd.dir/Macro/PartialMap/layer.c.obj
                                                  CMakeFiles/kiibohd.dir/Macro/PartialMap/macro.c.obj
layerListCLIDict_DescEntry                        CMakeFiles/kiibohd.dir/Macro/PartialMap/macro.c.obj
layerStateCLIDict_DescEntry                       CMakeFiles/kiibohd.dir/Macro/PartialMap/macro.c.obj
lcdCLIDict                                        CMakeFiles/kiibohd.dir/Scan/Devices/STLcd/lcd_scan.c.obj
lcdCLIDictName                                    CMakeFiles/kiibohd.dir/Scan/Devices/STLcd/lcd_scan.c.obj
lcdCmdCLIDict_DescEntry                           CMakeFiles/kiibohd.dir/Scan/Devices/STLcd/lcd_scan.c.obj
lcdColorCLIDict_DescEntry                         CMakeFiles/kiibohd.dir/Scan/Devices/STLcd/lcd_scan.c.obj
lcdDispCLIDict_DescEntry                          CMakeFiles/kiibohd.dir/Scan/Devices/STLcd/lcd_scan.c.obj
lcdInitCLIDict_DescEntry                          CMakeFiles/kiibohd.dir/Scan/Devices/STLcd/lcd_scan.c.obj
lcdTestCLIDict_DescEntry                          CMakeFiles/kiibohd.dir/Scan/Devices/STLcd/lcd_scan.c.obj
ledCLIDict                                        CMakeFiles/kiibohd.dir/Scan/Devices/ISSILed/led_scan.c.obj
ledCLIDictName                                    CMakeFiles/kiibohd.dir/Scan/Devices/ISSILed/led_scan.c.obj
ledCLIDict_DescEntry                              CMakeFiles/kiibohd.dir/Debug/cli/cli.c.obj
ledCheckCLIDict_DescEntry                         CMakeFiles/kiibohd.dir/Scan/Devices/ISSILed/led_scan.c.obj
ledFPSCLIDict_DescEntry                           CMakeFiles/kiibohd.dir/Scan/Devices/ISSILed/led_scan.c.obj
ledResetCLIDict_DescEntry                         CMakeFiles/kiibohd.dir/Scan/Devices/ISSILed/led_scan.c.obj
ledSetCLIDict_DescEntry                           CMakeFiles/kiibohd.dir/Scan/Devices/ISSILed/led_scan.c.obj
ledToggleCLIDict_DescEntry                        CMakeFiles/kiibohd.dir/Scan/Devices/ISSILed/led_scan.c.obj
lenStr                                            CMakeFiles/kiibohd.dir/Debug/print/print.c.obj
                                                  CMakeFiles/kiibohd.dir/Debug/cli/cli.c.obj
low_voltage_isr                                   CMakeFiles/kiibohd.dir/Lib/kinetis.c.obj
lptmr_isr                                         CMakeFiles/kiibohd.dir/Lib/entropy.c.obj
                                                  CMakeFiles/kiibohd.dir/Lib/kinetis.c.obj
lpuart0_status_isr                                CMakeFiles/kiibohd.dir/Lib/kinetis.c.obj
macroCLIDict                                      CMakeFiles/kiibohd.dir/Macro/PartialMap/macro.c.obj
macroCLIDictName                                  CMakeFiles/kiibohd.dir/Macro/PartialMap/macro.c.obj
macroDebugCLIDict_DescEntry                       CMakeFiles/kiibohd.dir/Macro/PartialMap/macro.c.obj
macroDebugMode                                    CMakeFiles/kiibohd.dir/Macro/PartialMap/macro.c.obj
macroDebugShowResult                              CMakeFiles/kiibohd.dir/Macro/PartialMap/macro.c.obj
macroDebugShowTrigger                             CMakeFiles/kiibohd.dir/Macro/PartialMap/macro.c.obj
macroInterconnectCache                            CMakeFiles/kiibohd.dir/Macro/PartialMap/macro.c.obj
macroInterconnectCacheSize                        CMakeFiles/kiibohd.dir/Macro/PartialMap/macro.c.obj
macroLayerIndexStack                              CMakeFiles/kiibohd.dir/Macro/PartialMap/layer.c.obj
                                                  CMakeFiles/kiibohd.dir/Scan/Devices/STLcd/lcd_scan.c.obj
macroLayerIndexStackSize                          CMakeFiles/kiibohd.dir/Macro/PartialMap/layer.c.obj
                                                  CMakeFiles/kiibohd.dir/Scan/Devices/STLcd/lcd_scan.c.obj
macroListCLIDict_DescEntry                        CMakeFiles/kiibohd.dir/Macro/PartialMap/macro.c.obj
macroPauseMode                                    CMakeFiles/kiibohd.dir/Macro/PartialMap/macro.c.obj
macroProcCLIDict_DescEntry                        CMakeFiles/kiibohd.dir/Macro/PartialMap/macro.c.obj
macroResultDelayedCapabilities                    CMakeFiles/kiibohd.dir/Macro/PartialMap/result.c.obj
macroResultMacroPendingList                       CMakeFiles/kiibohd.dir/Macro/PartialMap/result.c.obj
                                                  CMakeFiles/kiibohd.dir/Macro/PartialMap/macro.c.obj
macroShowCLIDict_DescEntry                        CMakeFiles/kiibohd.dir/Macro/PartialMap/macro.c.obj
macroStepCLIDict_DescEntry                        CMakeFiles/kiibohd.dir/Macro/PartialMap/macro.c.obj
macroStepCounter                                  CMakeFiles/kiibohd.dir/Macro/PartialMap/macro.c.obj
macroTriggerEventBuffer                           CMakeFiles/kiibohd.dir/Macro/PartialMap/macro.c.obj
                                                  CMakeFiles/kiibohd.dir/Macro/PartialMap/trigger.c.obj
                                                  CMakeFiles/kiibohd.dir/Macro/PartialMap/result.c.obj
macroTriggerEventBufferSize                       CMakeFiles/kiibohd.dir/Macro/PartialMap/macro.c.obj
                                                  CMakeFiles/kiibohd.dir/Macro/PartialMap/trigger.c.obj
                                                  CMakeFiles/kiibohd.dir/Macro/PartialMap/result.c.obj
macroTriggerEventLayerCache                       CMakeFiles/kiibohd.dir/Macro/PartialMap/layer.c.obj
macroTriggerMacroPendingList                      CMakeFiles/kiibohd.dir/Macro/PartialMap/trigger.c.obj
                                                  CMakeFiles/kiibohd.dir/Macro/PartialMap/macro.c.obj
macroTriggerMacroPendingListSize                  CMakeFiles/kiibohd.dir/Macro/PartialMap/trigger.c.obj
                                                  CMakeFiles/kiibohd.dir/Macro/PartialMap/macro.c.obj
main                                              CMakeFiles/kiibohd.dir/main.c.obj
                                                  CMakeFiles/kiibohd.dir/Lib/kinetis.c.obj
main_periodic                                     CMakeFiles/kiibohd.dir/main.c.obj
matrixCLIDict                                     CMakeFiles/kiibohd.dir/Scan/Devices/MatrixARMPeriodic/matrix_scan.c.obj
matrixCLIDictName                                 CMakeFiles/kiibohd.dir/Scan/Devices/MatrixARMPeriodic/matrix_scan.c.obj
matrixDebugCLIDict_DescEntry                      CMakeFiles/kiibohd.dir/Scan/Devices/MatrixARMPeriodic/matrix_scan.c.obj
matrixInfoCLIDict_DescEntry                       CMakeFiles/kiibohd.dir/Scan/Devices/MatrixARMPeriodic/matrix_scan.c.obj
matrixStateCLIDict_DescEntry                      CMakeFiles/kiibohd.dir/Scan/Devices/MatrixARMPeriodic/matrix_scan.c.obj
mcg_isr                                           CMakeFiles/kiibohd.dir/Lib/kinetis.c.obj
mcm_isr                                           CMakeFiles/kiibohd.dir/Lib/kinetis.c.obj
memcmp                                            CMakeFiles/kiibohd.dir/Lib/kinetis.c.obj
memcpy                                            CMakeFiles/kiibohd.dir/Lib/kinetis.c.obj
                                                  CMakeFiles/kiibohd.dir/Output/USB/arm/usb_serial.c.obj
                                                  CMakeFiles/kiibohd.dir/Output/USB/arm/usb_rawio.c.obj
                                                  CMakeFiles/kiibohd.dir/Output/USB/arm/usb_keyboard.c.obj
                                                  CMakeFiles/kiibohd.dir/Output/USB/arm/usb_dev.c.obj
                                                  CMakeFiles/kiibohd.dir/Output/HID-IO/hidio_com.c.obj
                                                  CMakeFiles/kiibohd.dir/Macro/PixelMap/pixel.c.obj
                                                  CMakeFiles/kiibohd.dir/Macro/PartialMap/result.c.obj
                                                  CMakeFiles/kiibohd.dir/Scan/Devices/STLcd/lcd_scan.c.obj
memmanage_fault_default_isr                       CMakeFiles/kiibohd.dir/Lib/kinetis.c.obj
memmanage_fault_isr                               CMakeFiles/kiibohd.dir/Lib/kinetis.c.obj
memset                                            CMakeFiles/kiibohd.dir/Lib/kinetis.c.obj
                                                  CMakeFiles/kiibohd.dir/Debug/latency/latency.c.obj
                                                  CMakeFiles/kiibohd.dir/Output/USB/arm/usb_keyboard.c.obj
                                                  CMakeFiles/kiibohd.dir/Output/USB/output_usb.c.obj
                                                  CMakeFiles/kiibohd.dir/Macro/PixelMap/pixel.c.obj
                                                  CMakeFiles/kiibohd.dir/Macro/PartialMap/macro.c.obj
                                                  CMakeFiles/kiibohd.dir/Macro/PartialMap/layer.c.obj
                                                  CMakeFiles/kiibohd.dir/Scan/Devices/UARTConnect/connect_scan.c.obj
                                                  CMakeFiles/kiibohd.dir/Scan/Devices/STLcd/lcd_scan.c.obj
                                                  CMakeFiles/kiibohd.dir/Scan/Devices/ISSILed/led_scan.c.obj
ms_now                                            CMakeFiles/kiibohd.dir/Lib/delay.c.obj
nmi_default_isr                                   CMakeFiles/kiibohd.dir/Lib/kinetis.c.obj
nmi_isr                                           CMakeFiles/kiibohd.dir/Lib/kinetis.c.obj
numToInt                                          CMakeFiles/kiibohd.dir/Debug/print/print.c.obj
                                                  CMakeFiles/kiibohd.dir/Debug/cli/cli.c.obj
                                                  CMakeFiles/kiibohd.dir/Output/USB/output_usb.c.obj
                                                  CMakeFiles/kiibohd.dir/Output/Interface/output_gen.c.obj
                                                  CMakeFiles/kiibohd.dir/Macro/PixelMap/pixel.c.obj
                                                  CMakeFiles/kiibohd.dir/Macro/PartialMap/macro.c.obj
                                                  CMakeFiles/kiibohd.dir/Scan/Devices/UARTConnect/connect_scan.c.obj
                                                  CMakeFiles/kiibohd.dir/Scan/Devices/STLcd/lcd_scan.c.obj
                                                  CMakeFiles/kiibohd.dir/Scan/Devices/MatrixARMPeriodic/matrix_scan.c.obj
                                                  CMakeFiles/kiibohd.dir/Scan/Devices/ISSILed/led_scan.c.obj
nvic_execution_priority                           CMakeFiles/kiibohd.dir/Lib/kinetis.c.obj
outputCLIDict                                     CMakeFiles/kiibohd.dir/Output/Interface/output_gen.c.obj
outputCLIDictName                                 CMakeFiles/kiibohd.dir/Output/Interface/output_gen.c.obj
outputDebugCLIDict_DescEntry                      CMakeFiles/kiibohd.dir/Output/Interface/output_gen.c.obj
pdb_isr                                           CMakeFiles/kiibohd.dir/Lib/kinetis.c.obj
pendablesrvreq_isr                                CMakeFiles/kiibohd.dir/Lib/kinetis.c.obj
periodicCLIDict_DescEntry                         CMakeFiles/kiibohd.dir/Debug/cli/cli.c.obj
pit0_isr                                          CMakeFiles/kiibohd.dir/Lib/periodic.c.obj
                                                  CMakeFiles/kiibohd.dir/Lib/kinetis.c.obj
pit1_isr                                          CMakeFiles/kiibohd.dir/Lib/kinetis.c.obj
pit2_isr                                          CMakeFiles/kiibohd.dir/Lib/kinetis.c.obj
pit3_isr                                          CMakeFiles/kiibohd.dir/Lib/kinetis.c.obj
pit_isr                                           CMakeFiles/kiibohd.dir/Lib/kinetis.c.obj
pixelCLIDict                                      CMakeFiles/kiibohd.dir/Macro/PixelMap/pixel.c.obj
pixelCLIDictName                                  CMakeFiles/kiibohd.dir/Macro/PixelMap/pixel.c.obj
pixelListCLIDict_DescEntry                        CMakeFiles/kiibohd.dir/Macro/PixelMap/pixel.c.obj
pixelSCTestCLIDict_DescEntry                      CMakeFiles/kiibohd.dir/Macro/PixelMap/pixel.c.obj
pixelTestCLIDict_DescEntry                        CMakeFiles/kiibohd.dir/Macro/PixelMap/pixel.c.obj
pixelXYTestCLIDict_DescEntry                      CMakeFiles/kiibohd.dir/Macro/PixelMap/pixel.c.obj
porta_isr                                         CMakeFiles/kiibohd.dir/Lib/kinetis.c.obj
portb_isr                                         CMakeFiles/kiibohd.dir/Lib/kinetis.c.obj
portc_isr                                         CMakeFiles/kiibohd.dir/Lib/kinetis.c.obj
portcd_isr                                        CMakeFiles/kiibohd.dir/Lib/kinetis.c.obj
portd_isr                                         CMakeFiles/kiibohd.dir/Lib/kinetis.c.obj
porte_isr                                         CMakeFiles/kiibohd.dir/Lib/kinetis.c.obj
posListCLIDict_DescEntry                          CMakeFiles/kiibohd.dir/Macro/PartialMap/macro.c.obj
printChar                                         CMakeFiles/kiibohd.dir/Debug/print/print.c.obj
printHex32_op                                     CMakeFiles/kiibohd.dir/Debug/print/print.c.obj
                                                  CMakeFiles/kiibohd.dir/Debug/cli/cli.c.obj
                                                  CMakeFiles/kiibohd.dir/Output/USB/arm/usb_dev.c.obj
                                                  CMakeFiles/kiibohd.dir/Macro/PixelMap/pixel.c.obj
                                                  CMakeFiles/kiibohd.dir/Macro/PartialMap/macro.c.obj
                                                  CMakeFiles/kiibohd.dir/Scan/Devices/UARTConnect/connect_scan.c.obj
                                                  CMakeFiles/kiibohd.dir/Lib/kinetis.c.obj
printHex_op                                       CMakeFiles/kiibohd.dir/Debug/print/print.c.obj
                                                  CMakeFiles/kiibohd.dir/Debug/cli/cli.c.obj
                                                  CMakeFiles/kiibohd.dir/Output/USB/arm/usb_dev.c.obj
                                                  CMakeFiles/kiibohd.dir/Output/USB/output_usb.c.obj
                                                  CMakeFiles/kiibohd.dir/Macro/PixelMap/pixel.c.obj
                                                  CMakeFiles/kiibohd.dir/Macro/PartialMap/macro.c.obj
                                                  CMakeFiles/kiibohd.dir/Macro/PartialMap/layer.c.obj
                                                  CMakeFiles/kiibohd.dir/Scan/Devices/UARTConnect/connect_scan.c.obj
                                                  CMakeFiles/kiibohd.dir/Scan/Devices/STLcd/lcd_scan.c.obj
                                                  CMakeFiles/kiibohd.dir/Scan/Devices/MatrixARMPeriodic/matrix_scan.c.obj
                                                  CMakeFiles/kiibohd.dir/Lib/kinetis.c.obj
printInt16                                        CMakeFiles/kiibohd.dir/Debug/print/print.c.obj
                                                  CMakeFiles/kiibohd.dir/Debug/cli/cli.c.obj
                                                  CMakeFiles/kiibohd.dir/Output/USB/output_usb.c.obj
                                                  CMakeFiles/kiibohd.dir/Output/Interface/output_gen.c.obj
                                                  CMakeFiles/kiibohd.dir/Output/HID-IO/hidio_com.c.obj
                                                  CMakeFiles/kiibohd.dir/Macro/PixelMap/pixel.c.obj
                                                  CMakeFiles/kiibohd.dir/Macro/PartialMap/trigger.c.obj
                                                  CMakeFiles/kiibohd.dir/Macro/PartialMap/macro.c.obj
                                                  CMakeFiles/kiibohd.dir/Macro/PartialMap/layer.c.obj
                                                  CMakeFiles/kiibohd.dir/Scan/Devices/MatrixARMPeriodic/matrix_scan.c.obj
printInt32                                        CMakeFiles/kiibohd.dir/Debug/print/print.c.obj
                                                  CMakeFiles/kiibohd.dir/Debug/cli/cli.c.obj
                                                  CMakeFiles/kiibohd.dir/Output/USB/output_usb.c.obj
                                                  CMakeFiles/kiibohd.dir/Output/Interface/output_gen.c.obj
                                                  CMakeFiles/kiibohd.dir/Output/HID-IO/hidio_com.c.obj
                                                  CMakeFiles/kiibohd.dir/Macro/PixelMap/pixel.c.obj
                                                  CMakeFiles/kiibohd.dir/Macro/PartialMap/macro.c.obj
                                                  CMakeFiles/kiibohd.dir/Scan/Devices/MatrixARMPeriodic/matrix_scan.c.obj
                                                  CMakeFiles/kiibohd.dir/Scan/Devices/ISSILed/led_scan.c.obj
                                                  CMakeFiles/kiibohd.dir/Scan/Devices/ISSILed/i2c.c.obj
printInt8                                         CMakeFiles/kiibohd.dir/Debug/print/print.c.obj
                                                  CMakeFiles/kiibohd.dir/Debug/cli/cli.c.obj
                                                  CMakeFiles/kiibohd.dir/Output/USB/output_usb.c.obj
                                                  CMakeFiles/kiibohd.dir/Macro/PixelMap/pixel.c.obj
                                                  CMakeFiles/kiibohd.dir/Macro/PartialMap/trigger.c.obj
                                                  CMakeFiles/kiibohd.dir/Macro/PartialMap/macro.c.obj
                                                  CMakeFiles/kiibohd.dir/Macro/PartialMap/layer.c.obj
                                                  CMakeFiles/kiibohd.dir/Scan/Devices/UARTConnect/connect_scan.c.obj
                                                  CMakeFiles/kiibohd.dir/Scan/Devices/MatrixARMPeriodic/matrix_scan.c.obj
                                                  CMakeFiles/kiibohd.dir/Scan/Devices/ISSILed/i2c.c.obj
printLatency                                      CMakeFiles/kiibohd.dir/Debug/cli/cli.c.obj
printstrs                                         CMakeFiles/kiibohd.dir/Debug/print/print.c.obj
                                                  CMakeFiles/kiibohd.dir/Debug/cli/cli.c.obj
prompt                                            CMakeFiles/kiibohd.dir/Debug/cli/cli.c.obj
randCLIDict_DescEntry                             CMakeFiles/kiibohd.dir/Debug/cli/cli.c.obj
rand_available                                    CMakeFiles/kiibohd.dir/Lib/entropy.c.obj
                                                  CMakeFiles/kiibohd.dir/Debug/cli/cli.c.obj
rand_disable                                      CMakeFiles/kiibohd.dir/Lib/entropy.c.obj
rand_initialize                                   CMakeFiles/kiibohd.dir/Lib/entropy.c.obj
                                                  CMakeFiles/kiibohd.dir/Lib/kinetis.c.obj
rand_value32                                      CMakeFiles/kiibohd.dir/Lib/entropy.c.obj
                                                  CMakeFiles/kiibohd.dir/Debug/cli/cli.c.obj
randnum_isr                                       CMakeFiles/kiibohd.dir/Lib/kinetis.c.obj
readLEDsCLIDict_DescEntry                         CMakeFiles/kiibohd.dir/Output/USB/output_usb.c.obj
read_stacked_fault_frame                          CMakeFiles/kiibohd.dir/Lib/arm_cortex.c.obj
rectDispCLIDict_DescEntry                         CMakeFiles/kiibohd.dir/Macro/PixelMap/pixel.c.obj
reloadCLIDict_DescEntry                           CMakeFiles/kiibohd.dir/Debug/cli/cli.c.obj
resetCLIDict_DescEntry                            CMakeFiles/kiibohd.dir/Debug/cli/cli.c.obj
restartCLIDict_DescEntry                          CMakeFiles/kiibohd.dir/Debug/cli/cli.c.obj
revsStr                                           CMakeFiles/kiibohd.dir/Debug/print/print.c.obj
rm0_guide                                         CMakeFiles/kiibohd.dir/Macro/PartialMap/macro.c.obj
rm100_guide                                       CMakeFiles/kiibohd.dir/Macro/PartialMap/macro.c.obj
rm101_guide                                       CMakeFiles/kiibohd.dir/Macro/PartialMap/macro.c.obj
rm102_guide                                       CMakeFiles/kiibohd.dir/Macro/PartialMap/macro.c.obj
rm103_guide                                       CMakeFiles/kiibohd.dir/Macro/PartialMap/macro.c.obj
rm104_guide                                       CMakeFiles/kiibohd.dir/Macro/PartialMap/macro.c.obj
rm105_guide                                       CMakeFiles/kiibohd.dir/Macro/PartialMap/macro.c.obj
rm106_guide                                       CMakeFiles/kiibohd.dir/Macro/PartialMap/macro.c.obj
rm10_guide                                        CMakeFiles/kiibohd.dir/Macro/PartialMap/macro.c.obj
rm11_guide                                        CMakeFiles/kiibohd.dir/Macro/PartialMap/macro.c.obj
rm12_guide                                        CMakeFiles/kiibohd.dir/Macro/PartialMap/macro.c.obj
rm13_guide                                        CMakeFiles/kiibohd.dir/Macro/PartialMap/macro.c.obj
rm14_guide                                        CMakeFiles/kiibohd.dir/Macro/PartialMap/macro.c.obj
rm15_guide                                        CMakeFiles/kiibohd.dir/Macro/PartialMap/macro.c.obj
rm16_guide                                        CMakeFiles/kiibohd.dir/Macro/PartialMap/macro.c.obj
rm17_guide                                        CMakeFiles/kiibohd.dir/Macro/PartialMap/macro.c.obj
rm18_guide                                        CMakeFiles/kiibohd.dir/Macro/PartialMap/macro.c.obj
rm19_guide                                        CMakeFiles/kiibohd.dir/Macro/PartialMap/macro.c.obj
rm1_guide                                         CMakeFiles/kiibohd.dir/Macro/PartialMap/macro.c.obj
rm20_guide                                        CMakeFiles/kiibohd.dir/Macro/PartialMap/macro.c.obj
rm21_guide                                        CMakeFiles/kiibohd.dir/Macro/PartialMap/macro.c.obj
rm22_guide                                        CMakeFiles/kiibohd.dir/Macro/PartialMap/macro.c.obj
rm23_guide                                        CMakeFiles/kiibohd.dir/Macro/PartialMap/macro.c.obj
rm24_guide                                        CMakeFiles/kiibohd.dir/Macro/PartialMap/macro.c.obj
rm25_guide                                        CMakeFiles/kiibohd.dir/Macro/PartialMap/macro.c.obj
rm26_guide                                        CMakeFiles/kiibohd.dir/Macro/PartialMap/macro.c.obj
rm27_guide                                        CMakeFiles/kiibohd.dir/Macro/PartialMap/macro.c.obj
rm28_guide                                        CMakeFiles/kiibohd.dir/Macro/PartialMap/macro.c.obj
rm29_guide                                        CMakeFiles/kiibohd.dir/Macro/PartialMap/macro.c.obj
rm2_guide                                         CMakeFiles/kiibohd.dir/Macro/PartialMap/macro.c.obj
rm30_guide                                        CMakeFiles/kiibohd.dir/Macro/PartialMap/macro.c.obj
rm31_guide                                        CMakeFiles/kiibohd.dir/Macro/PartialMap/macro.c.obj
rm32_guide                                        CMakeFiles/kiibohd.dir/Macro/PartialMap/macro.c.obj
rm33_guide                                        CMakeFiles/kiibohd.dir/Macro/PartialMap/macro.c.obj
rm34_guide                                        CMakeFiles/kiibohd.dir/Macro/PartialMap/macro.c.obj
rm35_guide                                        CMakeFiles/kiibohd.dir/Macro/PartialMap/macro.c.obj
rm36_guide                                        CMakeFiles/kiibohd.dir/Macro/PartialMap/macro.c.obj
rm37_guide                                        CMakeFiles/kiibohd.dir/Macro/PartialMap/macro.c.obj
rm38_guide                                        CMakeFiles/kiibohd.dir/Macro/PartialMap/macro.c.obj
rm39_guide                                        CMakeFiles/kiibohd.dir/Macro/PartialMap/macro.c.obj
rm3_guide                                         CMakeFiles/kiibohd.dir/Macro/PartialMap/macro.c.obj
rm40_guide                                        CMakeFiles/kiibohd.dir/Macro/PartialMap/macro.c.obj
rm41_guide                                        CMakeFiles/kiibohd.dir/Macro/PartialMap/macro.c.obj
rm42_guide                                        CMakeFiles/kiibohd.dir/Macro/PartialMap/macro.c.obj
rm43_guide                                        CMakeFiles/kiibohd.dir/Macro/PartialMap/macro.c.obj
rm44_guide                                        CMakeFiles/kiibohd.dir/Macro/PartialMap/macro.c.obj
rm45_guide                                        CMakeFiles/kiibohd.dir/Macro/PartialMap/macro.c.obj
rm46_guide                                        CMakeFiles/kiibohd.dir/Macro/PartialMap/macro.c.obj
rm47_guide                                        CMakeFiles/kiibohd.dir/Macro/PartialMap/macro.c.obj
rm48_guide                                        CMakeFiles/kiibohd.dir/Macro/PartialMap/macro.c.obj
rm49_guide                                        CMakeFiles/kiibohd.dir/Macro/PartialMap/macro.c.obj
rm4_guide                                         CMakeFiles/kiibohd.dir/Macro/PartialMap/macro.c.obj
rm50_guide                                        CMakeFiles/kiibohd.dir/Macro/PartialMap/macro.c.obj
rm51_guide                                        CMakeFiles/kiibohd.dir/Macro/PartialMap/macro.c.obj
rm52_guide                                        CMakeFiles/kiibohd.dir/Macro/PartialMap/macro.c.obj
rm53_guide                                        CMakeFiles/kiibohd.dir/Macro/PartialMap/macro.c.obj
rm54_guide                                        CMakeFiles/kiibohd.dir/Macro/PartialMap/macro.c.obj
rm55_guide                                        CMakeFiles/kiibohd.dir/Macro/PartialMap/macro.c.obj
rm56_guide                                        CMakeFiles/kiibohd.dir/Macro/PartialMap/macro.c.obj
rm57_guide                                        CMakeFiles/kiibohd.dir/Macro/PartialMap/macro.c.obj
rm58_guide                                        CMakeFiles/kiibohd.dir/Macro/PartialMap/macro.c.obj
rm59_guide                                        CMakeFiles/kiibohd.dir/Macro/PartialMap/macro.c.obj
rm5_guide                                         CMakeFiles/kiibohd.dir/Macro/PartialMap/macro.c.obj
rm60_guide                                        CMakeFiles/kiibohd.dir/Macro/PartialMap/macro.c.obj
rm61_guide                                        CMakeFiles/kiibohd.dir/Macro/PartialMap/macro.c.obj
rm62_guide                                        CMakeFiles/kiibohd.dir/Macro/PartialMap/macro.c.obj
rm63_guide                                        CMakeFiles/kiibohd.dir/Macro/PartialMap/macro.c.obj
rm64_guide                                        CMakeFiles/kiibohd.dir/Macro/PartialMap/macro.c.obj
rm65_guide                                        CMakeFiles/kiibohd.dir/Macro/PartialMap/macro.c.obj
rm66_guide                                        CMakeFiles/kiibohd.dir/Macro/PartialMap/macro.c.obj
rm67_guide                                        CMakeFiles/kiibohd.dir/Macro/PartialMap/macro.c.obj
rm68_guide                                        CMakeFiles/kiibohd.dir/Macro/PartialMap/macro.c.obj
rm69_guide                                        CMakeFiles/kiibohd.dir/Macro/PartialMap/macro.c.obj
rm6_guide                                         CMakeFiles/kiibohd.dir/Macro/PartialMap/macro.c.obj
rm70_guide                                        CMakeFiles/kiibohd.dir/Macro/PartialMap/macro.c.obj
rm71_guide                                        CMakeFiles/kiibohd.dir/Macro/PartialMap/macro.c.obj
rm72_guide                                        CMakeFiles/kiibohd.dir/Macro/PartialMap/macro.c.obj
rm73_guide                                        CMakeFiles/kiibohd.dir/Macro/PartialMap/macro.c.obj
rm74_guide                                        CMakeFiles/kiibohd.dir/Macro/PartialMap/macro.c.obj
rm75_guide                                        CMakeFiles/kiibohd.dir/Macro/PartialMap/macro.c.obj
rm76_guide                                        CMakeFiles/kiibohd.dir/Macro/PartialMap/macro.c.obj
rm77_guide                                        CMakeFiles/kiibohd.dir/Macro/PartialMap/macro.c.obj
rm78_guide                                        CMakeFiles/kiibohd.dir/Macro/PartialMap/macro.c.obj
rm79_guide                                        CMakeFiles/kiibohd.dir/Macro/PartialMap/macro.c.obj
rm7_guide                                         CMakeFiles/kiibohd.dir/Macro/PartialMap/macro.c.obj
rm80_guide                                        CMakeFiles/kiibohd.dir/Macro/PartialMap/macro.c.obj
rm81_guide                                        CMakeFiles/kiibohd.dir/Macro/PartialMap/macro.c.obj
rm82_guide                                        CMakeFiles/kiibohd.dir/Macro/PartialMap/macro.c.obj
rm83_guide                                        CMakeFiles/kiibohd.dir/Macro/PartialMap/macro.c.obj
rm84_guide                                        CMakeFiles/kiibohd.dir/Macro/PartialMap/macro.c.obj
rm85_guide                                        CMakeFiles/kiibohd.dir/Macro/PartialMap/macro.c.obj
rm86_guide                                        CMakeFiles/kiibohd.dir/Macro/PartialMap/macro.c.obj
rm87_guide                                        CMakeFiles/kiibohd.dir/Macro/PartialMap/macro.c.obj
rm88_guide                                        CMakeFiles/kiibohd.dir/Macro/PartialMap/macro.c.obj
rm89_guide                                        CMakeFiles/kiibohd.dir/Macro/PartialMap/macro.c.obj
rm8_guide                                         CMakeFiles/kiibohd.dir/Macro/PartialMap/macro.c.obj
rm90_guide                                        CMakeFiles/kiibohd.dir/Macro/PartialMap/macro.c.obj
rm91_guide                                        CMakeFiles/kiibohd.dir/Macro/PartialMap/macro.c.obj
rm92_guide                                        CMakeFiles/kiibohd.dir/Macro/PartialMap/macro.c.obj
rm93_guide                                        CMakeFiles/kiibohd.dir/Macro/PartialMap/macro.c.obj
rm94_guide                                        CMakeFiles/kiibohd.dir/Macro/PartialMap/macro.c.obj
rm95_guide                                        CMakeFiles/kiibohd.dir/Macro/PartialMap/macro.c.obj
rm96_guide                                        CMakeFiles/kiibohd.dir/Macro/PartialMap/macro.c.obj
rm97_guide                                        CMakeFiles/kiibohd.dir/Macro/PartialMap/macro.c.obj
rm98_guide                                        CMakeFiles/kiibohd.dir/Macro/PartialMap/macro.c.obj
rm99_guide                                        CMakeFiles/kiibohd.dir/Macro/PartialMap/macro.c.obj
rm9_guide                                         CMakeFiles/kiibohd.dir/Macro/PartialMap/macro.c.obj
rtc_alarm_isr                                     CMakeFiles/kiibohd.dir/Lib/kinetis.c.obj
rtc_seconds_isr                                   CMakeFiles/kiibohd.dir/Lib/kinetis.c.obj
sdhc_isr                                          CMakeFiles/kiibohd.dir/Lib/kinetis.c.obj
software_isr                                      CMakeFiles/kiibohd.dir/Lib/kinetis.c.obj
spi0_isr                                          CMakeFiles/kiibohd.dir/Lib/kinetis.c.obj
spi1_isr                                          CMakeFiles/kiibohd.dir/Lib/kinetis.c.obj
spi2_isr                                          CMakeFiles/kiibohd.dir/Lib/kinetis.c.obj
string0                                           CMakeFiles/kiibohd.dir/Output/USB/arm/usb_desc.c.obj
strobeDelayCLIDict_DescEntry                      CMakeFiles/kiibohd.dir/Scan/Devices/MatrixARMPeriodic/matrix_scan.c.obj
svcall_isr                                        CMakeFiles/kiibohd.dir/Lib/kinetis.c.obj
sys_reset_to_loader_magic                         CMakeFiles/kiibohd.dir/Lib/kinetis.c.obj
                                                  CMakeFiles/kiibohd.dir/Output/USB/arm/usb_dev.c.obj
systick_default_isr                               CMakeFiles/kiibohd.dir/Lib/kinetis.c.obj
systick_isr                                       CMakeFiles/kiibohd.dir/Lib/kinetis.c.obj
systick_millis_count                              CMakeFiles/kiibohd.dir/Lib/delay.c.obj
                                                  CMakeFiles/kiibohd.dir/Output/USB/arm/usb_keyboard.c.obj
                                                  CMakeFiles/kiibohd.dir/Output/USB/arm/usb_dev.c.obj
                                                  CMakeFiles/kiibohd.dir/Scan/Devices/UARTConnect/connect_scan.c.obj
                                                  CMakeFiles/kiibohd.dir/Scan/Devices/MatrixARMPeriodic/matrix_scan.c.obj
                                                  CMakeFiles/kiibohd.dir/Lib/time.c.obj
                                                  CMakeFiles/kiibohd.dir/Lib/kinetis.c.obj
tickCLIDict_DescEntry                             CMakeFiles/kiibohd.dir/Debug/cli/cli.c.obj
tm0_guide                                         CMakeFiles/kiibohd.dir/Macro/PartialMap/macro.c.obj
tm10_guide                                        CMakeFiles/kiibohd.dir/Macro/PartialMap/macro.c.obj
tm11_guide                                        CMakeFiles/kiibohd.dir/Macro/PartialMap/macro.c.obj
tm12_guide                                        CMakeFiles/kiibohd.dir/Macro/PartialMap/macro.c.obj
tm13_guide                                        CMakeFiles/kiibohd.dir/Macro/PartialMap/macro.c.obj
tm14_guide                                        CMakeFiles/kiibohd.dir/Macro/PartialMap/macro.c.obj
tm15_guide                                        CMakeFiles/kiibohd.dir/Macro/PartialMap/macro.c.obj
tm16_guide                                        CMakeFiles/kiibohd.dir/Macro/PartialMap/macro.c.obj
tm17_guide                                        CMakeFiles/kiibohd.dir/Macro/PartialMap/macro.c.obj
tm18_guide                                        CMakeFiles/kiibohd.dir/Macro/PartialMap/macro.c.obj
tm19_guide                                        CMakeFiles/kiibohd.dir/Macro/PartialMap/macro.c.obj
tm1_guide                                         CMakeFiles/kiibohd.dir/Macro/PartialMap/macro.c.obj
tm20_guide                                        CMakeFiles/kiibohd.dir/Macro/PartialMap/macro.c.obj
tm21_guide                                        CMakeFiles/kiibohd.dir/Macro/PartialMap/macro.c.obj
tm22_guide                                        CMakeFiles/kiibohd.dir/Macro/PartialMap/macro.c.obj
tm23_guide                                        CMakeFiles/kiibohd.dir/Macro/PartialMap/macro.c.obj
tm24_guide                                        CMakeFiles/kiibohd.dir/Macro/PartialMap/macro.c.obj
tm25_guide                                        CMakeFiles/kiibohd.dir/Macro/PartialMap/macro.c.obj
tm26_guide                                        CMakeFiles/kiibohd.dir/Macro/PartialMap/macro.c.obj
tm27_guide                                        CMakeFiles/kiibohd.dir/Macro/PartialMap/macro.c.obj
tm28_guide                                        CMakeFiles/kiibohd.dir/Macro/PartialMap/macro.c.obj
tm29_guide                                        CMakeFiles/kiibohd.dir/Macro/PartialMap/macro.c.obj
tm2_guide                                         CMakeFiles/kiibohd.dir/Macro/PartialMap/macro.c.obj
tm30_guide                                        CMakeFiles/kiibohd.dir/Macro/PartialMap/macro.c.obj
tm31_guide                                        CMakeFiles/kiibohd.dir/Macro/PartialMap/macro.c.obj
tm32_guide                                        CMakeFiles/kiibohd.dir/Macro/PartialMap/macro.c.obj
tm33_guide                                        CMakeFiles/kiibohd.dir/Macro/PartialMap/macro.c.obj
tm34_guide                                        CMakeFiles/kiibohd.dir/Macro/PartialMap/macro.c.obj
tm35_guide                                        CMakeFiles/kiibohd.dir/Macro/PartialMap/macro.c.obj
tm36_guide                                        CMakeFiles/kiibohd.dir/Macro/PartialMap/macro.c.obj
tm37_guide                                        CMakeFiles/kiibohd.dir/Macro/PartialMap/macro.c.obj
tm38_guide                                        CMakeFiles/kiibohd.dir/Macro/PartialMap/macro.c.obj
tm39_guide                                        CMakeFiles/kiibohd.dir/Macro/PartialMap/macro.c.obj
tm3_guide                                         CMakeFiles/kiibohd.dir/Macro/PartialMap/macro.c.obj
tm40_guide                                        CMakeFiles/kiibohd.dir/Macro/PartialMap/macro.c.obj
tm41_guide                                        CMakeFiles/kiibohd.dir/Macro/PartialMap/macro.c.obj
tm42_guide                                        CMakeFiles/kiibohd.dir/Macro/PartialMap/macro.c.obj
tm43_guide                                        CMakeFiles/kiibohd.dir/Macro/PartialMap/macro.c.obj
tm44_guide                                        CMakeFiles/kiibohd.dir/Macro/PartialMap/macro.c.obj
tm45_guide                                        CMakeFiles/kiibohd.dir/Macro/PartialMap/macro.c.obj
tm46_guide                                        CMakeFiles/kiibohd.dir/Macro/PartialMap/macro.c.obj
tm47_guide                                        CMakeFiles/kiibohd.dir/Macro/PartialMap/macro.c.obj
tm48_guide                                        CMakeFiles/kiibohd.dir/Macro/PartialMap/macro.c.obj
tm49_guide                                        CMakeFiles/kiibohd.dir/Macro/PartialMap/macro.c.obj
tm4_guide                                         CMakeFiles/kiibohd.dir/Macro/PartialMap/macro.c.obj
tm50_guide                                        CMakeFiles/kiibohd.dir/Macro/PartialMap/macro.c.obj
tm51_guide                                        CMakeFiles/kiibohd.dir/Macro/PartialMap/macro.c.obj
tm52_guide                                        CMakeFiles/kiibohd.dir/Macro/PartialMap/macro.c.obj
tm53_guide                                        CMakeFiles/kiibohd.dir/Macro/PartialMap/macro.c.obj
tm54_guide                                        CMakeFiles/kiibohd.dir/Macro/PartialMap/macro.c.obj
tm55_guide                                        CMakeFiles/kiibohd.dir/Macro/PartialMap/macro.c.obj
tm56_guide                                        CMakeFiles/kiibohd.dir/Macro/PartialMap/macro.c.obj
tm57_guide                                        CMakeFiles/kiibohd.dir/Macro/PartialMap/macro.c.obj
tm58_guide                                        CMakeFiles/kiibohd.dir/Macro/PartialMap/macro.c.obj
tm59_guide                                        CMakeFiles/kiibohd.dir/Macro/PartialMap/macro.c.obj
tm5_guide                                         CMakeFiles/kiibohd.dir/Macro/PartialMap/macro.c.obj
tm60_guide                                        CMakeFiles/kiibohd.dir/Macro/PartialMap/macro.c.obj
tm61_guide                                        CMakeFiles/kiibohd.dir/Macro/PartialMap/macro.c.obj
tm62_guide                                        CMakeFiles/kiibohd.dir/Macro/PartialMap/macro.c.obj
tm63_guide                                        CMakeFiles/kiibohd.dir/Macro/PartialMap/macro.c.obj
tm64_guide                                        CMakeFiles/kiibohd.dir/Macro/PartialMap/macro.c.obj
tm65_guide                                        CMakeFiles/kiibohd.dir/Macro/PartialMap/macro.c.obj
tm66_guide                                        CMakeFiles/kiibohd.dir/Macro/PartialMap/macro.c.obj
tm67_guide                                        CMakeFiles/kiibohd.dir/Macro/PartialMap/macro.c.obj
tm68_guide                                        CMakeFiles/kiibohd.dir/Macro/PartialMap/macro.c.obj
tm69_guide                                        CMakeFiles/kiibohd.dir/Macro/PartialMap/macro.c.obj
tm6_guide                                         CMakeFiles/kiibohd.dir/Macro/PartialMap/macro.c.obj
tm70_guide                                        CMakeFiles/kiibohd.dir/Macro/PartialMap/macro.c.obj
tm71_guide                                        CMakeFiles/kiibohd.dir/Macro/PartialMap/macro.c.obj
tm72_guide                                        CMakeFiles/kiibohd.dir/Macro/PartialMap/macro.c.obj
tm73_guide                                        CMakeFiles/kiibohd.dir/Macro/PartialMap/macro.c.obj
tm74_guide                                        CMakeFiles/kiibohd.dir/Macro/PartialMap/macro.c.obj
tm75_guide                                        CMakeFiles/kiibohd.dir/Macro/PartialMap/macro.c.obj
tm7_guide                                         CMakeFiles/kiibohd.dir/Macro/PartialMap/macro.c.obj
tm8_guide                                         CMakeFiles/kiibohd.dir/Macro/PartialMap/macro.c.obj
tm9_guide                                         CMakeFiles/kiibohd.dir/Macro/PartialMap/macro.c.obj
tpm0_isr                                          CMakeFiles/kiibohd.dir/Lib/kinetis.c.obj
tpm1_isr                                          CMakeFiles/kiibohd.dir/Lib/kinetis.c.obj
tpm2_isr                                          CMakeFiles/kiibohd.dir/Lib/kinetis.c.obj
triggerPendingDebugMode                           CMakeFiles/kiibohd.dir/Macro/PartialMap/macro.c.obj
                                                  CMakeFiles/kiibohd.dir/Macro/PartialMap/trigger.c.obj
tsi0_isr                                          CMakeFiles/kiibohd.dir/Lib/kinetis.c.obj
uart0_error_isr                                   CMakeFiles/kiibohd.dir/Lib/kinetis.c.obj
uart0_lon_isr                                     CMakeFiles/kiibohd.dir/Lib/kinetis.c.obj
uart0_status_isr                                  CMakeFiles/kiibohd.dir/Lib/kinetis.c.obj
uart1_error_isr                                   CMakeFiles/kiibohd.dir/Lib/kinetis.c.obj
uart1_status_isr                                  CMakeFiles/kiibohd.dir/Lib/kinetis.c.obj
uart2_error_isr                                   CMakeFiles/kiibohd.dir/Lib/kinetis.c.obj
uart2_status_isr                                  CMakeFiles/kiibohd.dir/Lib/kinetis.c.obj
uart3_error_isr                                   CMakeFiles/kiibohd.dir/Lib/kinetis.c.obj
uart3_status_isr                                  CMakeFiles/kiibohd.dir/Lib/kinetis.c.obj
uart4_error_isr                                   CMakeFiles/kiibohd.dir/Lib/kinetis.c.obj
uart4_status_isr                                  CMakeFiles/kiibohd.dir/Lib/kinetis.c.obj
uart5_error_isr                                   CMakeFiles/kiibohd.dir/Lib/kinetis.c.obj
uart5_status_isr                                  CMakeFiles/kiibohd.dir/Lib/kinetis.c.obj
uartConnectCLIDict                                CMakeFiles/kiibohd.dir/Scan/Devices/UARTConnect/connect_scan.c.obj
uartConnectCLIDictName                            CMakeFiles/kiibohd.dir/Scan/Devices/UARTConnect/connect_scan.c.obj
uart_rx_buf                                       CMakeFiles/kiibohd.dir/Scan/Devices/UARTConnect/connect_scan.c.obj
uart_rx_status                                    CMakeFiles/kiibohd.dir/Scan/Devices/UARTConnect/connect_scan.c.obj
uart_tx_buf                                       CMakeFiles/kiibohd.dir/Scan/Devices/UARTConnect/connect_scan.c.obj
uart_tx_status                                    CMakeFiles/kiibohd.dir/Scan/Devices/UARTConnect/connect_scan.c.obj
uarts_configured                                  CMakeFiles/kiibohd.dir/Scan/Devices/UARTConnect/connect_scan.c.obj
unused_isr                                        CMakeFiles/kiibohd.dir/Lib/kinetis.c.obj
us_now                                            CMakeFiles/kiibohd.dir/Lib/delay.c.obj
usage_fault_default_isr                           CMakeFiles/kiibohd.dir/Lib/kinetis.c.obj
usage_fault_isr                                   CMakeFiles/kiibohd.dir/Lib/kinetis.c.obj
usbAddrCLIDict_DescEntry                          CMakeFiles/kiibohd.dir/Output/USB/output_usb.c.obj
usbCLIDict                                        CMakeFiles/kiibohd.dir/Output/USB/output_usb.c.obj
usbCLIDictName                                    CMakeFiles/kiibohd.dir/Output/USB/output_usb.c.obj
usbConfCLIDict_DescEntry                          CMakeFiles/kiibohd.dir/Output/USB/output_usb.c.obj
usbInitTimeCLIDict_DescEntry                      CMakeFiles/kiibohd.dir/Output/USB/output_usb.c.obj
usb_bMaxPower                                     CMakeFiles/kiibohd.dir/Output/USB/arm/usb_desc.c.obj
                                                  CMakeFiles/kiibohd.dir/Output/USB/arm/usb_dev.c.obj
usb_buffer_memory                                 CMakeFiles/kiibohd.dir/Output/USB/arm/usb_mem.c.obj
usb_cdc_line_coding                               CMakeFiles/kiibohd.dir/Output/USB/arm/usb_serial.c.obj
                                                  CMakeFiles/kiibohd.dir/Output/USB/arm/usb_dev.c.obj
usb_cdc_line_rtsdtr                               CMakeFiles/kiibohd.dir/Output/USB/arm/usb_serial.c.obj
                                                  CMakeFiles/kiibohd.dir/Output/USB/arm/usb_dev.c.obj
usb_cdc_transmit_flush_timer                      CMakeFiles/kiibohd.dir/Output/USB/arm/usb_serial.c.obj
                                                  CMakeFiles/kiibohd.dir/Output/USB/arm/usb_dev.c.obj
usb_charge_isr                                    CMakeFiles/kiibohd.dir/Lib/kinetis.c.obj
usb_configuration                                 CMakeFiles/kiibohd.dir/Output/USB/arm/usb_dev.c.obj
                                                  CMakeFiles/kiibohd.dir/Output/USB/arm/usb_serial.c.obj
                                                  CMakeFiles/kiibohd.dir/Output/USB/arm/usb_rawio.c.obj
                                                  CMakeFiles/kiibohd.dir/Output/USB/arm/usb_mouse.c.obj
                                                  CMakeFiles/kiibohd.dir/Output/USB/arm/usb_mem.c.obj
                                                  CMakeFiles/kiibohd.dir/Output/USB/arm/usb_keyboard.c.obj
usb_configured                                    CMakeFiles/kiibohd.dir/Output/USB/arm/usb_dev.c.obj
                                                  CMakeFiles/kiibohd.dir/Output/USB/output_usb.c.obj
usb_descriptor_list                               CMakeFiles/kiibohd.dir/Output/USB/arm/usb_desc.c.obj
                                                  CMakeFiles/kiibohd.dir/Output/USB/arm/usb_dev.c.obj
usb_device_check                                  CMakeFiles/kiibohd.dir/Output/USB/arm/usb_dev.c.obj
                                                  CMakeFiles/kiibohd.dir/Output/USB/output_usb.c.obj
usb_device_reload                                 CMakeFiles/kiibohd.dir/Output/USB/arm/usb_dev.c.obj
                                                  CMakeFiles/kiibohd.dir/Output/USB/output_usb.c.obj
usb_endpoint_config_table                         CMakeFiles/kiibohd.dir/Output/USB/arm/usb_desc.c.obj
                                                  CMakeFiles/kiibohd.dir/Output/USB/arm/usb_dev.c.obj
usb_free                                          CMakeFiles/kiibohd.dir/Output/USB/arm/usb_mem.c.obj
                                                  CMakeFiles/kiibohd.dir/Output/USB/arm/usb_serial.c.obj
                                                  CMakeFiles/kiibohd.dir/Output/USB/arm/usb_rawio.c.obj
                                                  CMakeFiles/kiibohd.dir/Output/USB/arm/usb_dev.c.obj
usb_init                                          CMakeFiles/kiibohd.dir/Output/USB/arm/usb_dev.c.obj
                                                  CMakeFiles/kiibohd.dir/Output/USB/output_usb.c.obj
usb_isr                                           CMakeFiles/kiibohd.dir/Output/USB/arm/usb_dev.c.obj
                                                  CMakeFiles/kiibohd.dir/Lib/kinetis.c.obj
usb_keyboard_clear                                CMakeFiles/kiibohd.dir/Output/USB/arm/usb_keyboard.c.obj
                                                  CMakeFiles/kiibohd.dir/Output/USB/output_usb.c.obj
usb_keyboard_idle_update                          CMakeFiles/kiibohd.dir/Output/USB/arm/usb_keyboard.c.obj
                                                  CMakeFiles/kiibohd.dir/Output/USB/output_usb.c.obj
usb_keyboard_send                                 CMakeFiles/kiibohd.dir/Output/USB/arm/usb_keyboard.c.obj
                                                  CMakeFiles/kiibohd.dir/Output/USB/output_usb.c.obj
usb_malloc                                        CMakeFiles/kiibohd.dir/Output/USB/arm/usb_mem.c.obj
                                                  CMakeFiles/kiibohd.dir/Output/USB/arm/usb_serial.c.obj
                                                  CMakeFiles/kiibohd.dir/Output/USB/arm/usb_rawio.c.obj
                                                  CMakeFiles/kiibohd.dir/Output/USB/arm/usb_mouse.c.obj
                                                  CMakeFiles/kiibohd.dir/Output/USB/arm/usb_keyboard.c.obj
                                                  CMakeFiles/kiibohd.dir/Output/USB/arm/usb_dev.c.obj
usb_mouse_send                                    CMakeFiles/kiibohd.dir/Output/USB/arm/usb_mouse.c.obj
                                                  CMakeFiles/kiibohd.dir/Output/USB/output_usb.c.obj
usb_rawio_available                               CMakeFiles/kiibohd.dir/Output/USB/arm/usb_rawio.c.obj
                                                  CMakeFiles/kiibohd.dir/Output/USB/output_usb.c.obj
usb_rawio_rx                                      CMakeFiles/kiibohd.dir/Output/USB/arm/usb_rawio.c.obj
                                                  CMakeFiles/kiibohd.dir/Output/USB/output_usb.c.obj
usb_rawio_tx                                      CMakeFiles/kiibohd.dir/Output/USB/arm/usb_rawio.c.obj
                                                  CMakeFiles/kiibohd.dir/Output/USB/output_usb.c.obj
usb_reboot_timer                                  CMakeFiles/kiibohd.dir/Output/USB/arm/usb_dev.c.obj
usb_reinit                                        CMakeFiles/kiibohd.dir/Output/USB/arm/usb_dev.c.obj
usb_resume                                        CMakeFiles/kiibohd.dir/Output/USB/arm/usb_dev.c.obj
                                                  CMakeFiles/kiibohd.dir/Output/USB/arm/usb_keyboard.c.obj
usb_rx                                            CMakeFiles/kiibohd.dir/Output/USB/arm/usb_dev.c.obj
                                                  CMakeFiles/kiibohd.dir/Output/USB/arm/usb_serial.c.obj
                                                  CMakeFiles/kiibohd.dir/Output/USB/arm/usb_rawio.c.obj
usb_rx_byte_count_data                            CMakeFiles/kiibohd.dir/Output/USB/arm/usb_dev.c.obj
                                                  CMakeFiles/kiibohd.dir/Output/USB/arm/usb_serial.c.obj
                                                  CMakeFiles/kiibohd.dir/Output/USB/arm/usb_rawio.c.obj
usb_rx_memory                                     CMakeFiles/kiibohd.dir/Output/USB/arm/usb_dev.c.obj
                                                  CMakeFiles/kiibohd.dir/Output/USB/arm/usb_mem.c.obj
usb_rx_memory_needed                              CMakeFiles/kiibohd.dir/Output/USB/arm/usb_dev.c.obj
                                                  CMakeFiles/kiibohd.dir/Output/USB/arm/usb_mem.c.obj
usb_serial_available                              CMakeFiles/kiibohd.dir/Output/USB/arm/usb_serial.c.obj
                                                  CMakeFiles/kiibohd.dir/Output/USB/output_usb.c.obj
usb_serial_flush_callback                         CMakeFiles/kiibohd.dir/Output/USB/arm/usb_serial.c.obj
                                                  CMakeFiles/kiibohd.dir/Output/USB/arm/usb_dev.c.obj
usb_serial_flush_input                            CMakeFiles/kiibohd.dir/Output/USB/arm/usb_serial.c.obj
usb_serial_flush_output                           CMakeFiles/kiibohd.dir/Output/USB/arm/usb_serial.c.obj
usb_serial_getchar                                CMakeFiles/kiibohd.dir/Output/USB/arm/usb_serial.c.obj
                                                  CMakeFiles/kiibohd.dir/Output/USB/output_usb.c.obj
usb_serial_peekchar                               CMakeFiles/kiibohd.dir/Output/USB/arm/usb_serial.c.obj
usb_serial_putchar                                CMakeFiles/kiibohd.dir/Output/USB/arm/usb_serial.c.obj
                                                  CMakeFiles/kiibohd.dir/Output/USB/output_usb.c.obj
usb_serial_read                                   CMakeFiles/kiibohd.dir/Output/USB/arm/usb_serial.c.obj
usb_serial_write                                  CMakeFiles/kiibohd.dir/Output/USB/arm/usb_serial.c.obj
                                                  CMakeFiles/kiibohd.dir/Output/USB/output_usb.c.obj
usb_set_config_descriptor_size                    CMakeFiles/kiibohd.dir/Output/USB/arm/usb_desc.c.obj
                                                  CMakeFiles/kiibohd.dir/Output/USB/arm/usb_dev.c.obj
usb_set_configuration                             CMakeFiles/kiibohd.dir/Output/USB/arm/usb_dev.c.obj
usb_set_sleep_state                               CMakeFiles/kiibohd.dir/Output/USB/arm/usb_dev.c.obj
usb_setup                                         CMakeFiles/kiibohd.dir/Output/USB/arm/usb_dev.c.obj
usb_string_cdc_data_name                          CMakeFiles/kiibohd.dir/Output/USB/arm/usb_desc.c.obj
usb_string_cdc_status_name                        CMakeFiles/kiibohd.dir/Output/USB/arm/usb_desc.c.obj
usb_string_flashingstation_name                   CMakeFiles/kiibohd.dir/Output/USB/arm/usb_desc.c.obj
usb_string_keyboard_name                          CMakeFiles/kiibohd.dir/Output/USB/arm/usb_desc.c.obj
usb_string_manufacturer_name                      CMakeFiles/kiibohd.dir/Output/USB/arm/usb_desc.c.obj
usb_string_manufacturer_name_default              CMakeFiles/kiibohd.dir/Output/USB/arm/usb_desc.c.obj
usb_string_mouse_name                             CMakeFiles/kiibohd.dir/Output/USB/arm/usb_desc.c.obj
usb_string_nkro_keyboard_name                     CMakeFiles/kiibohd.dir/Output/USB/arm/usb_desc.c.obj
usb_string_product_name                           CMakeFiles/kiibohd.dir/Output/USB/arm/usb_desc.c.obj
usb_string_product_name_default                   CMakeFiles/kiibohd.dir/Output/USB/arm/usb_desc.c.obj
usb_string_rawio_name                             CMakeFiles/kiibohd.dir/Output/USB/arm/usb_desc.c.obj
usb_string_serial_number                          CMakeFiles/kiibohd.dir/Output/USB/arm/usb_desc.c.obj
usb_string_serial_number_default                  CMakeFiles/kiibohd.dir/Output/USB/arm/usb_desc.c.obj
                                                  CMakeFiles/kiibohd.dir/Output/USB/arm/usb_dev.c.obj
usb_string_sys_ctrl_name                          CMakeFiles/kiibohd.dir/Output/USB/arm/usb_desc.c.obj
usb_suspended                                     CMakeFiles/kiibohd.dir/Output/USB/arm/usb_dev.c.obj
usb_tx                                            CMakeFiles/kiibohd.dir/Output/USB/arm/usb_dev.c.obj
                                                  CMakeFiles/kiibohd.dir/Output/USB/arm/usb_serial.c.obj
                                                  CMakeFiles/kiibohd.dir/Output/USB/arm/usb_rawio.c.obj
                                                  CMakeFiles/kiibohd.dir/Output/USB/arm/usb_mouse.c.obj
                                                  CMakeFiles/kiibohd.dir/Output/USB/arm/usb_keyboard.c.obj
usb_tx_byte_count                                 CMakeFiles/kiibohd.dir/Output/USB/arm/usb_dev.c.obj
usb_tx_packet_count                               CMakeFiles/kiibohd.dir/Output/USB/arm/usb_dev.c.obj
                                                  CMakeFiles/kiibohd.dir/Output/USB/arm/usb_serial.c.obj
                                                  CMakeFiles/kiibohd.dir/Output/USB/arm/usb_rawio.c.obj
                                                  CMakeFiles/kiibohd.dir/Output/USB/arm/usb_mouse.c.obj
                                                  CMakeFiles/kiibohd.dir/Output/USB/arm/usb_keyboard.c.obj
usbhs_isr                                         CMakeFiles/kiibohd.dir/Lib/kinetis.c.obj
usbhs_phy_isr                                     CMakeFiles/kiibohd.dir/Lib/kinetis.c.obj
versionCLIDict_DescEntry                          CMakeFiles/kiibohd.dir/Debug/cli/cli.c.obj
voteDebugCLIDict_DescEntry                        CMakeFiles/kiibohd.dir/Macro/PartialMap/macro.c.obj
voteDebugMode                                     CMakeFiles/kiibohd.dir/Macro/PartialMap/macro.c.obj
                                                  CMakeFiles/kiibohd.dir/Macro/PartialMap/trigger.c.obj
wakeup_isr                                        CMakeFiles/kiibohd.dir/Lib/kinetis.c.obj
watchdog_default_isr                              CMakeFiles/kiibohd.dir/Lib/kinetis.c.obj
watchdog_isr                                      CMakeFiles/kiibohd.dir/Lib/kinetis.c.obj
yield                                             CMakeFiles/kiibohd.dir/Lib/delay.c.obj
                                                  CMakeFiles/kiibohd.dir/Output/USB/arm/usb_serial.c.obj
                                                  CMakeFiles/kiibohd.dir/Output/USB/arm/usb_rawio.c.obj
                                                  CMakeFiles/kiibohd.dir/Output/USB/arm/usb_mouse.c.obj
                                                  CMakeFiles/kiibohd.dir/Output/USB/arm/usb_keyboard.c.obj
